	.file	"main.cpp"
# GNU C++14 (Ubuntu 7.5.0-3ubuntu1~18.04) version 7.5.0 (x86_64-linux-gnu)
#	compiled by GNU C version 7.5.0, GMP version 6.1.2, MPFR version 4.0.1, MPC version 1.1.0, isl version isl-0.19-GMP

# GGC heuristics: --param ggc-min-expand=100 --param ggc-min-heapsize=131072
# options passed:  -imultiarch x86_64-linux-gnu -D_GNU_SOURCE main.cpp
# -mtune=generic -march=x86-64 -auxbase-strip main_o1.s -g -fverbose-asm
# -fstack-protector-strong -Wformat -Wformat-security
# options enabled:  -fPIC -fPIE -faggressive-loop-optimizations
# -fasynchronous-unwind-tables -fauto-inc-dec -fchkp-check-incomplete-type
# -fchkp-check-read -fchkp-check-write -fchkp-instrument-calls
# -fchkp-narrow-bounds -fchkp-optimize -fchkp-store-bounds
# -fchkp-use-static-bounds -fchkp-use-static-const-bounds
# -fchkp-use-wrappers -fcommon -fdelete-null-pointer-checks
# -fdwarf2-cfi-asm -fearly-inlining -feliminate-unused-debug-types
# -fexceptions -ffp-int-builtin-inexact -ffunction-cse -fgcse-lm
# -fgnu-runtime -fgnu-unique -fident -finline-atomics -fira-hoist-pressure
# -fira-share-save-slots -fira-share-spill-slots -fivopts
# -fkeep-static-consts -fleading-underscore -flifetime-dse
# -flto-odr-type-merging -fmath-errno -fmerge-debug-strings -fpeephole
# -fplt -fprefetch-loop-arrays -freg-struct-return
# -fsched-critical-path-heuristic -fsched-dep-count-heuristic
# -fsched-group-heuristic -fsched-interblock -fsched-last-insn-heuristic
# -fsched-rank-heuristic -fsched-spec -fsched-spec-insn-heuristic
# -fsched-stalled-insns-dep -fschedule-fusion -fsemantic-interposition
# -fshow-column -fshrink-wrap-separate -fsigned-zeros
# -fsplit-ivs-in-unroller -fssa-backprop -fstack-protector-strong
# -fstdarg-opt -fstrict-volatile-bitfields -fsync-libcalls -ftrapping-math
# -ftree-cselim -ftree-forwprop -ftree-loop-if-convert -ftree-loop-im
# -ftree-loop-ivcanon -ftree-loop-optimize -ftree-parallelize-loops=
# -ftree-phiprop -ftree-reassoc -ftree-scev-cprop -funit-at-a-time
# -funwind-tables -fverbose-asm -fzero-initialized-in-bss
# -m128bit-long-double -m64 -m80387 -malign-stringops
# -mavx256-split-unaligned-load -mavx256-split-unaligned-store
# -mfancy-math-387 -mfp-ret-in-387 -mfxsr -mglibc -mieee-fp
# -mlong-double-80 -mmmx -mno-sse4 -mpush-args -mred-zone -msse -msse2
# -mstv -mtls-direct-seg-refs -mvzeroupper

	.text
.Ltext0:
	.section	.text._ZnwmPv,"axG",@progbits,_ZnwmPv,comdat
	.weak	_ZnwmPv
	.type	_ZnwmPv, @function
_ZnwmPv:
.LFB38:
	.file 1 "/usr/include/c++/7/new"
	.loc 1 169 0
	.cfi_startproc
	pushq	%rbp	#
	.cfi_def_cfa_offset 16
	.cfi_offset 6, -16
	movq	%rsp, %rbp	#,
	.cfi_def_cfa_register 6
	movq	%rdi, -8(%rbp)	# D.3346, D.3346
	movq	%rsi, -16(%rbp)	# __p, __p
# /usr/include/c++/7/new:169: { return __p; }
	.loc 1 169 0
	movq	-16(%rbp), %rax	# __p, _2
	popq	%rbp	#
	.cfi_def_cfa 7, 8
	ret
	.cfi_endproc
.LFE38:
	.size	_ZnwmPv, .-_ZnwmPv
	.section	.rodata
	.type	_ZStL19piecewise_construct, @object
	.size	_ZStL19piecewise_construct, 1
_ZStL19piecewise_construct:
	.zero	1
	.local	_ZStL8__ioinit
	.comm	_ZStL8__ioinit,1,1
	.text
	.globl	_Z5printi
	.type	_Z5printi, @function
_Z5printi:
.LFB1838:
	.file 2 "main.cpp"
	.loc 2 5 0
	.cfi_startproc
	pushq	%rbp	#
	.cfi_def_cfa_offset 16
	.cfi_offset 6, -16
	movq	%rsp, %rbp	#,
	.cfi_def_cfa_register 6
	subq	$16, %rsp	#,
	movl	%edi, -4(%rbp)	# v, v
# main.cpp:6:     std::cout << v << std::endl;
	.loc 2 6 0
	movl	-4(%rbp), %eax	# v, tmp88
	movl	%eax, %esi	# tmp88,
	leaq	_ZSt4cout(%rip), %rdi	#,
	call	_ZNSolsEi@PLT	#
	movq	%rax, %rdx	#, _1
	movq	_ZSt4endlIcSt11char_traitsIcEERSt13basic_ostreamIT_T0_ES6_@GOTPCREL(%rip), %rax	#, tmp89
	movq	%rax, %rsi	# tmp89,
	movq	%rdx, %rdi	# _1,
	call	_ZNSolsEPFRSoS_E@PLT	#
# main.cpp:7: }
	.loc 2 7 0
	nop
	leave
	.cfi_def_cfa 7, 8
	ret
	.cfi_endproc
.LFE1838:
	.size	_Z5printi, .-_Z5printi
	.section	.rodata
	.align 2
	.type	_ZL8sizeTest, @object
	.size	_ZL8sizeTest, 2
_ZL8sizeTest:
	.value	90
	.section	.text._ZN9TestInputC2Ev,"axG",@progbits,_ZN9TestInputC5Ev,comdat
	.align 2
	.weak	_ZN9TestInputC2Ev
	.type	_ZN9TestInputC2Ev, @function
_ZN9TestInputC2Ev:
.LFB1841:
	.loc 2 10 0
	.cfi_startproc
	pushq	%rbp	#
	.cfi_def_cfa_offset 16
	.cfi_offset 6, -16
	movq	%rsp, %rbp	#,
	.cfi_def_cfa_register 6
	subq	$16, %rsp	#,
	movq	%rdi, -8(%rbp)	# this, this
.LBB2:
# main.cpp:10: struct TestInput
	.loc 2 10 0
	movq	-8(%rbp), %rax	# this, _1
	movq	%rax, %rdi	# _1,
	call	_ZNSt6vectorIsSaIsEEC1Ev	#
	movq	-8(%rbp), %rax	# this, tmp93
	addq	$24, %rax	#, _2
	movq	%rax, %rdi	# _2,
	call	_ZNSt6vectorIsSaIsEEC1Ev	#
	movq	-8(%rbp), %rax	# this, tmp94
	addq	$48, %rax	#, _3
	movq	%rax, %rdi	# _3,
	call	_ZNSt6vectorIsSaIsEEC1Ev	#
.LBE2:
	nop
	leave
	.cfi_def_cfa 7, 8
	ret
	.cfi_endproc
.LFE1841:
	.size	_ZN9TestInputC2Ev, .-_ZN9TestInputC2Ev
	.weak	_ZN9TestInputC1Ev
	.set	_ZN9TestInputC1Ev,_ZN9TestInputC2Ev
	.section	.text._ZN9TestInputD2Ev,"axG",@progbits,_ZN9TestInputD5Ev,comdat
	.align 2
	.weak	_ZN9TestInputD2Ev
	.type	_ZN9TestInputD2Ev, @function
_ZN9TestInputD2Ev:
.LFB1844:
	.loc 2 10 0
	.cfi_startproc
	pushq	%rbp	#
	.cfi_def_cfa_offset 16
	.cfi_offset 6, -16
	movq	%rsp, %rbp	#,
	.cfi_def_cfa_register 6
	subq	$16, %rsp	#,
	movq	%rdi, -8(%rbp)	# this, this
.LBB3:
# main.cpp:10: struct TestInput
	.loc 2 10 0
	movq	-8(%rbp), %rax	# this, tmp90
	addq	$48, %rax	#, _1
	movq	%rax, %rdi	# _1,
	call	_ZNSt6vectorIsSaIsEED1Ev	#
	movq	-8(%rbp), %rax	# this, tmp91
	addq	$24, %rax	#, _2
	movq	%rax, %rdi	# _2,
	call	_ZNSt6vectorIsSaIsEED1Ev	#
	movq	-8(%rbp), %rax	# this, _3
	movq	%rax, %rdi	# _3,
	call	_ZNSt6vectorIsSaIsEED1Ev	#
.LBE3:
	nop
	leave
	.cfi_def_cfa 7, 8
	ret
	.cfi_endproc
.LFE1844:
	.size	_ZN9TestInputD2Ev, .-_ZN9TestInputD2Ev
	.weak	_ZN9TestInputD1Ev
	.set	_ZN9TestInputD1Ev,_ZN9TestInputD2Ev
	.section	.rodata
.LC0:
	.string	"Size input.data1: "
.LC1:
	.string	"Size input.data2: "
.LC2:
	.string	"Size input.data3: "
.LC3:
	.string	"Size MainTest: "
.LC4:
	.string	"Size test.output.data1: "
.LC5:
	.string	"Size test.output.data2: "
.LC6:
	.string	"Size test.output.data3: "
	.text
	.globl	main
	.type	main, @function
main:
.LFB1839:
	.loc 2 33 0
	.cfi_startproc
	.cfi_personality 0x9b,DW.ref.__gxx_personality_v0
	.cfi_lsda 0x1b,.LLSDA1839
	pushq	%rbp	#
	.cfi_def_cfa_offset 16
	.cfi_offset 6, -16
	movq	%rsp, %rbp	#,
	.cfi_def_cfa_register 6
	pushq	%rbx	#
	subq	$664, %rsp	#,
	.cfi_offset 3, -24
# main.cpp:33: {
	.loc 2 33 0
	movq	%fs:40, %rax	#, tmp168
	movq	%rax, -24(%rbp)	# tmp168, D.46027
	xorl	%eax, %eax	# tmp168
# main.cpp:34:     TestInput input;
	.loc 2 34 0
	leaq	-656(%rbp), %rax	#, tmp119
	movq	%rax, %rdi	# tmp119,
	call	_ZN9TestInputC1Ev	#
.LBB4:
# main.cpp:35:     for (int joana1 = 0; joana1 < sizeTest; joana1++)
	.loc 2 35 0
	movl	$0, -664(%rbp)	#, joana1
.L8:
# main.cpp:35:     for (int joana1 = 0; joana1 < sizeTest; joana1++)
	.loc 2 35 0 is_stmt 0 discriminator 2
	cmpl	$89, -664(%rbp)	#, joana1
	jg	.L7	#,
# main.cpp:37:         input.data1.push_back(joana1);
	.loc 2 37 0 is_stmt 1
	movl	-664(%rbp), %eax	# joana1, tmp120
	movw	%ax, -666(%rbp)	# _1, D.40745
	leaq	-666(%rbp), %rdx	#, tmp121
	leaq	-656(%rbp), %rax	#, tmp122
	movq	%rdx, %rsi	# tmp121,
	movq	%rax, %rdi	# tmp122,
.LEHB0:
	call	_ZNSt6vectorIsSaIsEE9push_backEOs	#
# main.cpp:38:         input.data2.push_back(joana1);
	.loc 2 38 0 discriminator 2
	movl	-664(%rbp), %eax	# joana1, tmp123
	movw	%ax, -666(%rbp)	# _2, D.40746
	leaq	-666(%rbp), %rax	#, tmp124
	leaq	-656(%rbp), %rdx	#, tmp125
	addq	$24, %rdx	#, tmp126
	movq	%rax, %rsi	# tmp124,
	movq	%rdx, %rdi	# tmp126,
	call	_ZNSt6vectorIsSaIsEE9push_backEOs	#
# main.cpp:39:         input.data3.push_back(joana1);
	.loc 2 39 0 discriminator 2
	movl	-664(%rbp), %eax	# joana1, tmp127
	movw	%ax, -666(%rbp)	# _3, D.40747
	leaq	-666(%rbp), %rax	#, tmp128
	leaq	-656(%rbp), %rdx	#, tmp129
	addq	$48, %rdx	#, tmp130
	movq	%rax, %rsi	# tmp128,
	movq	%rdx, %rdi	# tmp130,
	call	_ZNSt6vectorIsSaIsEE9push_backEOs	#
# main.cpp:35:     for (int joana1 = 0; joana1 < sizeTest; joana1++)
	.loc 2 35 0 discriminator 2
	addl	$1, -664(%rbp)	#, joana1
	jmp	.L8	#
.L7:
.LBE4:
# main.cpp:42:     std::cout << "Size input.data1: " << input.data1.size() << std::endl;
	.loc 2 42 0
	leaq	.LC0(%rip), %rsi	#,
	leaq	_ZSt4cout(%rip), %rdi	#,
	call	_ZStlsISt11char_traitsIcEERSt13basic_ostreamIcT_ES5_PKc@PLT	#
	movq	%rax, %rbx	#, _4
	leaq	-656(%rbp), %rax	#, tmp131
	movq	%rax, %rdi	# tmp131,
	call	_ZNKSt6vectorIsSaIsEE4sizeEv	#
	movq	%rax, %rsi	# _5,
	movq	%rbx, %rdi	# _4,
	call	_ZNSolsEm@PLT	#
# main.cpp:42:     std::cout << "Size input.data1: " << input.data1.size() << std::endl;
	.loc 2 42 0 is_stmt 0 discriminator 1
	movq	%rax, %rdx	#, _6
	movq	_ZSt4endlIcSt11char_traitsIcEERSt13basic_ostreamIT_T0_ES6_@GOTPCREL(%rip), %rax	#, tmp132
	movq	%rax, %rsi	# tmp132,
	movq	%rdx, %rdi	# _6,
	call	_ZNSolsEPFRSoS_E@PLT	#
# main.cpp:43:     std::cout << "Size input.data2: " << input.data2.size() << std::endl;
	.loc 2 43 0 is_stmt 1
	leaq	.LC1(%rip), %rsi	#,
	leaq	_ZSt4cout(%rip), %rdi	#,
	call	_ZStlsISt11char_traitsIcEERSt13basic_ostreamIcT_ES5_PKc@PLT	#
	movq	%rax, %rbx	#, _7
	leaq	-656(%rbp), %rax	#, tmp133
	addq	$24, %rax	#, tmp134
	movq	%rax, %rdi	# tmp134,
	call	_ZNKSt6vectorIsSaIsEE4sizeEv	#
	movq	%rax, %rsi	# _8,
	movq	%rbx, %rdi	# _7,
	call	_ZNSolsEm@PLT	#
# main.cpp:43:     std::cout << "Size input.data2: " << input.data2.size() << std::endl;
	.loc 2 43 0 is_stmt 0 discriminator 1
	movq	%rax, %rdx	#, _9
	movq	_ZSt4endlIcSt11char_traitsIcEERSt13basic_ostreamIT_T0_ES6_@GOTPCREL(%rip), %rax	#, tmp135
	movq	%rax, %rsi	# tmp135,
	movq	%rdx, %rdi	# _9,
	call	_ZNSolsEPFRSoS_E@PLT	#
# main.cpp:44:     std::cout << "Size input.data3: " << input.data3.size() << std::endl;
	.loc 2 44 0 is_stmt 1
	leaq	.LC2(%rip), %rsi	#,
	leaq	_ZSt4cout(%rip), %rdi	#,
	call	_ZStlsISt11char_traitsIcEERSt13basic_ostreamIcT_ES5_PKc@PLT	#
	movq	%rax, %rbx	#, _10
	leaq	-656(%rbp), %rax	#, tmp136
	addq	$48, %rax	#, tmp137
	movq	%rax, %rdi	# tmp137,
	call	_ZNKSt6vectorIsSaIsEE4sizeEv	#
	movq	%rax, %rsi	# _11,
	movq	%rbx, %rdi	# _10,
	call	_ZNSolsEm@PLT	#
# main.cpp:44:     std::cout << "Size input.data3: " << input.data3.size() << std::endl;
	.loc 2 44 0 is_stmt 0 discriminator 1
	movq	%rax, %rdx	#, _12
	movq	_ZSt4endlIcSt11char_traitsIcEERSt13basic_ostreamIT_T0_ES6_@GOTPCREL(%rip), %rax	#, tmp138
	movq	%rax, %rsi	# tmp138,
	movq	%rdx, %rdi	# _12,
	call	_ZNSolsEPFRSoS_E@PLT	#
# main.cpp:45:     input.data1.resize(sizeTest);
	.loc 2 45 0 is_stmt 1
	leaq	-656(%rbp), %rax	#, tmp139
	movl	$90, %esi	#,
	movq	%rax, %rdi	# tmp139,
	call	_ZNSt6vectorIsSaIsEE6resizeEm	#
# main.cpp:46:     input.data2.resize(sizeTest);
	.loc 2 46 0
	leaq	-656(%rbp), %rax	#, tmp140
	addq	$24, %rax	#, tmp141
	movl	$90, %esi	#,
	movq	%rax, %rdi	# tmp141,
	call	_ZNSt6vectorIsSaIsEE6resizeEm	#
# main.cpp:47:     input.data3.resize(sizeTest);
	.loc 2 47 0
	leaq	-656(%rbp), %rax	#, tmp142
	addq	$48, %rax	#, tmp143
	movl	$90, %esi	#,
	movq	%rax, %rdi	# tmp143,
	call	_ZNSt6vectorIsSaIsEE6resizeEm	#
# main.cpp:49:     std::cout << "Size MainTest: " << sizeof(MainTest) << std::endl;
	.loc 2 49 0
	leaq	.LC3(%rip), %rsi	#,
	leaq	_ZSt4cout(%rip), %rdi	#,
	call	_ZStlsISt11char_traitsIcEERSt13basic_ostreamIcT_ES5_PKc@PLT	#
	movl	$541, %esi	#,
	movq	%rax, %rdi	# _13,
	call	_ZNSolsEm@PLT	#
# main.cpp:49:     std::cout << "Size MainTest: " << sizeof(MainTest) << std::endl;
	.loc 2 49 0 is_stmt 0 discriminator 1
	movq	%rax, %rdx	#, _14
	movq	_ZSt4endlIcSt11char_traitsIcEERSt13basic_ostreamIT_T0_ES6_@GOTPCREL(%rip), %rax	#, tmp144
	movq	%rax, %rsi	# tmp144,
	movq	%rdx, %rdi	# _14,
	call	_ZNSolsEPFRSoS_E@PLT	#
.LBB5:
# main.cpp:51:     for (int joana2 = 0; joana2 < sizeTest; joana2++)
	.loc 2 51 0 is_stmt 1
	movl	$0, -660(%rbp)	#, joana2
.L10:
# main.cpp:51:     for (int joana2 = 0; joana2 < sizeTest; joana2++)
	.loc 2 51 0 is_stmt 0 discriminator 3
	cmpl	$89, -660(%rbp)	#, joana2
	jg	.L9	#,
# main.cpp:53:         test.output.data1[joana2] = input.data1[joana2];
	.loc 2 53 0 is_stmt 1 discriminator 2
	movl	-660(%rbp), %eax	# joana2, tmp145
	movslq	%eax, %rdx	# tmp145, _15
	leaq	-656(%rbp), %rax	#, tmp146
	movq	%rdx, %rsi	# _15,
	movq	%rax, %rdi	# tmp146,
	call	_ZNSt6vectorIsSaIsEEixEm	#
	movzwl	(%rax), %edx	# *_16, _17
	movl	-660(%rbp), %eax	# joana2, tmp148
	cltq
	movw	%dx, -575(%rbp,%rax,2)	# _17, test.output.data1
# main.cpp:54:         test.output.data2[joana2] = input.data2[joana2];
	.loc 2 54 0 discriminator 2
	movl	-660(%rbp), %eax	# joana2, tmp149
	cltq
	leaq	-656(%rbp), %rdx	#, tmp150
	addq	$24, %rdx	#, tmp151
	movq	%rax, %rsi	# _18,
	movq	%rdx, %rdi	# tmp151,
	call	_ZNSt6vectorIsSaIsEEixEm	#
	movzwl	(%rax), %eax	# *_19, _20
	movl	-660(%rbp), %edx	# joana2, tmp153
	movslq	%edx, %rdx	# tmp153, tmp152
	addq	$88, %rdx	#, tmp154
	movw	%ax, -571(%rbp,%rdx,2)	# _20, test.output.data2
# main.cpp:55:         test.output.data3[joana2] = input.data3[joana2];
	.loc 2 55 0 discriminator 2
	movl	-660(%rbp), %eax	# joana2, tmp155
	cltq
	leaq	-656(%rbp), %rdx	#, tmp156
	addq	$48, %rdx	#, tmp157
	movq	%rax, %rsi	# _21,
	movq	%rdx, %rdi	# tmp157,
	call	_ZNSt6vectorIsSaIsEEixEm	#
	movzwl	(%rax), %eax	# *_22, _23
	movl	-660(%rbp), %edx	# joana2, tmp159
	movslq	%edx, %rdx	# tmp159, tmp158
	addq	$176, %rdx	#, tmp160
	movw	%ax, -567(%rbp,%rdx,2)	# _23, test.output.data3
# main.cpp:51:     for (int joana2 = 0; joana2 < sizeTest; joana2++)
	.loc 2 51 0 discriminator 2
	addl	$1, -660(%rbp)	#, joana2
	jmp	.L10	#
.L9:
.LBE5:
# main.cpp:57:     std::cout << "Size test.output.data1: " << sizeof(test.output.data1) << std::endl;
	.loc 2 57 0
	leaq	.LC4(%rip), %rsi	#,
	leaq	_ZSt4cout(%rip), %rdi	#,
	call	_ZStlsISt11char_traitsIcEERSt13basic_ostreamIcT_ES5_PKc@PLT	#
	movl	$180, %esi	#,
	movq	%rax, %rdi	# _24,
	call	_ZNSolsEm@PLT	#
# main.cpp:57:     std::cout << "Size test.output.data1: " << sizeof(test.output.data1) << std::endl;
	.loc 2 57 0 is_stmt 0 discriminator 1
	movq	%rax, %rdx	#, _25
	movq	_ZSt4endlIcSt11char_traitsIcEERSt13basic_ostreamIT_T0_ES6_@GOTPCREL(%rip), %rax	#, tmp161
	movq	%rax, %rsi	# tmp161,
	movq	%rdx, %rdi	# _25,
	call	_ZNSolsEPFRSoS_E@PLT	#
# main.cpp:58:     std::cout << "Size test.output.data2: " << sizeof(test.output.data2) << std::endl;
	.loc 2 58 0 is_stmt 1
	leaq	.LC5(%rip), %rsi	#,
	leaq	_ZSt4cout(%rip), %rdi	#,
	call	_ZStlsISt11char_traitsIcEERSt13basic_ostreamIcT_ES5_PKc@PLT	#
	movl	$180, %esi	#,
	movq	%rax, %rdi	# _26,
	call	_ZNSolsEm@PLT	#
# main.cpp:58:     std::cout << "Size test.output.data2: " << sizeof(test.output.data2) << std::endl;
	.loc 2 58 0 is_stmt 0 discriminator 1
	movq	%rax, %rdx	#, _27
	movq	_ZSt4endlIcSt11char_traitsIcEERSt13basic_ostreamIT_T0_ES6_@GOTPCREL(%rip), %rax	#, tmp162
	movq	%rax, %rsi	# tmp162,
	movq	%rdx, %rdi	# _27,
	call	_ZNSolsEPFRSoS_E@PLT	#
# main.cpp:59:     std::cout << "Size test.output.data3: " << sizeof(test.output.data3) << std::endl;
	.loc 2 59 0 is_stmt 1
	leaq	.LC6(%rip), %rsi	#,
	leaq	_ZSt4cout(%rip), %rdi	#,
	call	_ZStlsISt11char_traitsIcEERSt13basic_ostreamIcT_ES5_PKc@PLT	#
	movl	$180, %esi	#,
	movq	%rax, %rdi	# _28,
	call	_ZNSolsEm@PLT	#
# main.cpp:59:     std::cout << "Size test.output.data3: " << sizeof(test.output.data3) << std::endl;
	.loc 2 59 0 is_stmt 0 discriminator 1
	movq	%rax, %rdx	#, _29
	movq	_ZSt4endlIcSt11char_traitsIcEERSt13basic_ostreamIT_T0_ES6_@GOTPCREL(%rip), %rax	#, tmp163
	movq	%rax, %rsi	# tmp163,
	movq	%rdx, %rdi	# _29,
	call	_ZNSolsEPFRSoS_E@PLT	#
.LEHE0:
# main.cpp:61:     return 0;
	.loc 2 61 0 is_stmt 1
	movl	$0, %ebx	#, _100
# main.cpp:34:     TestInput input;
	.loc 2 34 0
	leaq	-656(%rbp), %rax	#, tmp164
	movq	%rax, %rdi	# tmp164,
	call	_ZN9TestInputD1Ev	#
	movl	%ebx, %eax	# _100, <retval>
# main.cpp:62: }
	.loc 2 62 0
	movq	-24(%rbp), %rcx	# D.46027, tmp169
	xorq	%fs:40, %rcx	#, tmp169
	je	.L13	#,
	jmp	.L15	#
.L14:
	movq	%rax, %rbx	#, tmp167
# main.cpp:34:     TestInput input;
	.loc 2 34 0
	leaq	-656(%rbp), %rax	#, tmp166
	movq	%rax, %rdi	# tmp166,
	call	_ZN9TestInputD1Ev	#
	movq	%rbx, %rax	# tmp167, D.46025
	movq	%rax, %rdi	# D.46025,
.LEHB1:
	call	_Unwind_Resume@PLT	#
.LEHE1:
.L15:
# main.cpp:62: }
	.loc 2 62 0
	call	__stack_chk_fail@PLT	#
.L13:
	addq	$664, %rsp	#,
	popq	%rbx	#
	popq	%rbp	#
	.cfi_def_cfa 7, 8
	ret
	.cfi_endproc
.LFE1839:
	.globl	__gxx_personality_v0
	.section	.gcc_except_table,"a",@progbits
.LLSDA1839:
	.byte	0xff
	.byte	0xff
	.byte	0x1
	.uleb128 .LLSDACSE1839-.LLSDACSB1839
.LLSDACSB1839:
	.uleb128 .LEHB0-.LFB1839
	.uleb128 .LEHE0-.LEHB0
	.uleb128 .L14-.LFB1839
	.uleb128 0
	.uleb128 .LEHB1-.LFB1839
	.uleb128 .LEHE1-.LEHB1
	.uleb128 0
	.uleb128 0
.LLSDACSE1839:
	.text
	.size	main, .-main
	.section	.text._ZNSt6vectorIsSaIsEEC2Ev,"axG",@progbits,_ZNSt6vectorIsSaIsEEC5Ev,comdat
	.align 2
	.weak	_ZNSt6vectorIsSaIsEEC2Ev
	.type	_ZNSt6vectorIsSaIsEEC2Ev, @function
_ZNSt6vectorIsSaIsEEC2Ev:
.LFB2086:
	.file 3 "/usr/include/c++/7/bits/stl_vector.h"
	.loc 3 259 0
	.cfi_startproc
	.cfi_personality 0x9b,DW.ref.__gxx_personality_v0
	.cfi_lsda 0x1b,.LLSDA2086
	pushq	%rbp	#
	.cfi_def_cfa_offset 16
	.cfi_offset 6, -16
	movq	%rsp, %rbp	#,
	.cfi_def_cfa_register 6
	subq	$16, %rsp	#,
	movq	%rdi, -8(%rbp)	# this, this
.LBB6:
# /usr/include/c++/7/bits/stl_vector.h:263:       : _Base() { }
	.loc 3 263 0
	movq	-8(%rbp), %rax	# this, _1
	movq	%rax, %rdi	# _1,
	call	_ZNSt12_Vector_baseIsSaIsEEC2Ev	#
.LBE6:
	nop
	leave
	.cfi_def_cfa 7, 8
	ret
	.cfi_endproc
.LFE2086:
	.section	.gcc_except_table
.LLSDA2086:
	.byte	0xff
	.byte	0xff
	.byte	0x1
	.uleb128 .LLSDACSE2086-.LLSDACSB2086
.LLSDACSB2086:
.LLSDACSE2086:
	.section	.text._ZNSt6vectorIsSaIsEEC2Ev,"axG",@progbits,_ZNSt6vectorIsSaIsEEC5Ev,comdat
	.size	_ZNSt6vectorIsSaIsEEC2Ev, .-_ZNSt6vectorIsSaIsEEC2Ev
	.weak	_ZNSt6vectorIsSaIsEEC1Ev
	.set	_ZNSt6vectorIsSaIsEEC1Ev,_ZNSt6vectorIsSaIsEEC2Ev
	.section	.text._ZNSt6vectorIsSaIsEED2Ev,"axG",@progbits,_ZNSt6vectorIsSaIsEED5Ev,comdat
	.align 2
	.weak	_ZNSt6vectorIsSaIsEED2Ev
	.type	_ZNSt6vectorIsSaIsEED2Ev, @function
_ZNSt6vectorIsSaIsEED2Ev:
.LFB2089:
	.loc 3 433 0
	.cfi_startproc
	.cfi_personality 0x9b,DW.ref.__gxx_personality_v0
	.cfi_lsda 0x1b,.LLSDA2089
	pushq	%rbp	#
	.cfi_def_cfa_offset 16
	.cfi_offset 6, -16
	movq	%rsp, %rbp	#,
	.cfi_def_cfa_register 6
	subq	$16, %rsp	#,
	movq	%rdi, -8(%rbp)	# this, this
.LBB7:
# /usr/include/c++/7/bits/stl_vector.h:435: 		      _M_get_Tp_allocator()); }
	.loc 3 435 0
	movq	-8(%rbp), %rax	# this, _1
	movq	%rax, %rdi	# _1,
	call	_ZNSt12_Vector_baseIsSaIsEE19_M_get_Tp_allocatorEv	#
	movq	%rax, %rdx	#, _2
# /usr/include/c++/7/bits/stl_vector.h:434:       { std::_Destroy(this->_M_impl._M_start, this->_M_impl._M_finish,
	.loc 3 434 0
	movq	-8(%rbp), %rax	# this, tmp92
	movq	8(%rax), %rcx	# this_6(D)->D.40629._M_impl._M_finish, _3
	movq	-8(%rbp), %rax	# this, tmp93
	movq	(%rax), %rax	# this_6(D)->D.40629._M_impl._M_start, _4
	movq	%rcx, %rsi	# _3,
	movq	%rax, %rdi	# _4,
	call	_ZSt8_DestroyIPssEvT_S1_RSaIT0_E	#
# /usr/include/c++/7/bits/stl_vector.h:435: 		      _M_get_Tp_allocator()); }
	.loc 3 435 0
	movq	-8(%rbp), %rax	# this, _5
	movq	%rax, %rdi	# _5,
	call	_ZNSt12_Vector_baseIsSaIsEED2Ev	#
.LBE7:
	nop
	leave
	.cfi_def_cfa 7, 8
	ret
	.cfi_endproc
.LFE2089:
	.section	.gcc_except_table
.LLSDA2089:
	.byte	0xff
	.byte	0xff
	.byte	0x1
	.uleb128 .LLSDACSE2089-.LLSDACSB2089
.LLSDACSB2089:
.LLSDACSE2089:
	.section	.text._ZNSt6vectorIsSaIsEED2Ev,"axG",@progbits,_ZNSt6vectorIsSaIsEED5Ev,comdat
	.size	_ZNSt6vectorIsSaIsEED2Ev, .-_ZNSt6vectorIsSaIsEED2Ev
	.weak	_ZNSt6vectorIsSaIsEED1Ev
	.set	_ZNSt6vectorIsSaIsEED1Ev,_ZNSt6vectorIsSaIsEED2Ev
	.section	.text._ZSt4moveIRsEONSt16remove_referenceIT_E4typeEOS2_,"axG",@progbits,_ZSt4moveIRsEONSt16remove_referenceIT_E4typeEOS2_,comdat
	.weak	_ZSt4moveIRsEONSt16remove_referenceIT_E4typeEOS2_
	.type	_ZSt4moveIRsEONSt16remove_referenceIT_E4typeEOS2_, @function
_ZSt4moveIRsEONSt16remove_referenceIT_E4typeEOS2_:
.LFB2092:
	.file 4 "/usr/include/c++/7/bits/move.h"
	.loc 4 98 0
	.cfi_startproc
	pushq	%rbp	#
	.cfi_def_cfa_offset 16
	.cfi_offset 6, -16
	movq	%rsp, %rbp	#,
	.cfi_def_cfa_register 6
	movq	%rdi, -8(%rbp)	# __t, __t
# /usr/include/c++/7/bits/move.h:99:     { return static_cast<typename std::remove_reference<_Tp>::type&&>(__t); }
	.loc 4 99 0
	movq	-8(%rbp), %rax	# __t, _2
	popq	%rbp	#
	.cfi_def_cfa 7, 8
	ret
	.cfi_endproc
.LFE2092:
	.size	_ZSt4moveIRsEONSt16remove_referenceIT_E4typeEOS2_, .-_ZSt4moveIRsEONSt16remove_referenceIT_E4typeEOS2_
	.section	.text._ZNSt6vectorIsSaIsEE9push_backEOs,"axG",@progbits,_ZNSt6vectorIsSaIsEE9push_backEOs,comdat
	.align 2
	.weak	_ZNSt6vectorIsSaIsEE9push_backEOs
	.type	_ZNSt6vectorIsSaIsEE9push_backEOs, @function
_ZNSt6vectorIsSaIsEE9push_backEOs:
.LFB2091:
	.loc 3 953 0
	.cfi_startproc
	pushq	%rbp	#
	.cfi_def_cfa_offset 16
	.cfi_offset 6, -16
	movq	%rsp, %rbp	#,
	.cfi_def_cfa_register 6
	subq	$16, %rsp	#,
	movq	%rdi, -8(%rbp)	# this, this
	movq	%rsi, -16(%rbp)	# __x, __x
# /usr/include/c++/7/bits/stl_vector.h:954:       { emplace_back(std::move(__x)); }
	.loc 3 954 0
	movq	-16(%rbp), %rax	# __x, tmp88
	movq	%rax, %rdi	# tmp88,
	call	_ZSt4moveIRsEONSt16remove_referenceIT_E4typeEOS2_	#
	movq	%rax, %rdx	#, _1
	movq	-8(%rbp), %rax	# this, tmp89
	movq	%rdx, %rsi	# _1,
	movq	%rax, %rdi	# tmp89,
	call	_ZNSt6vectorIsSaIsEE12emplace_backIJsEEEvDpOT_	#
	nop
	leave
	.cfi_def_cfa 7, 8
	ret
	.cfi_endproc
.LFE2091:
	.size	_ZNSt6vectorIsSaIsEE9push_backEOs, .-_ZNSt6vectorIsSaIsEE9push_backEOs
	.section	.text._ZNKSt6vectorIsSaIsEE4sizeEv,"axG",@progbits,_ZNKSt6vectorIsSaIsEE4sizeEv,comdat
	.align 2
	.weak	_ZNKSt6vectorIsSaIsEE4sizeEv
	.type	_ZNKSt6vectorIsSaIsEE4sizeEv, @function
_ZNKSt6vectorIsSaIsEE4sizeEv:
.LFB2094:
	.loc 3 670 0
	.cfi_startproc
	pushq	%rbp	#
	.cfi_def_cfa_offset 16
	.cfi_offset 6, -16
	movq	%rsp, %rbp	#,
	.cfi_def_cfa_register 6
	movq	%rdi, -8(%rbp)	# this, this
# /usr/include/c++/7/bits/stl_vector.h:671:       { return size_type(this->_M_impl._M_finish - this->_M_impl._M_start); }
	.loc 3 671 0
	movq	-8(%rbp), %rax	# this, tmp95
	movq	8(%rax), %rax	# this_8(D)->D.40629._M_impl._M_finish, _1
	movq	%rax, %rdx	# _1, _2
	movq	-8(%rbp), %rax	# this, tmp96
	movq	(%rax), %rax	# this_8(D)->D.40629._M_impl._M_start, _3
	subq	%rax, %rdx	# _4, _2
	movq	%rdx, %rax	# _2, _5
	sarq	%rax	# tmp97
	popq	%rbp	#
	.cfi_def_cfa 7, 8
	ret
	.cfi_endproc
.LFE2094:
	.size	_ZNKSt6vectorIsSaIsEE4sizeEv, .-_ZNKSt6vectorIsSaIsEE4sizeEv
	.section	.text._ZNSt6vectorIsSaIsEE6resizeEm,"axG",@progbits,_ZNSt6vectorIsSaIsEE6resizeEm,comdat
	.align 2
	.weak	_ZNSt6vectorIsSaIsEE6resizeEm
	.type	_ZNSt6vectorIsSaIsEE6resizeEm, @function
_ZNSt6vectorIsSaIsEE6resizeEm:
.LFB2096:
	.loc 3 689 0
	.cfi_startproc
	pushq	%rbp	#
	.cfi_def_cfa_offset 16
	.cfi_offset 6, -16
	movq	%rsp, %rbp	#,
	.cfi_def_cfa_register 6
	subq	$16, %rsp	#,
	movq	%rdi, -8(%rbp)	# this, this
	movq	%rsi, -16(%rbp)	# __new_size, __new_size
# /usr/include/c++/7/bits/stl_vector.h:691: 	if (__new_size > size())
	.loc 3 691 0
	movq	-8(%rbp), %rax	# this, tmp96
	movq	%rax, %rdi	# tmp96,
	call	_ZNKSt6vectorIsSaIsEE4sizeEv	#
	cmpq	%rax, -16(%rbp)	# _1, __new_size
	seta	%al	#, retval.11_13
	testb	%al, %al	# retval.11_13
	je	.L24	#,
# /usr/include/c++/7/bits/stl_vector.h:692: 	  _M_default_append(__new_size - size());
	.loc 3 692 0
	movq	-8(%rbp), %rax	# this, tmp97
	movq	%rax, %rdi	# tmp97,
	call	_ZNKSt6vectorIsSaIsEE4sizeEv	#
	movq	%rax, %rdx	#, _2
	movq	-16(%rbp), %rax	# __new_size, tmp98
	subq	%rdx, %rax	# _2, tmp98
	movq	%rax, %rdx	# tmp98, _3
	movq	-8(%rbp), %rax	# this, tmp99
	movq	%rdx, %rsi	# _3,
	movq	%rax, %rdi	# tmp99,
	call	_ZNSt6vectorIsSaIsEE17_M_default_appendEm	#
# /usr/include/c++/7/bits/stl_vector.h:695:       }
	.loc 3 695 0
	jmp	.L26	#
.L24:
# /usr/include/c++/7/bits/stl_vector.h:693: 	else if (__new_size < size())
	.loc 3 693 0
	movq	-8(%rbp), %rax	# this, tmp100
	movq	%rax, %rdi	# tmp100,
	call	_ZNKSt6vectorIsSaIsEE4sizeEv	#
	cmpq	%rax, -16(%rbp)	# _4, __new_size
	setb	%al	#, retval.12_15
	testb	%al, %al	# retval.12_15
	je	.L26	#,
# /usr/include/c++/7/bits/stl_vector.h:694: 	  _M_erase_at_end(this->_M_impl._M_start + __new_size);
	.loc 3 694 0
	movq	-8(%rbp), %rax	# this, tmp101
	movq	(%rax), %rax	# this_10(D)->D.40629._M_impl._M_start, _5
	movq	-16(%rbp), %rdx	# __new_size, tmp102
	addq	%rdx, %rdx	# _6
	addq	%rax, %rdx	# _5, _7
	movq	-8(%rbp), %rax	# this, tmp103
	movq	%rdx, %rsi	# _7,
	movq	%rax, %rdi	# tmp103,
	call	_ZNSt6vectorIsSaIsEE15_M_erase_at_endEPs	#
.L26:
# /usr/include/c++/7/bits/stl_vector.h:695:       }
	.loc 3 695 0
	nop
	leave
	.cfi_def_cfa 7, 8
	ret
	.cfi_endproc
.LFE2096:
	.size	_ZNSt6vectorIsSaIsEE6resizeEm, .-_ZNSt6vectorIsSaIsEE6resizeEm
	.section	.text._ZNSt6vectorIsSaIsEEixEm,"axG",@progbits,_ZNSt6vectorIsSaIsEEixEm,comdat
	.align 2
	.weak	_ZNSt6vectorIsSaIsEEixEm
	.type	_ZNSt6vectorIsSaIsEEixEm, @function
_ZNSt6vectorIsSaIsEEixEm:
.LFB2097:
	.loc 3 795 0
	.cfi_startproc
	pushq	%rbp	#
	.cfi_def_cfa_offset 16
	.cfi_offset 6, -16
	movq	%rsp, %rbp	#,
	.cfi_def_cfa_register 6
	movq	%rdi, -8(%rbp)	# this, this
	movq	%rsi, -16(%rbp)	# __n, __n
# /usr/include/c++/7/bits/stl_vector.h:798: 	return *(this->_M_impl._M_start + __n);
	.loc 3 798 0
	movq	-8(%rbp), %rax	# this, tmp91
	movq	(%rax), %rax	# this_4(D)->D.40629._M_impl._M_start, _1
	movq	-16(%rbp), %rdx	# __n, tmp92
	addq	%rdx, %rdx	# _2
	addq	%rdx, %rax	# _2, _6
# /usr/include/c++/7/bits/stl_vector.h:799:       }
	.loc 3 799 0
	popq	%rbp	#
	.cfi_def_cfa 7, 8
	ret
	.cfi_endproc
.LFE2097:
	.size	_ZNSt6vectorIsSaIsEEixEm, .-_ZNSt6vectorIsSaIsEEixEm
	.section	.text._ZNSt12_Vector_baseIsSaIsEE12_Vector_implD2Ev,"axG",@progbits,_ZNSt12_Vector_baseIsSaIsEE12_Vector_implD5Ev,comdat
	.align 2
	.weak	_ZNSt12_Vector_baseIsSaIsEE12_Vector_implD2Ev
	.type	_ZNSt12_Vector_baseIsSaIsEE12_Vector_implD2Ev, @function
_ZNSt12_Vector_baseIsSaIsEE12_Vector_implD2Ev:
.LFB2212:
	.loc 3 81 0
	.cfi_startproc
	pushq	%rbp	#
	.cfi_def_cfa_offset 16
	.cfi_offset 6, -16
	movq	%rsp, %rbp	#,
	.cfi_def_cfa_register 6
	subq	$16, %rsp	#,
	movq	%rdi, -8(%rbp)	# this, this
.LBB8:
# /usr/include/c++/7/bits/stl_vector.h:81:       struct _Vector_impl
	.loc 3 81 0
	movq	-8(%rbp), %rax	# this, tmp87
	movq	%rax, %rdi	# tmp87,
	call	_ZNSaIsED2Ev	#
.LBE8:
	nop
	leave
	.cfi_def_cfa 7, 8
	ret
	.cfi_endproc
.LFE2212:
	.size	_ZNSt12_Vector_baseIsSaIsEE12_Vector_implD2Ev, .-_ZNSt12_Vector_baseIsSaIsEE12_Vector_implD2Ev
	.weak	_ZNSt12_Vector_baseIsSaIsEE12_Vector_implD1Ev
	.set	_ZNSt12_Vector_baseIsSaIsEE12_Vector_implD1Ev,_ZNSt12_Vector_baseIsSaIsEE12_Vector_implD2Ev
	.section	.text._ZNSt12_Vector_baseIsSaIsEEC2Ev,"axG",@progbits,_ZNSt12_Vector_baseIsSaIsEEC5Ev,comdat
	.align 2
	.weak	_ZNSt12_Vector_baseIsSaIsEEC2Ev
	.type	_ZNSt12_Vector_baseIsSaIsEEC2Ev, @function
_ZNSt12_Vector_baseIsSaIsEEC2Ev:
.LFB2214:
	.loc 3 126 0
	.cfi_startproc
	pushq	%rbp	#
	.cfi_def_cfa_offset 16
	.cfi_offset 6, -16
	movq	%rsp, %rbp	#,
	.cfi_def_cfa_register 6
	subq	$16, %rsp	#,
	movq	%rdi, -8(%rbp)	# this, this
.LBB9:
# /usr/include/c++/7/bits/stl_vector.h:127:       : _M_impl() { }
	.loc 3 127 0
	movq	-8(%rbp), %rax	# this, _1
	movq	%rax, %rdi	# _1,
	call	_ZNSt12_Vector_baseIsSaIsEE12_Vector_implC1Ev	#
.LBE9:
	nop
	leave
	.cfi_def_cfa 7, 8
	ret
	.cfi_endproc
.LFE2214:
	.size	_ZNSt12_Vector_baseIsSaIsEEC2Ev, .-_ZNSt12_Vector_baseIsSaIsEEC2Ev
	.weak	_ZNSt12_Vector_baseIsSaIsEEC1Ev
	.set	_ZNSt12_Vector_baseIsSaIsEEC1Ev,_ZNSt12_Vector_baseIsSaIsEEC2Ev
	.section	.text._ZNSt12_Vector_baseIsSaIsEED2Ev,"axG",@progbits,_ZNSt12_Vector_baseIsSaIsEED5Ev,comdat
	.align 2
	.weak	_ZNSt12_Vector_baseIsSaIsEED2Ev
	.type	_ZNSt12_Vector_baseIsSaIsEED2Ev, @function
_ZNSt12_Vector_baseIsSaIsEED2Ev:
.LFB2217:
	.loc 3 161 0
	.cfi_startproc
	.cfi_personality 0x9b,DW.ref.__gxx_personality_v0
	.cfi_lsda 0x1b,.LLSDA2217
	pushq	%rbp	#
	.cfi_def_cfa_offset 16
	.cfi_offset 6, -16
	movq	%rsp, %rbp	#,
	.cfi_def_cfa_register 6
	subq	$16, %rsp	#,
	movq	%rdi, -8(%rbp)	# this, this
.LBB10:
# /usr/include/c++/7/bits/stl_vector.h:162:       { _M_deallocate(this->_M_impl._M_start, this->_M_impl._M_end_of_storage
	.loc 3 162 0
	movq	-8(%rbp), %rax	# this, tmp96
	movq	16(%rax), %rax	# this_11(D)->_M_impl._M_end_of_storage, _1
# /usr/include/c++/7/bits/stl_vector.h:163: 		      - this->_M_impl._M_start); }
	.loc 3 163 0
	movq	%rax, %rdx	# _1, _2
	movq	-8(%rbp), %rax	# this, tmp97
	movq	(%rax), %rax	# this_11(D)->_M_impl._M_start, _3
	subq	%rax, %rdx	# _4, _2
	movq	%rdx, %rax	# _2, _5
	sarq	%rax	# tmp98
# /usr/include/c++/7/bits/stl_vector.h:162:       { _M_deallocate(this->_M_impl._M_start, this->_M_impl._M_end_of_storage
	.loc 3 162 0
	movq	%rax, %rdx	# _6, _7
	movq	-8(%rbp), %rax	# this, tmp99
	movq	(%rax), %rcx	# this_11(D)->_M_impl._M_start, _8
	movq	-8(%rbp), %rax	# this, tmp100
	movq	%rcx, %rsi	# _8,
	movq	%rax, %rdi	# tmp100,
	call	_ZNSt12_Vector_baseIsSaIsEE13_M_deallocateEPsm	#
# /usr/include/c++/7/bits/stl_vector.h:163: 		      - this->_M_impl._M_start); }
	.loc 3 163 0
	movq	-8(%rbp), %rax	# this, _9
	movq	%rax, %rdi	# _9,
	call	_ZNSt12_Vector_baseIsSaIsEE12_Vector_implD1Ev	#
.LBE10:
	nop
	leave
	.cfi_def_cfa 7, 8
	ret
	.cfi_endproc
.LFE2217:
	.section	.gcc_except_table
.LLSDA2217:
	.byte	0xff
	.byte	0xff
	.byte	0x1
	.uleb128 .LLSDACSE2217-.LLSDACSB2217
.LLSDACSB2217:
.LLSDACSE2217:
	.section	.text._ZNSt12_Vector_baseIsSaIsEED2Ev,"axG",@progbits,_ZNSt12_Vector_baseIsSaIsEED5Ev,comdat
	.size	_ZNSt12_Vector_baseIsSaIsEED2Ev, .-_ZNSt12_Vector_baseIsSaIsEED2Ev
	.weak	_ZNSt12_Vector_baseIsSaIsEED1Ev
	.set	_ZNSt12_Vector_baseIsSaIsEED1Ev,_ZNSt12_Vector_baseIsSaIsEED2Ev
	.section	.text._ZNSt12_Vector_baseIsSaIsEE19_M_get_Tp_allocatorEv,"axG",@progbits,_ZNSt12_Vector_baseIsSaIsEE19_M_get_Tp_allocatorEv,comdat
	.align 2
	.weak	_ZNSt12_Vector_baseIsSaIsEE19_M_get_Tp_allocatorEv
	.type	_ZNSt12_Vector_baseIsSaIsEE19_M_get_Tp_allocatorEv, @function
_ZNSt12_Vector_baseIsSaIsEE19_M_get_Tp_allocatorEv:
.LFB2219:
	.loc 3 115 0
	.cfi_startproc
	pushq	%rbp	#
	.cfi_def_cfa_offset 16
	.cfi_offset 6, -16
	movq	%rsp, %rbp	#,
	.cfi_def_cfa_register 6
	movq	%rdi, -8(%rbp)	# this, this
# /usr/include/c++/7/bits/stl_vector.h:116:       { return *static_cast<_Tp_alloc_type*>(&this->_M_impl); }
	.loc 3 116 0
	movq	-8(%rbp), %rax	# this, _2
	popq	%rbp	#
	.cfi_def_cfa 7, 8
	ret
	.cfi_endproc
.LFE2219:
	.size	_ZNSt12_Vector_baseIsSaIsEE19_M_get_Tp_allocatorEv, .-_ZNSt12_Vector_baseIsSaIsEE19_M_get_Tp_allocatorEv
	.section	.text._ZSt8_DestroyIPssEvT_S1_RSaIT0_E,"axG",@progbits,_ZSt8_DestroyIPssEvT_S1_RSaIT0_E,comdat
	.weak	_ZSt8_DestroyIPssEvT_S1_RSaIT0_E
	.type	_ZSt8_DestroyIPssEvT_S1_RSaIT0_E, @function
_ZSt8_DestroyIPssEvT_S1_RSaIT0_E:
.LFB2220:
	.file 5 "/usr/include/c++/7/bits/stl_construct.h"
	.loc 5 203 0
	.cfi_startproc
	pushq	%rbp	#
	.cfi_def_cfa_offset 16
	.cfi_offset 6, -16
	movq	%rsp, %rbp	#,
	.cfi_def_cfa_register 6
	subq	$32, %rsp	#,
	movq	%rdi, -8(%rbp)	# __first, __first
	movq	%rsi, -16(%rbp)	# __last, __last
	movq	%rdx, -24(%rbp)	# D.42935, D.42935
# /usr/include/c++/7/bits/stl_construct.h:206:       _Destroy(__first, __last);
	.loc 5 206 0
	movq	-16(%rbp), %rdx	# __last, tmp87
	movq	-8(%rbp), %rax	# __first, tmp88
	movq	%rdx, %rsi	# tmp87,
	movq	%rax, %rdi	# tmp88,
	call	_ZSt8_DestroyIPsEvT_S1_	#
# /usr/include/c++/7/bits/stl_construct.h:207:     }
	.loc 5 207 0
	nop
	leave
	.cfi_def_cfa 7, 8
	ret
	.cfi_endproc
.LFE2220:
	.size	_ZSt8_DestroyIPssEvT_S1_RSaIT0_E, .-_ZSt8_DestroyIPssEvT_S1_RSaIT0_E
	.section	.text._ZSt7forwardIsEOT_RNSt16remove_referenceIS0_E4typeE,"axG",@progbits,_ZSt7forwardIsEOT_RNSt16remove_referenceIS0_E4typeE,comdat
	.weak	_ZSt7forwardIsEOT_RNSt16remove_referenceIS0_E4typeE
	.type	_ZSt7forwardIsEOT_RNSt16remove_referenceIS0_E4typeE, @function
_ZSt7forwardIsEOT_RNSt16remove_referenceIS0_E4typeE:
.LFB2222:
	.loc 4 73 0
	.cfi_startproc
	pushq	%rbp	#
	.cfi_def_cfa_offset 16
	.cfi_offset 6, -16
	movq	%rsp, %rbp	#,
	.cfi_def_cfa_register 6
	movq	%rdi, -8(%rbp)	# __t, __t
# /usr/include/c++/7/bits/move.h:74:     { return static_cast<_Tp&&>(__t); }
	.loc 4 74 0
	movq	-8(%rbp), %rax	# __t, _2
	popq	%rbp	#
	.cfi_def_cfa 7, 8
	ret
	.cfi_endproc
.LFE2222:
	.size	_ZSt7forwardIsEOT_RNSt16remove_referenceIS0_E4typeE, .-_ZSt7forwardIsEOT_RNSt16remove_referenceIS0_E4typeE
	.section	.text._ZNSt6vectorIsSaIsEE12emplace_backIJsEEEvDpOT_,"axG",@progbits,_ZNSt6vectorIsSaIsEE12emplace_backIJsEEEvDpOT_,comdat
	.align 2
	.weak	_ZNSt6vectorIsSaIsEE12emplace_backIJsEEEvDpOT_
	.type	_ZNSt6vectorIsSaIsEE12emplace_backIJsEEEvDpOT_, @function
_ZNSt6vectorIsSaIsEE12emplace_backIJsEEEvDpOT_:
.LFB2221:
	.file 6 "/usr/include/c++/7/bits/vector.tcc"
	.loc 6 95 0
	.cfi_startproc
	pushq	%rbp	#
	.cfi_def_cfa_offset 16
	.cfi_offset 6, -16
	movq	%rsp, %rbp	#,
	.cfi_def_cfa_register 6
	pushq	%rbx	#
	subq	$24, %rsp	#,
	.cfi_offset 3, -24
	movq	%rdi, -24(%rbp)	# this, this
	movq	%rsi, -32(%rbp)	# __args#0, __args#0
# /usr/include/c++/7/bits/vector.tcc:98: 	if (this->_M_impl._M_finish != this->_M_impl._M_end_of_storage)
	.loc 6 98 0
	movq	-24(%rbp), %rax	# this, tmp96
	movq	8(%rax), %rdx	# this_11(D)->D.40629._M_impl._M_finish, _1
	movq	-24(%rbp), %rax	# this, tmp97
	movq	16(%rax), %rax	# this_11(D)->D.40629._M_impl._M_end_of_storage, _2
	cmpq	%rax, %rdx	# _2, _1
	je	.L38	#,
# /usr/include/c++/7/bits/vector.tcc:100: 	    _Alloc_traits::construct(this->_M_impl, this->_M_impl._M_finish,
	.loc 6 100 0
	movq	-32(%rbp), %rax	# __args#0, tmp98
	movq	%rax, %rdi	# tmp98,
	call	_ZSt7forwardIsEOT_RNSt16remove_referenceIS0_E4typeE	#
	movq	%rax, %rdx	#, _3
	movq	-24(%rbp), %rax	# this, tmp99
	movq	8(%rax), %rcx	# this_11(D)->D.40629._M_impl._M_finish, _4
	movq	-24(%rbp), %rax	# this, _5
	movq	%rcx, %rsi	# _4,
	movq	%rax, %rdi	# _5,
	call	_ZNSt16allocator_traitsISaIsEE9constructIsJsEEEvRS0_PT_DpOT0_	#
# /usr/include/c++/7/bits/vector.tcc:102: 	    ++this->_M_impl._M_finish;
	.loc 6 102 0
	movq	-24(%rbp), %rax	# this, tmp100
	movq	8(%rax), %rax	# this_11(D)->D.40629._M_impl._M_finish, _6
	leaq	2(%rax), %rdx	#, _7
	movq	-24(%rbp), %rax	# this, tmp101
	movq	%rdx, 8(%rax)	# _7, this_11(D)->D.40629._M_impl._M_finish
# /usr/include/c++/7/bits/vector.tcc:109:       }
	.loc 6 109 0
	jmp	.L40	#
.L38:
# /usr/include/c++/7/bits/vector.tcc:105: 	  _M_realloc_insert(end(), std::forward<_Args>(__args)...);
	.loc 6 105 0
	movq	-32(%rbp), %rax	# __args#0, tmp102
	movq	%rax, %rdi	# tmp102,
	call	_ZSt7forwardIsEOT_RNSt16remove_referenceIS0_E4typeE	#
	movq	%rax, %rbx	#, _8
	movq	-24(%rbp), %rax	# this, tmp103
	movq	%rax, %rdi	# tmp103,
	call	_ZNSt6vectorIsSaIsEE3endEv	#
	movq	%rax, %rcx	#, D.45792
	movq	-24(%rbp), %rax	# this, tmp104
	movq	%rbx, %rdx	# _8,
	movq	%rcx, %rsi	# D.45792,
	movq	%rax, %rdi	# tmp104,
	call	_ZNSt6vectorIsSaIsEE17_M_realloc_insertIJsEEEvN9__gnu_cxx17__normal_iteratorIPsS1_EEDpOT_	#
.L40:
# /usr/include/c++/7/bits/vector.tcc:109:       }
	.loc 6 109 0
	nop
	addq	$24, %rsp	#,
	popq	%rbx	#
	popq	%rbp	#
	.cfi_def_cfa 7, 8
	ret
	.cfi_endproc
.LFE2221:
	.size	_ZNSt6vectorIsSaIsEE12emplace_backIJsEEEvDpOT_, .-_ZNSt6vectorIsSaIsEE12emplace_backIJsEEEvDpOT_
	.section	.rodata
.LC7:
	.string	"vector::_M_default_append"
	.section	.text._ZNSt6vectorIsSaIsEE17_M_default_appendEm,"axG",@progbits,_ZNSt6vectorIsSaIsEE17_M_default_appendEm,comdat
	.align 2
	.weak	_ZNSt6vectorIsSaIsEE17_M_default_appendEm
	.type	_ZNSt6vectorIsSaIsEE17_M_default_appendEm, @function
_ZNSt6vectorIsSaIsEE17_M_default_appendEm:
.LFB2224:
	.loc 6 554 0
	.cfi_startproc
	.cfi_personality 0x9b,DW.ref.__gxx_personality_v0
	.cfi_lsda 0x1b,.LLSDA2224
	pushq	%rbp	#
	.cfi_def_cfa_offset 16
	.cfi_offset 6, -16
	movq	%rsp, %rbp	#,
	.cfi_def_cfa_register 6
	pushq	%rbx	#
	subq	$56, %rsp	#,
	.cfi_offset 3, -24
	movq	%rdi, -56(%rbp)	# this, this
	movq	%rsi, -64(%rbp)	# __n, __n
.LBB11:
# /usr/include/c++/7/bits/vector.tcc:557:       if (__n != 0)
	.loc 6 557 0
	cmpq	$0, -64(%rbp)	#, __n
	je	.L50	#,
.LBB12:
.LBB13:
# /usr/include/c++/7/bits/vector.tcc:559: 	  if (size_type(this->_M_impl._M_end_of_storage
	.loc 6 559 0
	movq	-56(%rbp), %rax	# this, tmp135
	movq	16(%rax), %rax	# this_54(D)->D.40629._M_impl._M_end_of_storage, _1
# /usr/include/c++/7/bits/vector.tcc:560: 			- this->_M_impl._M_finish) >= __n)
	.loc 6 560 0
	movq	%rax, %rdx	# _1, _2
	movq	-56(%rbp), %rax	# this, tmp136
	movq	8(%rax), %rax	# this_54(D)->D.40629._M_impl._M_finish, _3
	subq	%rax, %rdx	# _4, _2
	movq	%rdx, %rax	# _2, _5
	sarq	%rax	# tmp137
# /usr/include/c++/7/bits/vector.tcc:559: 	  if (size_type(this->_M_impl._M_end_of_storage
	.loc 6 559 0
	cmpq	%rax, -64(%rbp)	# _7, __n
	ja	.L43	#,
# /usr/include/c++/7/bits/vector.tcc:564: 						 __n, _M_get_Tp_allocator());
	.loc 6 564 0
	movq	-56(%rbp), %rax	# this, _8
	movq	%rax, %rdi	# _8,
	call	_ZNSt12_Vector_baseIsSaIsEE19_M_get_Tp_allocatorEv	#
	movq	%rax, %rdx	#, _9
# /usr/include/c++/7/bits/vector.tcc:563: 		std::__uninitialized_default_n_a(this->_M_impl._M_finish,
	.loc 6 563 0
	movq	-56(%rbp), %rax	# this, tmp138
	movq	8(%rax), %rax	# this_54(D)->D.40629._M_impl._M_finish, _10
	movq	-64(%rbp), %rcx	# __n, tmp139
	movq	%rcx, %rsi	# tmp139,
	movq	%rax, %rdi	# _10,
.LEHB2:
	call	_ZSt27__uninitialized_default_n_aIPsmsET_S1_T0_RSaIT1_E	#
	movq	%rax, %rdx	#, _11
# /usr/include/c++/7/bits/vector.tcc:562: 	      this->_M_impl._M_finish =
	.loc 6 562 0
	movq	-56(%rbp), %rax	# this, tmp140
	movq	%rdx, 8(%rax)	# _11, this_54(D)->D.40629._M_impl._M_finish
.LBE13:
.LBE12:
.LBE11:
# /usr/include/c++/7/bits/vector.tcc:600:     }
	.loc 6 600 0
	jmp	.L50	#
.L43:
.LBB20:
.LBB18:
.LBB16:
.LBB14:
# /usr/include/c++/7/bits/vector.tcc:568: 	      const size_type __len =
	.loc 6 568 0
	movq	-64(%rbp), %rcx	# __n, tmp141
	movq	-56(%rbp), %rax	# this, tmp142
	leaq	.LC7(%rip), %rdx	#,
	movq	%rcx, %rsi	# tmp141,
	movq	%rax, %rdi	# tmp142,
	call	_ZNKSt6vectorIsSaIsEE12_M_check_lenEmPKc	#
	movq	%rax, -40(%rbp)	# _56, __len
# /usr/include/c++/7/bits/vector.tcc:570: 	      const size_type __size = this->size();
	.loc 6 570 0
	movq	-56(%rbp), %rax	# this, tmp143
	movq	%rax, %rdi	# tmp143,
	call	_ZNKSt6vectorIsSaIsEE4sizeEv	#
	movq	%rax, -32(%rbp)	# tmp144, __size
# /usr/include/c++/7/bits/vector.tcc:571: 	      pointer __new_start(this->_M_allocate(__len));
	.loc 6 571 0
	movq	-56(%rbp), %rax	# this, _12
	movq	-40(%rbp), %rdx	# __len, tmp145
	movq	%rdx, %rsi	# tmp145,
	movq	%rax, %rdi	# _12,
	call	_ZNSt12_Vector_baseIsSaIsEE11_M_allocateEm	#
.LEHE2:
	movq	%rax, -24(%rbp)	# _61, __new_start
# /usr/include/c++/7/bits/vector.tcc:572: 	      pointer __destroy_from = pointer();
	.loc 6 572 0
	movq	$0, -48(%rbp)	#, __destroy_from
# /usr/include/c++/7/bits/vector.tcc:576: 						   __n, _M_get_Tp_allocator());
	.loc 6 576 0
	movq	-56(%rbp), %rax	# this, _13
	movq	%rax, %rdi	# _13,
	call	_ZNSt12_Vector_baseIsSaIsEE19_M_get_Tp_allocatorEv	#
	movq	%rax, %rsi	#, _14
# /usr/include/c++/7/bits/vector.tcc:575: 		  std::__uninitialized_default_n_a(__new_start + __size,
	.loc 6 575 0
	movq	-32(%rbp), %rax	# __size, tmp146
	leaq	(%rax,%rax), %rdx	#, _15
	movq	-24(%rbp), %rax	# __new_start, tmp147
	leaq	(%rdx,%rax), %rcx	#, _16
	movq	-64(%rbp), %rax	# __n, tmp148
	movq	%rsi, %rdx	# _14,
	movq	%rax, %rsi	# tmp148,
	movq	%rcx, %rdi	# _16,
.LEHB3:
	call	_ZSt27__uninitialized_default_n_aIPsmsET_S1_T0_RSaIT1_E	#
# /usr/include/c++/7/bits/vector.tcc:577: 		  __destroy_from = __new_start + __size;
	.loc 6 577 0
	movq	-32(%rbp), %rax	# __size, tmp149
	leaq	(%rax,%rax), %rdx	#, _17
	movq	-24(%rbp), %rax	# __new_start, tmp153
	addq	%rdx, %rax	# _17, tmp152
	movq	%rax, -48(%rbp)	# tmp152, __destroy_from
# /usr/include/c++/7/bits/vector.tcc:580: 		      __new_start, _M_get_Tp_allocator());
	.loc 6 580 0
	movq	-56(%rbp), %rax	# this, _18
	movq	%rax, %rdi	# _18,
	call	_ZNSt12_Vector_baseIsSaIsEE19_M_get_Tp_allocatorEv	#
	movq	%rax, %rcx	#, _19
# /usr/include/c++/7/bits/vector.tcc:578: 		  std::__uninitialized_move_if_noexcept_a(
	.loc 6 578 0
	movq	-56(%rbp), %rax	# this, tmp154
	movq	8(%rax), %rsi	# this_54(D)->D.40629._M_impl._M_finish, _20
	movq	-56(%rbp), %rax	# this, tmp155
	movq	(%rax), %rax	# this_54(D)->D.40629._M_impl._M_start, _21
	movq	-24(%rbp), %rdx	# __new_start, tmp156
	movq	%rax, %rdi	# _21,
	call	_ZSt34__uninitialized_move_if_noexcept_aIPsS0_SaIsEET0_T_S3_S2_RT1_	#
.LEHE3:
# /usr/include/c++/7/bits/vector.tcc:591: 			    _M_get_Tp_allocator());
	.loc 6 591 0
	movq	-56(%rbp), %rax	# this, _28
	movq	%rax, %rdi	# _28,
	call	_ZNSt12_Vector_baseIsSaIsEE19_M_get_Tp_allocatorEv	#
	movq	%rax, %rdx	#, _29
# /usr/include/c++/7/bits/vector.tcc:590: 	      std::_Destroy(this->_M_impl._M_start, this->_M_impl._M_finish,
	.loc 6 590 0
	movq	-56(%rbp), %rax	# this, tmp157
	movq	8(%rax), %rcx	# this_54(D)->D.40629._M_impl._M_finish, _30
	movq	-56(%rbp), %rax	# this, tmp158
	movq	(%rax), %rax	# this_54(D)->D.40629._M_impl._M_start, _31
	movq	%rcx, %rsi	# _30,
	movq	%rax, %rdi	# _31,
.LEHB4:
	call	_ZSt8_DestroyIPssEvT_S1_RSaIT0_E	#
# /usr/include/c++/7/bits/vector.tcc:592: 	      _M_deallocate(this->_M_impl._M_start,
	.loc 6 592 0
	movq	-56(%rbp), %rax	# this, _32
# /usr/include/c++/7/bits/vector.tcc:593: 			    this->_M_impl._M_end_of_storage
	.loc 6 593 0
	movq	-56(%rbp), %rdx	# this, tmp159
	movq	16(%rdx), %rdx	# this_54(D)->D.40629._M_impl._M_end_of_storage, _33
# /usr/include/c++/7/bits/vector.tcc:594: 			    - this->_M_impl._M_start);
	.loc 6 594 0
	movq	%rdx, %rcx	# _33, _34
	movq	-56(%rbp), %rdx	# this, tmp160
	movq	(%rdx), %rdx	# this_54(D)->D.40629._M_impl._M_start, _35
	subq	%rdx, %rcx	# _36, _34
	movq	%rcx, %rdx	# _34, _37
	sarq	%rdx	# tmp161
# /usr/include/c++/7/bits/vector.tcc:592: 	      _M_deallocate(this->_M_impl._M_start,
	.loc 6 592 0
	movq	%rdx, %rsi	# _38, _39
	movq	-56(%rbp), %rdx	# this, tmp162
	movq	(%rdx), %rcx	# this_54(D)->D.40629._M_impl._M_start, _40
	movq	%rsi, %rdx	# _39,
	movq	%rcx, %rsi	# _40,
	movq	%rax, %rdi	# _32,
	call	_ZNSt12_Vector_baseIsSaIsEE13_M_deallocateEPsm	#
.LEHE4:
# /usr/include/c++/7/bits/vector.tcc:595: 	      this->_M_impl._M_start = __new_start;
	.loc 6 595 0
	movq	-56(%rbp), %rax	# this, tmp163
	movq	-24(%rbp), %rdx	# __new_start, tmp164
	movq	%rdx, (%rax)	# tmp164, this_54(D)->D.40629._M_impl._M_start
# /usr/include/c++/7/bits/vector.tcc:596: 	      this->_M_impl._M_finish = __new_start + __size + __n;
	.loc 6 596 0
	movq	-32(%rbp), %rdx	# __size, tmp165
	movq	-64(%rbp), %rax	# __n, tmp166
	addq	%rdx, %rax	# tmp165, _41
	leaq	(%rax,%rax), %rdx	#, _42
	movq	-24(%rbp), %rax	# __new_start, tmp167
	addq	%rax, %rdx	# tmp167, _43
	movq	-56(%rbp), %rax	# this, tmp168
	movq	%rdx, 8(%rax)	# _43, this_54(D)->D.40629._M_impl._M_finish
# /usr/include/c++/7/bits/vector.tcc:597: 	      this->_M_impl._M_end_of_storage = __new_start + __len;
	.loc 6 597 0
	movq	-40(%rbp), %rax	# __len, tmp169
	leaq	(%rax,%rax), %rdx	#, _44
	movq	-24(%rbp), %rax	# __new_start, tmp170
	addq	%rax, %rdx	# tmp170, _45
	movq	-56(%rbp), %rax	# this, tmp171
	movq	%rdx, 16(%rax)	# _45, this_54(D)->D.40629._M_impl._M_end_of_storage
.LBE14:
.LBE16:
.LBE18:
.LBE20:
# /usr/include/c++/7/bits/vector.tcc:600:     }
	.loc 6 600 0
	jmp	.L50	#
.L48:
.LBB21:
.LBB19:
.LBB17:
.LBB15:
# /usr/include/c++/7/bits/vector.tcc:582: 	      __catch(...)
	.loc 6 582 0
	movq	%rax, %rdi	# _22,
	call	__cxa_begin_catch@PLT	#
# /usr/include/c++/7/bits/vector.tcc:584: 		  if (__destroy_from)
	.loc 6 584 0
	cmpq	$0, -48(%rbp)	#, __destroy_from
	je	.L46	#,
# /usr/include/c++/7/bits/vector.tcc:586: 				  _M_get_Tp_allocator());
	.loc 6 586 0
	movq	-56(%rbp), %rax	# this, _23
	movq	%rax, %rdi	# _23,
	call	_ZNSt12_Vector_baseIsSaIsEE19_M_get_Tp_allocatorEv	#
	movq	%rax, %rsi	#, _24
# /usr/include/c++/7/bits/vector.tcc:585: 		    std::_Destroy(__destroy_from, __destroy_from + __n,
	.loc 6 585 0
	movq	-64(%rbp), %rax	# __n, tmp173
	leaq	(%rax,%rax), %rdx	#, _25
	movq	-48(%rbp), %rax	# __destroy_from, tmp174
	leaq	(%rdx,%rax), %rcx	#, _26
	movq	-48(%rbp), %rax	# __destroy_from, tmp175
	movq	%rsi, %rdx	# _24,
	movq	%rcx, %rsi	# _26,
	movq	%rax, %rdi	# tmp175,
.LEHB5:
	call	_ZSt8_DestroyIPssEvT_S1_RSaIT0_E	#
.L46:
# /usr/include/c++/7/bits/vector.tcc:587: 		  _M_deallocate(__new_start, __len);
	.loc 6 587 0
	movq	-56(%rbp), %rax	# this, _27
	movq	-40(%rbp), %rdx	# __len, tmp176
	movq	-24(%rbp), %rcx	# __new_start, tmp177
	movq	%rcx, %rsi	# tmp177,
	movq	%rax, %rdi	# _27,
	call	_ZNSt12_Vector_baseIsSaIsEE13_M_deallocateEPsm	#
# /usr/include/c++/7/bits/vector.tcc:588: 		  __throw_exception_again;
	.loc 6 588 0
	call	__cxa_rethrow@PLT	#
.LEHE5:
.L49:
	movq	%rax, %rbx	#, tmp178
# /usr/include/c++/7/bits/vector.tcc:582: 	      __catch(...)
	.loc 6 582 0
	call	__cxa_end_catch@PLT	#
	movq	%rbx, %rax	# tmp178, D.46036
	movq	%rax, %rdi	# D.46036,
.LEHB6:
	call	_Unwind_Resume@PLT	#
.LEHE6:
.L50:
.LBE15:
.LBE17:
.LBE19:
.LBE21:
# /usr/include/c++/7/bits/vector.tcc:600:     }
	.loc 6 600 0
	nop
	addq	$56, %rsp	#,
	popq	%rbx	#
	popq	%rbp	#
	.cfi_def_cfa 7, 8
	ret
	.cfi_endproc
.LFE2224:
	.section	.gcc_except_table
	.align 4
.LLSDA2224:
	.byte	0xff
	.byte	0x9b
	.uleb128 .LLSDATT2224-.LLSDATTD2224
.LLSDATTD2224:
	.byte	0x1
	.uleb128 .LLSDACSE2224-.LLSDACSB2224
.LLSDACSB2224:
	.uleb128 .LEHB2-.LFB2224
	.uleb128 .LEHE2-.LEHB2
	.uleb128 0
	.uleb128 0
	.uleb128 .LEHB3-.LFB2224
	.uleb128 .LEHE3-.LEHB3
	.uleb128 .L48-.LFB2224
	.uleb128 0x1
	.uleb128 .LEHB4-.LFB2224
	.uleb128 .LEHE4-.LEHB4
	.uleb128 0
	.uleb128 0
	.uleb128 .LEHB5-.LFB2224
	.uleb128 .LEHE5-.LEHB5
	.uleb128 .L49-.LFB2224
	.uleb128 0
	.uleb128 .LEHB6-.LFB2224
	.uleb128 .LEHE6-.LEHB6
	.uleb128 0
	.uleb128 0
.LLSDACSE2224:
	.byte	0x1
	.byte	0
	.align 4
	.long	0

.LLSDATT2224:
	.section	.text._ZNSt6vectorIsSaIsEE17_M_default_appendEm,"axG",@progbits,_ZNSt6vectorIsSaIsEE17_M_default_appendEm,comdat
	.size	_ZNSt6vectorIsSaIsEE17_M_default_appendEm, .-_ZNSt6vectorIsSaIsEE17_M_default_appendEm
	.section	.text._ZNSt6vectorIsSaIsEE15_M_erase_at_endEPs,"axG",@progbits,_ZNSt6vectorIsSaIsEE15_M_erase_at_endEPs,comdat
	.align 2
	.weak	_ZNSt6vectorIsSaIsEE15_M_erase_at_endEPs
	.type	_ZNSt6vectorIsSaIsEE15_M_erase_at_endEPs, @function
_ZNSt6vectorIsSaIsEE15_M_erase_at_endEPs:
.LFB2225:
	.loc 3 1516 0
	.cfi_startproc
	.cfi_personality 0x9b,DW.ref.__gxx_personality_v0
	.cfi_lsda 0x1b,.LLSDA2225
	pushq	%rbp	#
	.cfi_def_cfa_offset 16
	.cfi_offset 6, -16
	movq	%rsp, %rbp	#,
	.cfi_def_cfa_register 6
	subq	$16, %rsp	#,
	movq	%rdi, -8(%rbp)	# this, this
	movq	%rsi, -16(%rbp)	# __pos, __pos
# /usr/include/c++/7/bits/stl_vector.h:1518: 	std::_Destroy(__pos, this->_M_impl._M_finish, _M_get_Tp_allocator());
	.loc 3 1518 0
	movq	-8(%rbp), %rax	# this, _1
	movq	%rax, %rdi	# _1,
	call	_ZNSt12_Vector_baseIsSaIsEE19_M_get_Tp_allocatorEv	#
	movq	%rax, %rdx	#, _2
	movq	-8(%rbp), %rax	# this, tmp90
	movq	8(%rax), %rcx	# this_4(D)->D.40629._M_impl._M_finish, _3
	movq	-16(%rbp), %rax	# __pos, tmp91
	movq	%rcx, %rsi	# _3,
	movq	%rax, %rdi	# tmp91,
	call	_ZSt8_DestroyIPssEvT_S1_RSaIT0_E	#
# /usr/include/c++/7/bits/stl_vector.h:1519: 	this->_M_impl._M_finish = __pos;
	.loc 3 1519 0
	movq	-8(%rbp), %rax	# this, tmp92
	movq	-16(%rbp), %rdx	# __pos, tmp93
	movq	%rdx, 8(%rax)	# tmp93, this_4(D)->D.40629._M_impl._M_finish
# /usr/include/c++/7/bits/stl_vector.h:1520:       }
	.loc 3 1520 0
	nop
	leave
	.cfi_def_cfa 7, 8
	ret
	.cfi_endproc
.LFE2225:
	.section	.gcc_except_table
.LLSDA2225:
	.byte	0xff
	.byte	0xff
	.byte	0x1
	.uleb128 .LLSDACSE2225-.LLSDACSB2225
.LLSDACSB2225:
.LLSDACSE2225:
	.section	.text._ZNSt6vectorIsSaIsEE15_M_erase_at_endEPs,"axG",@progbits,_ZNSt6vectorIsSaIsEE15_M_erase_at_endEPs,comdat
	.size	_ZNSt6vectorIsSaIsEE15_M_erase_at_endEPs, .-_ZNSt6vectorIsSaIsEE15_M_erase_at_endEPs
	.section	.text._ZNSt12_Vector_baseIsSaIsEE12_Vector_implC2Ev,"axG",@progbits,_ZNSt12_Vector_baseIsSaIsEE12_Vector_implC5Ev,comdat
	.align 2
	.weak	_ZNSt12_Vector_baseIsSaIsEE12_Vector_implC2Ev
	.type	_ZNSt12_Vector_baseIsSaIsEE12_Vector_implC2Ev, @function
_ZNSt12_Vector_baseIsSaIsEE12_Vector_implC2Ev:
.LFB2262:
	.loc 3 88 0
	.cfi_startproc
	pushq	%rbp	#
	.cfi_def_cfa_offset 16
	.cfi_offset 6, -16
	movq	%rsp, %rbp	#,
	.cfi_def_cfa_register 6
	subq	$16, %rsp	#,
	movq	%rdi, -8(%rbp)	# this, this
.LBB22:
# /usr/include/c++/7/bits/stl_vector.h:89: 	: _Tp_alloc_type(), _M_start(), _M_finish(), _M_end_of_storage()
	.loc 3 89 0
	movq	-8(%rbp), %rax	# this, tmp87
	movq	%rax, %rdi	# tmp87,
	call	_ZNSaIsEC2Ev	#
	movq	-8(%rbp), %rax	# this, tmp88
	movq	$0, (%rax)	#, this_2(D)->_M_start
	movq	-8(%rbp), %rax	# this, tmp89
	movq	$0, 8(%rax)	#, this_2(D)->_M_finish
	movq	-8(%rbp), %rax	# this, tmp90
	movq	$0, 16(%rax)	#, this_2(D)->_M_end_of_storage
.LBE22:
# /usr/include/c++/7/bits/stl_vector.h:90: 	{ }
	.loc 3 90 0
	nop
	leave
	.cfi_def_cfa 7, 8
	ret
	.cfi_endproc
.LFE2262:
	.size	_ZNSt12_Vector_baseIsSaIsEE12_Vector_implC2Ev, .-_ZNSt12_Vector_baseIsSaIsEE12_Vector_implC2Ev
	.weak	_ZNSt12_Vector_baseIsSaIsEE12_Vector_implC1Ev
	.set	_ZNSt12_Vector_baseIsSaIsEE12_Vector_implC1Ev,_ZNSt12_Vector_baseIsSaIsEE12_Vector_implC2Ev
	.section	.text._ZNSaIsED2Ev,"axG",@progbits,_ZNSaIsED5Ev,comdat
	.align 2
	.weak	_ZNSaIsED2Ev
	.type	_ZNSaIsED2Ev, @function
_ZNSaIsED2Ev:
.LFB2265:
	.file 7 "/usr/include/c++/7/bits/allocator.h"
	.loc 7 139 0
	.cfi_startproc
	pushq	%rbp	#
	.cfi_def_cfa_offset 16
	.cfi_offset 6, -16
	movq	%rsp, %rbp	#,
	.cfi_def_cfa_register 6
	subq	$16, %rsp	#,
	movq	%rdi, -8(%rbp)	# this, this
.LBB23:
# /usr/include/c++/7/bits/allocator.h:139:       ~allocator() throw() { }
	.loc 7 139 0
	movq	-8(%rbp), %rax	# this, tmp88
	movq	%rax, %rdi	# tmp88,
	call	_ZN9__gnu_cxx13new_allocatorIsED2Ev	#
.LBE23:
	nop
	leave
	.cfi_def_cfa 7, 8
	ret
	.cfi_endproc
.LFE2265:
	.size	_ZNSaIsED2Ev, .-_ZNSaIsED2Ev
	.weak	_ZNSaIsED1Ev
	.set	_ZNSaIsED1Ev,_ZNSaIsED2Ev
	.section	.text._ZNSt12_Vector_baseIsSaIsEE13_M_deallocateEPsm,"axG",@progbits,_ZNSt12_Vector_baseIsSaIsEE13_M_deallocateEPsm,comdat
	.align 2
	.weak	_ZNSt12_Vector_baseIsSaIsEE13_M_deallocateEPsm
	.type	_ZNSt12_Vector_baseIsSaIsEE13_M_deallocateEPsm, @function
_ZNSt12_Vector_baseIsSaIsEE13_M_deallocateEPsm:
.LFB2267:
	.loc 3 176 0
	.cfi_startproc
	pushq	%rbp	#
	.cfi_def_cfa_offset 16
	.cfi_offset 6, -16
	movq	%rsp, %rbp	#,
	.cfi_def_cfa_register 6
	subq	$32, %rsp	#,
	movq	%rdi, -8(%rbp)	# this, this
	movq	%rsi, -16(%rbp)	# __p, __p
	movq	%rdx, -24(%rbp)	# __n, __n
# /usr/include/c++/7/bits/stl_vector.h:179: 	if (__p)
	.loc 3 179 0
	cmpq	$0, -16(%rbp)	#, __p
	je	.L56	#,
# /usr/include/c++/7/bits/stl_vector.h:180: 	  _Tr::deallocate(_M_impl, __p, __n);
	.loc 3 180 0
	movq	-8(%rbp), %rax	# this, _1
	movq	-24(%rbp), %rdx	# __n, tmp88
	movq	-16(%rbp), %rcx	# __p, tmp89
	movq	%rcx, %rsi	# tmp89,
	movq	%rax, %rdi	# _1,
	call	_ZNSt16allocator_traitsISaIsEE10deallocateERS0_Psm	#
.L56:
# /usr/include/c++/7/bits/stl_vector.h:181:       }
	.loc 3 181 0
	nop
	leave
	.cfi_def_cfa 7, 8
	ret
	.cfi_endproc
.LFE2267:
	.size	_ZNSt12_Vector_baseIsSaIsEE13_M_deallocateEPsm, .-_ZNSt12_Vector_baseIsSaIsEE13_M_deallocateEPsm
	.section	.text._ZSt8_DestroyIPsEvT_S1_,"axG",@progbits,_ZSt8_DestroyIPsEvT_S1_,comdat
	.weak	_ZSt8_DestroyIPsEvT_S1_
	.type	_ZSt8_DestroyIPsEvT_S1_, @function
_ZSt8_DestroyIPsEvT_S1_:
.LFB2268:
	.loc 5 127 0
	.cfi_startproc
	pushq	%rbp	#
	.cfi_def_cfa_offset 16
	.cfi_offset 6, -16
	movq	%rsp, %rbp	#,
	.cfi_def_cfa_register 6
	subq	$16, %rsp	#,
	movq	%rdi, -8(%rbp)	# __first, __first
	movq	%rsi, -16(%rbp)	# __last, __last
# /usr/include/c++/7/bits/stl_construct.h:137: 	__destroy(__first, __last);
	.loc 5 137 0
	movq	-16(%rbp), %rdx	# __last, tmp87
	movq	-8(%rbp), %rax	# __first, tmp88
	movq	%rdx, %rsi	# tmp87,
	movq	%rax, %rdi	# tmp88,
	call	_ZNSt12_Destroy_auxILb1EE9__destroyIPsEEvT_S3_	#
# /usr/include/c++/7/bits/stl_construct.h:138:     }
	.loc 5 138 0
	nop
	leave
	.cfi_def_cfa 7, 8
	ret
	.cfi_endproc
.LFE2268:
	.size	_ZSt8_DestroyIPsEvT_S1_, .-_ZSt8_DestroyIPsEvT_S1_
	.section	.text._ZNSt16allocator_traitsISaIsEE9constructIsJsEEEvRS0_PT_DpOT0_,"axG",@progbits,_ZNSt16allocator_traitsISaIsEE9constructIsJsEEEvRS0_PT_DpOT0_,comdat
	.weak	_ZNSt16allocator_traitsISaIsEE9constructIsJsEEEvRS0_PT_DpOT0_
	.type	_ZNSt16allocator_traitsISaIsEE9constructIsJsEEEvRS0_PT_DpOT0_, @function
_ZNSt16allocator_traitsISaIsEE9constructIsJsEEEvRS0_PT_DpOT0_:
.LFB2269:
	.file 8 "/usr/include/c++/7/bits/alloc_traits.h"
	.loc 8 474 0
	.cfi_startproc
	pushq	%rbp	#
	.cfi_def_cfa_offset 16
	.cfi_offset 6, -16
	movq	%rsp, %rbp	#,
	.cfi_def_cfa_register 6
	subq	$32, %rsp	#,
	movq	%rdi, -8(%rbp)	# __a, __a
	movq	%rsi, -16(%rbp)	# __p, __p
	movq	%rdx, -24(%rbp)	# __args#0, __args#0
# /usr/include/c++/7/bits/alloc_traits.h:475: 	{ __a.construct(__p, std::forward<_Args>(__args)...); }
	.loc 8 475 0
	movq	-24(%rbp), %rax	# __args#0, tmp88
	movq	%rax, %rdi	# tmp88,
	call	_ZSt7forwardIsEOT_RNSt16remove_referenceIS0_E4typeE	#
	movq	%rax, %rdx	#, _1
	movq	-16(%rbp), %rcx	# __p, tmp89
	movq	-8(%rbp), %rax	# __a, tmp90
	movq	%rcx, %rsi	# tmp89,
	movq	%rax, %rdi	# tmp90,
	call	_ZN9__gnu_cxx13new_allocatorIsE9constructIsJsEEEvPT_DpOT0_	#
	nop
	leave
	.cfi_def_cfa 7, 8
	ret
	.cfi_endproc
.LFE2269:
	.size	_ZNSt16allocator_traitsISaIsEE9constructIsJsEEEvRS0_PT_DpOT0_, .-_ZNSt16allocator_traitsISaIsEE9constructIsJsEEEvRS0_PT_DpOT0_
	.section	.text._ZNSt6vectorIsSaIsEE3endEv,"axG",@progbits,_ZNSt6vectorIsSaIsEE3endEv,comdat
	.align 2
	.weak	_ZNSt6vectorIsSaIsEE3endEv
	.type	_ZNSt6vectorIsSaIsEE3endEv, @function
_ZNSt6vectorIsSaIsEE3endEv:
.LFB2270:
	.loc 3 581 0
	.cfi_startproc
	pushq	%rbp	#
	.cfi_def_cfa_offset 16
	.cfi_offset 6, -16
	movq	%rsp, %rbp	#,
	.cfi_def_cfa_register 6
	subq	$32, %rsp	#,
	movq	%rdi, -24(%rbp)	# this, this
# /usr/include/c++/7/bits/stl_vector.h:581:       end() _GLIBCXX_NOEXCEPT
	.loc 3 581 0
	movq	%fs:40, %rax	#, tmp93
	movq	%rax, -8(%rbp)	# tmp93, D.46038
	xorl	%eax, %eax	# tmp93
# /usr/include/c++/7/bits/stl_vector.h:582:       { return iterator(this->_M_impl._M_finish); }
	.loc 3 582 0
	movq	-24(%rbp), %rax	# this, tmp90
	leaq	8(%rax), %rdx	#, _1
	leaq	-16(%rbp), %rax	#, tmp91
	movq	%rdx, %rsi	# _1,
	movq	%rax, %rdi	# tmp91,
	call	_ZN9__gnu_cxx17__normal_iteratorIPsSt6vectorIsSaIsEEEC1ERKS1_	#
	movq	-16(%rbp), %rax	# D.44121, D.45801
	movq	-8(%rbp), %rcx	# D.46038, tmp94
	xorq	%fs:40, %rcx	#, tmp94
	je	.L61	#,
	call	__stack_chk_fail@PLT	#
.L61:
	leave
	.cfi_def_cfa 7, 8
	ret
	.cfi_endproc
.LFE2270:
	.size	_ZNSt6vectorIsSaIsEE3endEv, .-_ZNSt6vectorIsSaIsEE3endEv
	.section	.rodata
.LC8:
	.string	"vector::_M_realloc_insert"
	.section	.text._ZNSt6vectorIsSaIsEE17_M_realloc_insertIJsEEEvN9__gnu_cxx17__normal_iteratorIPsS1_EEDpOT_,"axG",@progbits,_ZNSt6vectorIsSaIsEE17_M_realloc_insertIJsEEEvN9__gnu_cxx17__normal_iteratorIPsS1_EEDpOT_,comdat
	.align 2
	.weak	_ZNSt6vectorIsSaIsEE17_M_realloc_insertIJsEEEvN9__gnu_cxx17__normal_iteratorIPsS1_EEDpOT_
	.type	_ZNSt6vectorIsSaIsEE17_M_realloc_insertIJsEEEvN9__gnu_cxx17__normal_iteratorIPsS1_EEDpOT_, @function
_ZNSt6vectorIsSaIsEE17_M_realloc_insertIJsEEEvN9__gnu_cxx17__normal_iteratorIPsS1_EEDpOT_:
.LFB2271:
	.loc 6 394 0
	.cfi_startproc
	.cfi_personality 0x9b,DW.ref.__gxx_personality_v0
	.cfi_lsda 0x1b,.LLSDA2271
	pushq	%rbp	#
	.cfi_def_cfa_offset 16
	.cfi_offset 6, -16
	movq	%rsp, %rbp	#,
	.cfi_def_cfa_register 6
	pushq	%r12	#
	pushq	%rbx	#
	subq	$80, %rsp	#,
	.cfi_offset 12, -24
	.cfi_offset 3, -32
	movq	%rdi, -72(%rbp)	# this, this
	movq	%rsi, -80(%rbp)	# __position, __position
	movq	%rdx, -88(%rbp)	# __args#0, __args#0
# /usr/include/c++/7/bits/vector.tcc:394:       vector<_Tp, _Alloc>::
	.loc 6 394 0
	movq	%fs:40, %rax	#, tmp168
	movq	%rax, -24(%rbp)	# tmp168, D.46040
	xorl	%eax, %eax	# tmp168
# /usr/include/c++/7/bits/vector.tcc:403:       const size_type __len =
	.loc 6 403 0
	movq	-72(%rbp), %rax	# this, tmp130
	leaq	.LC8(%rip), %rdx	#,
	movl	$1, %esi	#,
	movq	%rax, %rdi	# tmp130,
.LEHB7:
	call	_ZNKSt6vectorIsSaIsEE12_M_check_lenEmPKc	#
	movq	%rax, -48(%rbp)	# _46, __len
# /usr/include/c++/7/bits/vector.tcc:405:       const size_type __elems_before = __position - begin();
	.loc 6 405 0
	movq	-72(%rbp), %rax	# this, tmp131
	movq	%rax, %rdi	# tmp131,
	call	_ZNSt6vectorIsSaIsEE5beginEv	#
	movq	%rax, -64(%rbp)	# tmp133, D.44125
	leaq	-64(%rbp), %rdx	#, tmp134
	leaq	-80(%rbp), %rax	#, tmp135
	movq	%rdx, %rsi	# tmp134,
	movq	%rax, %rdi	# tmp135,
	call	_ZN9__gnu_cxxmiIPsSt6vectorIsSaIsEEEENS_17__normal_iteratorIT_T0_E15difference_typeERKS8_SB_	#
	movq	%rax, -40(%rbp)	# _1, __elems_before
# /usr/include/c++/7/bits/vector.tcc:406:       pointer __new_start(this->_M_allocate(__len));
	.loc 6 406 0
	movq	-72(%rbp), %rax	# this, _2
	movq	-48(%rbp), %rdx	# __len, tmp136
	movq	%rdx, %rsi	# tmp136,
	movq	%rax, %rdi	# _2,
	call	_ZNSt12_Vector_baseIsSaIsEE11_M_allocateEm	#
.LEHE7:
	movq	%rax, -32(%rbp)	# _53, __new_start
# /usr/include/c++/7/bits/vector.tcc:407:       pointer __new_finish(__new_start);
	.loc 6 407 0
	movq	-32(%rbp), %rax	# __new_start, tmp137
	movq	%rax, -56(%rbp)	# tmp137, __new_finish
# /usr/include/c++/7/bits/vector.tcc:415: 	  _Alloc_traits::construct(this->_M_impl,
	.loc 6 415 0
	movq	-88(%rbp), %rax	# __args#0, tmp138
	movq	%rax, %rdi	# tmp138,
	call	_ZSt7forwardIsEOT_RNSt16remove_referenceIS0_E4typeE	#
	movq	%rax, %rsi	#, _3
# /usr/include/c++/7/bits/vector.tcc:416: 				   __new_start + __elems_before,
	.loc 6 416 0
	movq	-40(%rbp), %rax	# __elems_before, tmp139
	leaq	(%rax,%rax), %rdx	#, _4
# /usr/include/c++/7/bits/vector.tcc:415: 	  _Alloc_traits::construct(this->_M_impl,
	.loc 6 415 0
	movq	-32(%rbp), %rax	# __new_start, tmp140
	leaq	(%rdx,%rax), %rcx	#, _5
	movq	-72(%rbp), %rax	# this, _6
	movq	%rsi, %rdx	# _3,
	movq	%rcx, %rsi	# _5,
	movq	%rax, %rdi	# _6,
	call	_ZNSt16allocator_traitsISaIsEE9constructIsJsEEEvRS0_PT_DpOT0_	#
# /usr/include/c++/7/bits/vector.tcc:422: 	  __new_finish = pointer();
	.loc 6 422 0
	movq	$0, -56(%rbp)	#, __new_finish
# /usr/include/c++/7/bits/vector.tcc:427: 	     __new_start, _M_get_Tp_allocator());
	.loc 6 427 0
	movq	-72(%rbp), %rax	# this, _7
	movq	%rax, %rdi	# _7,
	call	_ZNSt12_Vector_baseIsSaIsEE19_M_get_Tp_allocatorEv	#
	movq	%rax, %rbx	#, _8
# /usr/include/c++/7/bits/vector.tcc:426: 	    (this->_M_impl._M_start, __position.base(),
	.loc 6 426 0
	leaq	-80(%rbp), %rax	#, tmp141
	movq	%rax, %rdi	# tmp141,
	call	_ZNK9__gnu_cxx17__normal_iteratorIPsSt6vectorIsSaIsEEE4baseEv	#
	movq	(%rax), %rsi	# *_9, _10
	movq	-72(%rbp), %rax	# this, tmp142
	movq	(%rax), %rax	# this_44(D)->D.40629._M_impl._M_start, _11
# /usr/include/c++/7/bits/vector.tcc:424: 	  __new_finish
	.loc 6 424 0
	movq	-32(%rbp), %rdx	# __new_start, tmp143
	movq	%rbx, %rcx	# _8,
	movq	%rax, %rdi	# _11,
.LEHB8:
	call	_ZSt34__uninitialized_move_if_noexcept_aIPsS0_SaIsEET0_T_S3_S2_RT1_	#
	movq	%rax, -56(%rbp)	# _63, __new_finish
# /usr/include/c++/7/bits/vector.tcc:429: 	  ++__new_finish;
	.loc 6 429 0
	addq	$2, -56(%rbp)	#, __new_finish
# /usr/include/c++/7/bits/vector.tcc:434: 	     __new_finish, _M_get_Tp_allocator());
	.loc 6 434 0
	movq	-72(%rbp), %rax	# this, _12
	movq	%rax, %rdi	# _12,
	call	_ZNSt12_Vector_baseIsSaIsEE19_M_get_Tp_allocatorEv	#
	movq	%rax, %r12	#, _13
# /usr/include/c++/7/bits/vector.tcc:433: 	    (__position.base(), this->_M_impl._M_finish,
	.loc 6 433 0
	movq	-72(%rbp), %rax	# this, tmp144
	movq	8(%rax), %rbx	# this_44(D)->D.40629._M_impl._M_finish, _14
	leaq	-80(%rbp), %rax	#, tmp145
	movq	%rax, %rdi	# tmp145,
	call	_ZNK9__gnu_cxx17__normal_iteratorIPsSt6vectorIsSaIsEEE4baseEv	#
	movq	(%rax), %rax	# *_15, _16
# /usr/include/c++/7/bits/vector.tcc:431: 	  __new_finish
	.loc 6 431 0
	movq	-56(%rbp), %rdx	# __new_finish, tmp146
	movq	%r12, %rcx	# _13,
	movq	%rbx, %rsi	# _14,
	movq	%rax, %rdi	# _16,
	call	_ZSt34__uninitialized_move_if_noexcept_aIPsS0_SaIsEET0_T_S3_S2_RT1_	#
.LEHE8:
# /usr/include/c++/7/bits/vector.tcc:431: 	  __new_finish
	.loc 6 431 0 is_stmt 0 discriminator 1
	movq	%rax, -56(%rbp)	# _69, __new_finish
# /usr/include/c++/7/bits/vector.tcc:447: 		    _M_get_Tp_allocator());
	.loc 6 447 0 is_stmt 1 discriminator 1
	movq	-72(%rbp), %rax	# this, _24
	movq	%rax, %rdi	# _24,
	call	_ZNSt12_Vector_baseIsSaIsEE19_M_get_Tp_allocatorEv	#
	movq	%rax, %rdx	#, _25
# /usr/include/c++/7/bits/vector.tcc:446:       std::_Destroy(this->_M_impl._M_start, this->_M_impl._M_finish,
	.loc 6 446 0 discriminator 1
	movq	-72(%rbp), %rax	# this, tmp147
	movq	8(%rax), %rcx	# this_44(D)->D.40629._M_impl._M_finish, _26
	movq	-72(%rbp), %rax	# this, tmp148
	movq	(%rax), %rax	# this_44(D)->D.40629._M_impl._M_start, _27
	movq	%rcx, %rsi	# _26,
	movq	%rax, %rdi	# _27,
.LEHB9:
	call	_ZSt8_DestroyIPssEvT_S1_RSaIT0_E	#
# /usr/include/c++/7/bits/vector.tcc:448:       _M_deallocate(this->_M_impl._M_start,
	.loc 6 448 0 discriminator 1
	movq	-72(%rbp), %rax	# this, _28
# /usr/include/c++/7/bits/vector.tcc:449: 		    this->_M_impl._M_end_of_storage
	.loc 6 449 0 discriminator 1
	movq	-72(%rbp), %rdx	# this, tmp149
	movq	16(%rdx), %rdx	# this_44(D)->D.40629._M_impl._M_end_of_storage, _29
# /usr/include/c++/7/bits/vector.tcc:450: 		    - this->_M_impl._M_start);
	.loc 6 450 0 discriminator 1
	movq	%rdx, %rcx	# _29, _30
	movq	-72(%rbp), %rdx	# this, tmp150
	movq	(%rdx), %rdx	# this_44(D)->D.40629._M_impl._M_start, _31
	subq	%rdx, %rcx	# _32, _30
	movq	%rcx, %rdx	# _30, _33
	sarq	%rdx	# tmp151
# /usr/include/c++/7/bits/vector.tcc:448:       _M_deallocate(this->_M_impl._M_start,
	.loc 6 448 0 discriminator 1
	movq	%rdx, %rsi	# _34, _35
	movq	-72(%rbp), %rdx	# this, tmp152
	movq	(%rdx), %rcx	# this_44(D)->D.40629._M_impl._M_start, _36
	movq	%rsi, %rdx	# _35,
	movq	%rcx, %rsi	# _36,
	movq	%rax, %rdi	# _28,
	call	_ZNSt12_Vector_baseIsSaIsEE13_M_deallocateEPsm	#
.LEHE9:
# /usr/include/c++/7/bits/vector.tcc:451:       this->_M_impl._M_start = __new_start;
	.loc 6 451 0 discriminator 1
	movq	-72(%rbp), %rax	# this, tmp153
	movq	-32(%rbp), %rdx	# __new_start, tmp154
	movq	%rdx, (%rax)	# tmp154, this_44(D)->D.40629._M_impl._M_start
# /usr/include/c++/7/bits/vector.tcc:452:       this->_M_impl._M_finish = __new_finish;
	.loc 6 452 0 discriminator 1
	movq	-72(%rbp), %rax	# this, tmp155
	movq	-56(%rbp), %rdx	# __new_finish, tmp156
	movq	%rdx, 8(%rax)	# tmp156, this_44(D)->D.40629._M_impl._M_finish
# /usr/include/c++/7/bits/vector.tcc:453:       this->_M_impl._M_end_of_storage = __new_start + __len;
	.loc 6 453 0 discriminator 1
	movq	-48(%rbp), %rax	# __len, tmp157
	leaq	(%rax,%rax), %rdx	#, _37
	movq	-32(%rbp), %rax	# __new_start, tmp158
	addq	%rax, %rdx	# tmp158, _38
	movq	-72(%rbp), %rax	# this, tmp159
	movq	%rdx, 16(%rax)	# _38, this_44(D)->D.40629._M_impl._M_end_of_storage
# /usr/include/c++/7/bits/vector.tcc:454:     }
	.loc 6 454 0 discriminator 1
	nop
	movq	-24(%rbp), %rax	# D.46040, tmp169
	xorq	%fs:40, %rax	#, tmp169
	je	.L67	#,
	jmp	.L70	#
.L68:
# /usr/include/c++/7/bits/vector.tcc:436:       __catch(...)
	.loc 6 436 0
	movq	%rax, %rdi	# _17,
	call	__cxa_begin_catch@PLT	#
# /usr/include/c++/7/bits/vector.tcc:438: 	  if (!__new_finish)
	.loc 6 438 0
	cmpq	$0, -56(%rbp)	#, __new_finish
	jne	.L64	#,
# /usr/include/c++/7/bits/vector.tcc:440: 				   __new_start + __elems_before);
	.loc 6 440 0
	movq	-40(%rbp), %rax	# __elems_before, tmp161
	leaq	(%rax,%rax), %rdx	#, _18
# /usr/include/c++/7/bits/vector.tcc:439: 	    _Alloc_traits::destroy(this->_M_impl,
	.loc 6 439 0
	movq	-32(%rbp), %rax	# __new_start, tmp162
	addq	%rax, %rdx	# tmp162, _19
	movq	-72(%rbp), %rax	# this, _20
	movq	%rdx, %rsi	# _19,
	movq	%rax, %rdi	# _20,
.LEHB10:
	call	_ZNSt16allocator_traitsISaIsEE7destroyIsEEvRS0_PT_	#
	jmp	.L65	#
.L64:
# /usr/include/c++/7/bits/vector.tcc:442: 	    std::_Destroy(__new_start, __new_finish, _M_get_Tp_allocator());
	.loc 6 442 0
	movq	-72(%rbp), %rax	# this, _21
	movq	%rax, %rdi	# _21,
	call	_ZNSt12_Vector_baseIsSaIsEE19_M_get_Tp_allocatorEv	#
	movq	%rax, %rdx	#, _22
	movq	-56(%rbp), %rcx	# __new_finish, tmp163
	movq	-32(%rbp), %rax	# __new_start, tmp164
	movq	%rcx, %rsi	# tmp163,
	movq	%rax, %rdi	# tmp164,
	call	_ZSt8_DestroyIPssEvT_S1_RSaIT0_E	#
.L65:
# /usr/include/c++/7/bits/vector.tcc:443: 	  _M_deallocate(__new_start, __len);
	.loc 6 443 0
	movq	-72(%rbp), %rax	# this, _23
	movq	-48(%rbp), %rdx	# __len, tmp165
	movq	-32(%rbp), %rcx	# __new_start, tmp166
	movq	%rcx, %rsi	# tmp166,
	movq	%rax, %rdi	# _23,
	call	_ZNSt12_Vector_baseIsSaIsEE13_M_deallocateEPsm	#
# /usr/include/c++/7/bits/vector.tcc:444: 	  __throw_exception_again;
	.loc 6 444 0
	call	__cxa_rethrow@PLT	#
.LEHE10:
.L69:
	movq	%rax, %rbx	#, tmp167
# /usr/include/c++/7/bits/vector.tcc:436:       __catch(...)
	.loc 6 436 0
	call	__cxa_end_catch@PLT	#
	movq	%rbx, %rax	# tmp167, D.46039
	movq	%rax, %rdi	# D.46039,
.LEHB11:
	call	_Unwind_Resume@PLT	#
.LEHE11:
.L70:
# /usr/include/c++/7/bits/vector.tcc:454:     }
	.loc 6 454 0
	call	__stack_chk_fail@PLT	#
.L67:
	addq	$80, %rsp	#,
	popq	%rbx	#
	popq	%r12	#
	popq	%rbp	#
	.cfi_def_cfa 7, 8
	ret
	.cfi_endproc
.LFE2271:
	.section	.gcc_except_table
	.align 4
.LLSDA2271:
	.byte	0xff
	.byte	0x9b
	.uleb128 .LLSDATT2271-.LLSDATTD2271
.LLSDATTD2271:
	.byte	0x1
	.uleb128 .LLSDACSE2271-.LLSDACSB2271
.LLSDACSB2271:
	.uleb128 .LEHB7-.LFB2271
	.uleb128 .LEHE7-.LEHB7
	.uleb128 0
	.uleb128 0
	.uleb128 .LEHB8-.LFB2271
	.uleb128 .LEHE8-.LEHB8
	.uleb128 .L68-.LFB2271
	.uleb128 0x1
	.uleb128 .LEHB9-.LFB2271
	.uleb128 .LEHE9-.LEHB9
	.uleb128 0
	.uleb128 0
	.uleb128 .LEHB10-.LFB2271
	.uleb128 .LEHE10-.LEHB10
	.uleb128 .L69-.LFB2271
	.uleb128 0
	.uleb128 .LEHB11-.LFB2271
	.uleb128 .LEHE11-.LEHB11
	.uleb128 0
	.uleb128 0
.LLSDACSE2271:
	.byte	0x1
	.byte	0
	.align 4
	.long	0

.LLSDATT2271:
	.section	.text._ZNSt6vectorIsSaIsEE17_M_realloc_insertIJsEEEvN9__gnu_cxx17__normal_iteratorIPsS1_EEDpOT_,"axG",@progbits,_ZNSt6vectorIsSaIsEE17_M_realloc_insertIJsEEEvN9__gnu_cxx17__normal_iteratorIPsS1_EEDpOT_,comdat
	.size	_ZNSt6vectorIsSaIsEE17_M_realloc_insertIJsEEEvN9__gnu_cxx17__normal_iteratorIPsS1_EEDpOT_, .-_ZNSt6vectorIsSaIsEE17_M_realloc_insertIJsEEEvN9__gnu_cxx17__normal_iteratorIPsS1_EEDpOT_
	.section	.text._ZSt27__uninitialized_default_n_aIPsmsET_S1_T0_RSaIT1_E,"axG",@progbits,_ZSt27__uninitialized_default_n_aIPsmsET_S1_T0_RSaIT1_E,comdat
	.weak	_ZSt27__uninitialized_default_n_aIPsmsET_S1_T0_RSaIT1_E
	.type	_ZSt27__uninitialized_default_n_aIPsmsET_S1_T0_RSaIT1_E, @function
_ZSt27__uninitialized_default_n_aIPsmsET_S1_T0_RSaIT1_E:
.LFB2273:
	.file 9 "/usr/include/c++/7/bits/stl_uninitialized.h"
	.loc 9 643 0
	.cfi_startproc
	pushq	%rbp	#
	.cfi_def_cfa_offset 16
	.cfi_offset 6, -16
	movq	%rsp, %rbp	#,
	.cfi_def_cfa_register 6
	subq	$32, %rsp	#,
	movq	%rdi, -8(%rbp)	# __first, __first
	movq	%rsi, -16(%rbp)	# __n, __n
	movq	%rdx, -24(%rbp)	# D.43569, D.43569
# /usr/include/c++/7/bits/stl_uninitialized.h:645:     { return std::__uninitialized_default_n(__first, __n); }
	.loc 9 645 0
	movq	-16(%rbp), %rdx	# __n, tmp89
	movq	-8(%rbp), %rax	# __first, tmp90
	movq	%rdx, %rsi	# tmp89,
	movq	%rax, %rdi	# tmp90,
	call	_ZSt25__uninitialized_default_nIPsmET_S1_T0_	#
	leave
	.cfi_def_cfa 7, 8
	ret
	.cfi_endproc
.LFE2273:
	.size	_ZSt27__uninitialized_default_n_aIPsmsET_S1_T0_RSaIT1_E, .-_ZSt27__uninitialized_default_n_aIPsmsET_S1_T0_RSaIT1_E
	.section	.text._ZNKSt6vectorIsSaIsEE12_M_check_lenEmPKc,"axG",@progbits,_ZNKSt6vectorIsSaIsEE12_M_check_lenEmPKc,comdat
	.align 2
	.weak	_ZNKSt6vectorIsSaIsEE12_M_check_lenEmPKc
	.type	_ZNKSt6vectorIsSaIsEE12_M_check_lenEmPKc, @function
_ZNKSt6vectorIsSaIsEE12_M_check_lenEmPKc:
.LFB2274:
	.loc 3 1502 0
	.cfi_startproc
	pushq	%rbp	#
	.cfi_def_cfa_offset 16
	.cfi_offset 6, -16
	movq	%rsp, %rbp	#,
	.cfi_def_cfa_register 6
	pushq	%rbx	#
	subq	$72, %rsp	#,
	.cfi_offset 3, -24
	movq	%rdi, -56(%rbp)	# this, this
	movq	%rsi, -64(%rbp)	# __n, __n
	movq	%rdx, -72(%rbp)	# __s, __s
# /usr/include/c++/7/bits/stl_vector.h:1502:       _M_check_len(size_type __n, const char* __s) const
	.loc 3 1502 0
	movq	%fs:40, %rax	#, tmp112
	movq	%rax, -24(%rbp)	# tmp112, D.46042
	xorl	%eax, %eax	# tmp112
# /usr/include/c++/7/bits/stl_vector.h:1504: 	if (max_size() - size() < __n)
	.loc 3 1504 0
	movq	-56(%rbp), %rax	# this, tmp101
	movq	%rax, %rdi	# tmp101,
	call	_ZNKSt6vectorIsSaIsEE8max_sizeEv	#
	movq	%rax, %rbx	#, _1
	movq	-56(%rbp), %rax	# this, tmp102
	movq	%rax, %rdi	# tmp102,
	call	_ZNKSt6vectorIsSaIsEE4sizeEv	#
	subq	%rax, %rbx	# _2, _1
	movq	%rbx, %rdx	# _1, _3
	movq	-64(%rbp), %rax	# __n, __n.2_4
	cmpq	%rax, %rdx	# __n.2_4, _3
	setb	%al	#, retval.1_19
	testb	%al, %al	# retval.1_19
	je	.L74	#,
# /usr/include/c++/7/bits/stl_vector.h:1505: 	  __throw_length_error(__N(__s));
	.loc 3 1505 0
	movq	-72(%rbp), %rax	# __s, __s.3_5
	movq	%rax, %rdi	# __s.3_5,
	call	_ZSt20__throw_length_errorPKc@PLT	#
.L74:
# /usr/include/c++/7/bits/stl_vector.h:1507: 	const size_type __len = size() + std::max(size(), __n);
	.loc 3 1507 0
	movq	-56(%rbp), %rax	# this, tmp103
	movq	%rax, %rdi	# tmp103,
	call	_ZNKSt6vectorIsSaIsEE4sizeEv	#
	movq	%rax, %rbx	#, _6
	movq	-56(%rbp), %rax	# this, tmp104
	movq	%rax, %rdi	# tmp104,
	call	_ZNKSt6vectorIsSaIsEE4sizeEv	#
	movq	%rax, -40(%rbp)	# _7, D.44149
	leaq	-64(%rbp), %rdx	#, tmp105
	leaq	-40(%rbp), %rax	#, tmp106
	movq	%rdx, %rsi	# tmp105,
	movq	%rax, %rdi	# tmp106,
	call	_ZSt3maxImERKT_S2_S2_	#
	movq	(%rax), %rax	# *_8, _9
	addq	%rbx, %rax	# _6, tmp107
	movq	%rax, -32(%rbp)	# tmp107, __len
# /usr/include/c++/7/bits/stl_vector.h:1508: 	return (__len < size() || __len > max_size()) ? max_size() : __len;
	.loc 3 1508 0
	movq	-56(%rbp), %rax	# this, tmp108
	movq	%rax, %rdi	# tmp108,
	call	_ZNKSt6vectorIsSaIsEE4sizeEv	#
	cmpq	%rax, -32(%rbp)	# _10, __len
	jb	.L75	#,
# /usr/include/c++/7/bits/stl_vector.h:1508: 	return (__len < size() || __len > max_size()) ? max_size() : __len;
	.loc 3 1508 0 is_stmt 0 discriminator 2
	movq	-56(%rbp), %rax	# this, tmp109
	movq	%rax, %rdi	# tmp109,
	call	_ZNKSt6vectorIsSaIsEE8max_sizeEv	#
	cmpq	%rax, -32(%rbp)	# _11, __len
	jbe	.L76	#,
.L75:
# /usr/include/c++/7/bits/stl_vector.h:1508: 	return (__len < size() || __len > max_size()) ? max_size() : __len;
	.loc 3 1508 0 discriminator 3
	movq	-56(%rbp), %rax	# this, tmp110
	movq	%rax, %rdi	# tmp110,
	call	_ZNKSt6vectorIsSaIsEE8max_sizeEv	#
	jmp	.L77	#
.L76:
# /usr/include/c++/7/bits/stl_vector.h:1508: 	return (__len < size() || __len > max_size()) ? max_size() : __len;
	.loc 3 1508 0 discriminator 4
	movq	-32(%rbp), %rax	# __len, iftmp.4_12
.L77:
# /usr/include/c++/7/bits/stl_vector.h:1509:       }
	.loc 3 1509 0 is_stmt 1 discriminator 6
	movq	-24(%rbp), %rcx	# D.46042, tmp113
	xorq	%fs:40, %rcx	#, tmp113
	je	.L79	#,
# /usr/include/c++/7/bits/stl_vector.h:1509:       }
	.loc 3 1509 0 is_stmt 0
	call	__stack_chk_fail@PLT	#
.L79:
	addq	$72, %rsp	#,
	popq	%rbx	#
	popq	%rbp	#
	.cfi_def_cfa 7, 8
	ret
	.cfi_endproc
.LFE2274:
	.size	_ZNKSt6vectorIsSaIsEE12_M_check_lenEmPKc, .-_ZNKSt6vectorIsSaIsEE12_M_check_lenEmPKc
	.section	.text._ZNSt12_Vector_baseIsSaIsEE11_M_allocateEm,"axG",@progbits,_ZNSt12_Vector_baseIsSaIsEE11_M_allocateEm,comdat
	.align 2
	.weak	_ZNSt12_Vector_baseIsSaIsEE11_M_allocateEm
	.type	_ZNSt12_Vector_baseIsSaIsEE11_M_allocateEm, @function
_ZNSt12_Vector_baseIsSaIsEE11_M_allocateEm:
.LFB2275:
	.loc 3 169 0 is_stmt 1
	.cfi_startproc
	pushq	%rbp	#
	.cfi_def_cfa_offset 16
	.cfi_offset 6, -16
	movq	%rsp, %rbp	#,
	.cfi_def_cfa_register 6
	subq	$16, %rsp	#,
	movq	%rdi, -8(%rbp)	# this, this
	movq	%rsi, -16(%rbp)	# __n, __n
# /usr/include/c++/7/bits/stl_vector.h:172: 	return __n != 0 ? _Tr::allocate(_M_impl, __n) : pointer();
	.loc 3 172 0
	cmpq	$0, -16(%rbp)	#, __n
	je	.L81	#,
# /usr/include/c++/7/bits/stl_vector.h:172: 	return __n != 0 ? _Tr::allocate(_M_impl, __n) : pointer();
	.loc 3 172 0 is_stmt 0 discriminator 1
	movq	-8(%rbp), %rax	# this, _1
	movq	-16(%rbp), %rdx	# __n, tmp90
	movq	%rdx, %rsi	# tmp90,
	movq	%rax, %rdi	# _1,
	call	_ZNSt16allocator_traitsISaIsEE8allocateERS0_m	#
	jmp	.L83	#
.L81:
# /usr/include/c++/7/bits/stl_vector.h:172: 	return __n != 0 ? _Tr::allocate(_M_impl, __n) : pointer();
	.loc 3 172 0 discriminator 2
	movl	$0, %eax	#, iftmp.5_2
.L83:
# /usr/include/c++/7/bits/stl_vector.h:173:       }
	.loc 3 173 0 is_stmt 1 discriminator 5
	leave
	.cfi_def_cfa 7, 8
	ret
	.cfi_endproc
.LFE2275:
	.size	_ZNSt12_Vector_baseIsSaIsEE11_M_allocateEm, .-_ZNSt12_Vector_baseIsSaIsEE11_M_allocateEm
	.section	.text._ZSt34__uninitialized_move_if_noexcept_aIPsS0_SaIsEET0_T_S3_S2_RT1_,"axG",@progbits,_ZSt34__uninitialized_move_if_noexcept_aIPsS0_SaIsEET0_T_S3_S2_RT1_,comdat
	.weak	_ZSt34__uninitialized_move_if_noexcept_aIPsS0_SaIsEET0_T_S3_S2_RT1_
	.type	_ZSt34__uninitialized_move_if_noexcept_aIPsS0_SaIsEET0_T_S3_S2_RT1_, @function
_ZSt34__uninitialized_move_if_noexcept_aIPsS0_SaIsEET0_T_S3_S2_RT1_:
.LFB2276:
	.loc 9 305 0
	.cfi_startproc
	pushq	%rbp	#
	.cfi_def_cfa_offset 16
	.cfi_offset 6, -16
	movq	%rsp, %rbp	#,
	.cfi_def_cfa_register 6
	pushq	%rbx	#
	subq	$40, %rsp	#,
	.cfi_offset 3, -24
	movq	%rdi, -24(%rbp)	# __first, __first
	movq	%rsi, -32(%rbp)	# __last, __last
	movq	%rdx, -40(%rbp)	# __result, __result
	movq	%rcx, -48(%rbp)	# __alloc, __alloc
# /usr/include/c++/7/bits/stl_uninitialized.h:311: 	(_GLIBCXX_MAKE_MOVE_IF_NOEXCEPT_ITERATOR(__first),
	.loc 9 311 0
	movq	-32(%rbp), %rax	# __last, tmp91
	movq	%rax, %rdi	# tmp91,
	call	_ZSt32__make_move_if_noexcept_iteratorIsSt13move_iteratorIPsEET0_PT_	#
	movq	%rax, %rbx	#, D.45860
	movq	-24(%rbp), %rax	# __first, tmp92
	movq	%rax, %rdi	# tmp92,
	call	_ZSt32__make_move_if_noexcept_iteratorIsSt13move_iteratorIPsEET0_PT_	#
	movq	%rax, %rdi	#, D.45861
# /usr/include/c++/7/bits/stl_uninitialized.h:312: 	 _GLIBCXX_MAKE_MOVE_IF_NOEXCEPT_ITERATOR(__last), __result, __alloc);
	.loc 9 312 0
	movq	-48(%rbp), %rdx	# __alloc, tmp93
	movq	-40(%rbp), %rax	# __result, tmp94
	movq	%rdx, %rcx	# tmp93,
	movq	%rax, %rdx	# tmp94,
	movq	%rbx, %rsi	# D.45860,
	call	_ZSt22__uninitialized_copy_aISt13move_iteratorIPsES1_sET0_T_S4_S3_RSaIT1_E	#
# /usr/include/c++/7/bits/stl_uninitialized.h:313:     }
	.loc 9 313 0
	addq	$40, %rsp	#,
	popq	%rbx	#
	popq	%rbp	#
	.cfi_def_cfa 7, 8
	ret
	.cfi_endproc
.LFE2276:
	.size	_ZSt34__uninitialized_move_if_noexcept_aIPsS0_SaIsEET0_T_S3_S2_RT1_, .-_ZSt34__uninitialized_move_if_noexcept_aIPsS0_SaIsEET0_T_S3_S2_RT1_
	.section	.text._ZNSaIsEC2Ev,"axG",@progbits,_ZNSaIsEC5Ev,comdat
	.align 2
	.weak	_ZNSaIsEC2Ev
	.type	_ZNSaIsEC2Ev, @function
_ZNSaIsEC2Ev:
.LFB2312:
	.loc 7 131 0
	.cfi_startproc
	pushq	%rbp	#
	.cfi_def_cfa_offset 16
	.cfi_offset 6, -16
	movq	%rsp, %rbp	#,
	.cfi_def_cfa_register 6
	subq	$16, %rsp	#,
	movq	%rdi, -8(%rbp)	# this, this
.LBB24:
# /usr/include/c++/7/bits/allocator.h:131:       allocator() throw() { }
	.loc 7 131 0
	movq	-8(%rbp), %rax	# this, tmp88
	movq	%rax, %rdi	# tmp88,
	call	_ZN9__gnu_cxx13new_allocatorIsEC2Ev	#
.LBE24:
	nop
	leave
	.cfi_def_cfa 7, 8
	ret
	.cfi_endproc
.LFE2312:
	.size	_ZNSaIsEC2Ev, .-_ZNSaIsEC2Ev
	.weak	_ZNSaIsEC1Ev
	.set	_ZNSaIsEC1Ev,_ZNSaIsEC2Ev
	.section	.text._ZN9__gnu_cxx13new_allocatorIsED2Ev,"axG",@progbits,_ZN9__gnu_cxx13new_allocatorIsED5Ev,comdat
	.align 2
	.weak	_ZN9__gnu_cxx13new_allocatorIsED2Ev
	.type	_ZN9__gnu_cxx13new_allocatorIsED2Ev, @function
_ZN9__gnu_cxx13new_allocatorIsED2Ev:
.LFB2315:
	.file 10 "/usr/include/c++/7/ext/new_allocator.h"
	.loc 10 86 0
	.cfi_startproc
	pushq	%rbp	#
	.cfi_def_cfa_offset 16
	.cfi_offset 6, -16
	movq	%rsp, %rbp	#,
	.cfi_def_cfa_register 6
	movq	%rdi, -8(%rbp)	# this, this
# /usr/include/c++/7/ext/new_allocator.h:86:       ~new_allocator() _GLIBCXX_USE_NOEXCEPT { }
	.loc 10 86 0
	nop
	popq	%rbp	#
	.cfi_def_cfa 7, 8
	ret
	.cfi_endproc
.LFE2315:
	.size	_ZN9__gnu_cxx13new_allocatorIsED2Ev, .-_ZN9__gnu_cxx13new_allocatorIsED2Ev
	.weak	_ZN9__gnu_cxx13new_allocatorIsED1Ev
	.set	_ZN9__gnu_cxx13new_allocatorIsED1Ev,_ZN9__gnu_cxx13new_allocatorIsED2Ev
	.section	.text._ZNSt16allocator_traitsISaIsEE10deallocateERS0_Psm,"axG",@progbits,_ZNSt16allocator_traitsISaIsEE10deallocateERS0_Psm,comdat
	.weak	_ZNSt16allocator_traitsISaIsEE10deallocateERS0_Psm
	.type	_ZNSt16allocator_traitsISaIsEE10deallocateERS0_Psm, @function
_ZNSt16allocator_traitsISaIsEE10deallocateERS0_Psm:
.LFB2317:
	.loc 8 461 0
	.cfi_startproc
	pushq	%rbp	#
	.cfi_def_cfa_offset 16
	.cfi_offset 6, -16
	movq	%rsp, %rbp	#,
	.cfi_def_cfa_register 6
	subq	$32, %rsp	#,
	movq	%rdi, -8(%rbp)	# __a, __a
	movq	%rsi, -16(%rbp)	# __p, __p
	movq	%rdx, -24(%rbp)	# __n, __n
# /usr/include/c++/7/bits/alloc_traits.h:462:       { __a.deallocate(__p, __n); }
	.loc 8 462 0
	movq	-24(%rbp), %rdx	# __n, tmp87
	movq	-16(%rbp), %rcx	# __p, tmp88
	movq	-8(%rbp), %rax	# __a, tmp89
	movq	%rcx, %rsi	# tmp88,
	movq	%rax, %rdi	# tmp89,
	call	_ZN9__gnu_cxx13new_allocatorIsE10deallocateEPsm	#
	nop
	leave
	.cfi_def_cfa 7, 8
	ret
	.cfi_endproc
.LFE2317:
	.size	_ZNSt16allocator_traitsISaIsEE10deallocateERS0_Psm, .-_ZNSt16allocator_traitsISaIsEE10deallocateERS0_Psm
	.section	.text._ZNSt12_Destroy_auxILb1EE9__destroyIPsEEvT_S3_,"axG",@progbits,_ZNSt12_Destroy_auxILb1EE9__destroyIPsEEvT_S3_,comdat
	.weak	_ZNSt12_Destroy_auxILb1EE9__destroyIPsEEvT_S3_
	.type	_ZNSt12_Destroy_auxILb1EE9__destroyIPsEEvT_S3_, @function
_ZNSt12_Destroy_auxILb1EE9__destroyIPsEEvT_S3_:
.LFB2318:
	.loc 5 117 0
	.cfi_startproc
	pushq	%rbp	#
	.cfi_def_cfa_offset 16
	.cfi_offset 6, -16
	movq	%rsp, %rbp	#,
	.cfi_def_cfa_register 6
	movq	%rdi, -8(%rbp)	# D.44113, D.44113
	movq	%rsi, -16(%rbp)	# D.44114, D.44114
# /usr/include/c++/7/bits/stl_construct.h:117:         __destroy(_ForwardIterator, _ForwardIterator) { }
	.loc 5 117 0
	nop
	popq	%rbp	#
	.cfi_def_cfa 7, 8
	ret
	.cfi_endproc
.LFE2318:
	.size	_ZNSt12_Destroy_auxILb1EE9__destroyIPsEEvT_S3_, .-_ZNSt12_Destroy_auxILb1EE9__destroyIPsEEvT_S3_
	.section	.text._ZN9__gnu_cxx13new_allocatorIsE9constructIsJsEEEvPT_DpOT0_,"axG",@progbits,_ZN9__gnu_cxx13new_allocatorIsE9constructIsJsEEEvPT_DpOT0_,comdat
	.align 2
	.weak	_ZN9__gnu_cxx13new_allocatorIsE9constructIsJsEEEvPT_DpOT0_
	.type	_ZN9__gnu_cxx13new_allocatorIsE9constructIsJsEEEvPT_DpOT0_, @function
_ZN9__gnu_cxx13new_allocatorIsE9constructIsJsEEEvPT_DpOT0_:
.LFB2319:
	.loc 10 135 0
	.cfi_startproc
	pushq	%rbp	#
	.cfi_def_cfa_offset 16
	.cfi_offset 6, -16
	movq	%rsp, %rbp	#,
	.cfi_def_cfa_register 6
	pushq	%rbx	#
	subq	$40, %rsp	#,
	.cfi_offset 3, -24
	movq	%rdi, -24(%rbp)	# this, this
	movq	%rsi, -32(%rbp)	# __p, __p
	movq	%rdx, -40(%rbp)	# __args#0, __args#0
# /usr/include/c++/7/ext/new_allocator.h:136: 	{ ::new((void *)__p) _Up(std::forward<_Args>(__args)...); }
	.loc 10 136 0
	movq	-40(%rbp), %rax	# __args#0, tmp93
	movq	%rax, %rdi	# tmp93,
	call	_ZSt7forwardIsEOT_RNSt16remove_referenceIS0_E4typeE	#
	movzwl	(%rax), %ebx	# *_1, _6
	movq	-32(%rbp), %rax	# __p, _8
	movq	%rax, %rsi	# _8,
	movl	$2, %edi	#,
	call	_ZnwmPv	#
	testq	%rax, %rax	# _10
	je	.L93	#,
	movw	%bx, (%rax)	# _6, MEM[(short int *)_10]
.L93:
	nop
	addq	$40, %rsp	#,
	popq	%rbx	#
	popq	%rbp	#
	.cfi_def_cfa 7, 8
	ret
	.cfi_endproc
.LFE2319:
	.size	_ZN9__gnu_cxx13new_allocatorIsE9constructIsJsEEEvPT_DpOT0_, .-_ZN9__gnu_cxx13new_allocatorIsE9constructIsJsEEEvPT_DpOT0_
	.section	.text._ZN9__gnu_cxx17__normal_iteratorIPsSt6vectorIsSaIsEEEC2ERKS1_,"axG",@progbits,_ZN9__gnu_cxx17__normal_iteratorIPsSt6vectorIsSaIsEEEC5ERKS1_,comdat
	.align 2
	.weak	_ZN9__gnu_cxx17__normal_iteratorIPsSt6vectorIsSaIsEEEC2ERKS1_
	.type	_ZN9__gnu_cxx17__normal_iteratorIPsSt6vectorIsSaIsEEEC2ERKS1_, @function
_ZN9__gnu_cxx17__normal_iteratorIPsSt6vectorIsSaIsEEEC2ERKS1_:
.LFB2321:
	.file 11 "/usr/include/c++/7/bits/stl_iterator.h"
	.loc 11 782 0
	.cfi_startproc
	pushq	%rbp	#
	.cfi_def_cfa_offset 16
	.cfi_offset 6, -16
	movq	%rsp, %rbp	#,
	.cfi_def_cfa_register 6
	movq	%rdi, -8(%rbp)	# this, this
	movq	%rsi, -16(%rbp)	# __i, __i
.LBB25:
# /usr/include/c++/7/bits/stl_iterator.h:783:       : _M_current(__i) { }
	.loc 11 783 0
	movq	-16(%rbp), %rax	# __i, tmp88
	movq	(%rax), %rdx	# *__i_5(D), _1
	movq	-8(%rbp), %rax	# this, tmp89
	movq	%rdx, (%rax)	# _1, this_3(D)->_M_current
.LBE25:
	nop
	popq	%rbp	#
	.cfi_def_cfa 7, 8
	ret
	.cfi_endproc
.LFE2321:
	.size	_ZN9__gnu_cxx17__normal_iteratorIPsSt6vectorIsSaIsEEEC2ERKS1_, .-_ZN9__gnu_cxx17__normal_iteratorIPsSt6vectorIsSaIsEEEC2ERKS1_
	.weak	_ZN9__gnu_cxx17__normal_iteratorIPsSt6vectorIsSaIsEEEC1ERKS1_
	.set	_ZN9__gnu_cxx17__normal_iteratorIPsSt6vectorIsSaIsEEEC1ERKS1_,_ZN9__gnu_cxx17__normal_iteratorIPsSt6vectorIsSaIsEEEC2ERKS1_
	.section	.text._ZNSt6vectorIsSaIsEE5beginEv,"axG",@progbits,_ZNSt6vectorIsSaIsEE5beginEv,comdat
	.align 2
	.weak	_ZNSt6vectorIsSaIsEE5beginEv
	.type	_ZNSt6vectorIsSaIsEE5beginEv, @function
_ZNSt6vectorIsSaIsEE5beginEv:
.LFB2323:
	.loc 3 563 0
	.cfi_startproc
	pushq	%rbp	#
	.cfi_def_cfa_offset 16
	.cfi_offset 6, -16
	movq	%rsp, %rbp	#,
	.cfi_def_cfa_register 6
	subq	$32, %rsp	#,
	movq	%rdi, -24(%rbp)	# this, this
# /usr/include/c++/7/bits/stl_vector.h:563:       begin() _GLIBCXX_NOEXCEPT
	.loc 3 563 0
	movq	%fs:40, %rax	#, tmp92
	movq	%rax, -8(%rbp)	# tmp92, D.46043
	xorl	%eax, %eax	# tmp92
# /usr/include/c++/7/bits/stl_vector.h:564:       { return iterator(this->_M_impl._M_start); }
	.loc 3 564 0
	movq	-24(%rbp), %rdx	# this, _1
	leaq	-16(%rbp), %rax	#, tmp90
	movq	%rdx, %rsi	# _1,
	movq	%rax, %rdi	# tmp90,
	call	_ZN9__gnu_cxx17__normal_iteratorIPsSt6vectorIsSaIsEEEC1ERKS1_	#
	movq	-16(%rbp), %rax	# D.45221, D.45836
	movq	-8(%rbp), %rcx	# D.46043, tmp93
	xorq	%fs:40, %rcx	#, tmp93
	je	.L97	#,
	call	__stack_chk_fail@PLT	#
.L97:
	leave
	.cfi_def_cfa 7, 8
	ret
	.cfi_endproc
.LFE2323:
	.size	_ZNSt6vectorIsSaIsEE5beginEv, .-_ZNSt6vectorIsSaIsEE5beginEv
	.section	.text._ZN9__gnu_cxxmiIPsSt6vectorIsSaIsEEEENS_17__normal_iteratorIT_T0_E15difference_typeERKS8_SB_,"axG",@progbits,_ZN9__gnu_cxxmiIPsSt6vectorIsSaIsEEEENS_17__normal_iteratorIT_T0_E15difference_typeERKS8_SB_,comdat
	.weak	_ZN9__gnu_cxxmiIPsSt6vectorIsSaIsEEEENS_17__normal_iteratorIT_T0_E15difference_typeERKS8_SB_
	.type	_ZN9__gnu_cxxmiIPsSt6vectorIsSaIsEEEENS_17__normal_iteratorIT_T0_E15difference_typeERKS8_SB_, @function
_ZN9__gnu_cxxmiIPsSt6vectorIsSaIsEEEENS_17__normal_iteratorIT_T0_E15difference_typeERKS8_SB_:
.LFB2324:
	.loc 11 965 0
	.cfi_startproc
	pushq	%rbp	#
	.cfi_def_cfa_offset 16
	.cfi_offset 6, -16
	movq	%rsp, %rbp	#,
	.cfi_def_cfa_register 6
	pushq	%rbx	#
	subq	$24, %rsp	#,
	.cfi_offset 3, -24
	movq	%rdi, -24(%rbp)	# __lhs, __lhs
	movq	%rsi, -32(%rbp)	# __rhs, __rhs
# /usr/include/c++/7/bits/stl_iterator.h:968:     { return __lhs.base() - __rhs.base(); }
	.loc 11 968 0
	movq	-24(%rbp), %rax	# __lhs, tmp96
	movq	%rax, %rdi	# tmp96,
	call	_ZNK9__gnu_cxx17__normal_iteratorIPsSt6vectorIsSaIsEEE4baseEv	#
	movq	(%rax), %rax	# *_1, _2
	movq	%rax, %rbx	# _2, _3
	movq	-32(%rbp), %rax	# __rhs, tmp97
	movq	%rax, %rdi	# tmp97,
	call	_ZNK9__gnu_cxx17__normal_iteratorIPsSt6vectorIsSaIsEEE4baseEv	#
	movq	(%rax), %rax	# *_4, _5
	subq	%rax, %rbx	# _6, _3
	movq	%rbx, %rax	# _3, _7
	sarq	%rax	# tmp98
	addq	$24, %rsp	#,
	popq	%rbx	#
	popq	%rbp	#
	.cfi_def_cfa 7, 8
	ret
	.cfi_endproc
.LFE2324:
	.size	_ZN9__gnu_cxxmiIPsSt6vectorIsSaIsEEEENS_17__normal_iteratorIT_T0_E15difference_typeERKS8_SB_, .-_ZN9__gnu_cxxmiIPsSt6vectorIsSaIsEEEENS_17__normal_iteratorIT_T0_E15difference_typeERKS8_SB_
	.section	.text._ZNK9__gnu_cxx17__normal_iteratorIPsSt6vectorIsSaIsEEE4baseEv,"axG",@progbits,_ZNK9__gnu_cxx17__normal_iteratorIPsSt6vectorIsSaIsEEE4baseEv,comdat
	.align 2
	.weak	_ZNK9__gnu_cxx17__normal_iteratorIPsSt6vectorIsSaIsEEE4baseEv
	.type	_ZNK9__gnu_cxx17__normal_iteratorIPsSt6vectorIsSaIsEEE4baseEv, @function
_ZNK9__gnu_cxx17__normal_iteratorIPsSt6vectorIsSaIsEEE4baseEv:
.LFB2325:
	.loc 11 847 0
	.cfi_startproc
	pushq	%rbp	#
	.cfi_def_cfa_offset 16
	.cfi_offset 6, -16
	movq	%rsp, %rbp	#,
	.cfi_def_cfa_register 6
	movq	%rdi, -8(%rbp)	# this, this
# /usr/include/c++/7/bits/stl_iterator.h:848:       { return _M_current; }
	.loc 11 848 0
	movq	-8(%rbp), %rax	# this, _2
	popq	%rbp	#
	.cfi_def_cfa 7, 8
	ret
	.cfi_endproc
.LFE2325:
	.size	_ZNK9__gnu_cxx17__normal_iteratorIPsSt6vectorIsSaIsEEE4baseEv, .-_ZNK9__gnu_cxx17__normal_iteratorIPsSt6vectorIsSaIsEEE4baseEv
	.section	.text._ZNSt16allocator_traitsISaIsEE7destroyIsEEvRS0_PT_,"axG",@progbits,_ZNSt16allocator_traitsISaIsEE7destroyIsEEvRS0_PT_,comdat
	.weak	_ZNSt16allocator_traitsISaIsEE7destroyIsEEvRS0_PT_
	.type	_ZNSt16allocator_traitsISaIsEE7destroyIsEEvRS0_PT_, @function
_ZNSt16allocator_traitsISaIsEE7destroyIsEEvRS0_PT_:
.LFB2326:
	.loc 8 486 0
	.cfi_startproc
	pushq	%rbp	#
	.cfi_def_cfa_offset 16
	.cfi_offset 6, -16
	movq	%rsp, %rbp	#,
	.cfi_def_cfa_register 6
	subq	$16, %rsp	#,
	movq	%rdi, -8(%rbp)	# __a, __a
	movq	%rsi, -16(%rbp)	# __p, __p
# /usr/include/c++/7/bits/alloc_traits.h:487: 	{ __a.destroy(__p); }
	.loc 8 487 0
	movq	-16(%rbp), %rdx	# __p, tmp87
	movq	-8(%rbp), %rax	# __a, tmp88
	movq	%rdx, %rsi	# tmp87,
	movq	%rax, %rdi	# tmp88,
	call	_ZN9__gnu_cxx13new_allocatorIsE7destroyIsEEvPT_	#
	nop
	leave
	.cfi_def_cfa 7, 8
	ret
	.cfi_endproc
.LFE2326:
	.size	_ZNSt16allocator_traitsISaIsEE7destroyIsEEvRS0_PT_, .-_ZNSt16allocator_traitsISaIsEE7destroyIsEEvRS0_PT_
	.section	.text._ZSt25__uninitialized_default_nIPsmET_S1_T0_,"axG",@progbits,_ZSt25__uninitialized_default_nIPsmET_S1_T0_,comdat
	.weak	_ZSt25__uninitialized_default_nIPsmET_S1_T0_
	.type	_ZSt25__uninitialized_default_nIPsmET_S1_T0_, @function
_ZSt25__uninitialized_default_nIPsmET_S1_T0_:
.LFB2327:
	.loc 9 574 0
	.cfi_startproc
	pushq	%rbp	#
	.cfi_def_cfa_offset 16
	.cfi_offset 6, -16
	movq	%rsp, %rbp	#,
	.cfi_def_cfa_register 6
	subq	$32, %rsp	#,
	movq	%rdi, -24(%rbp)	# __first, __first
	movq	%rsi, -32(%rbp)	# __n, __n
# /usr/include/c++/7/bits/stl_uninitialized.h:579:       const bool __assignable = is_copy_assignable<_ValueType>::value;
	.loc 9 579 0
	movb	$1, -1(%rbp)	#, __assignable
# /usr/include/c++/7/bits/stl_uninitialized.h:583: 	__uninit_default_n(__first, __n);
	.loc 9 583 0
	movq	-32(%rbp), %rdx	# __n, tmp89
	movq	-24(%rbp), %rax	# __first, tmp90
	movq	%rdx, %rsi	# tmp89,
	movq	%rax, %rdi	# tmp90,
	call	_ZNSt27__uninitialized_default_n_1ILb1EE18__uninit_default_nIPsmEET_S3_T0_	#
# /usr/include/c++/7/bits/stl_uninitialized.h:584:     }
	.loc 9 584 0
	leave
	.cfi_def_cfa 7, 8
	ret
	.cfi_endproc
.LFE2327:
	.size	_ZSt25__uninitialized_default_nIPsmET_S1_T0_, .-_ZSt25__uninitialized_default_nIPsmET_S1_T0_
	.section	.text._ZNKSt6vectorIsSaIsEE8max_sizeEv,"axG",@progbits,_ZNKSt6vectorIsSaIsEE8max_sizeEv,comdat
	.align 2
	.weak	_ZNKSt6vectorIsSaIsEE8max_sizeEv
	.type	_ZNKSt6vectorIsSaIsEE8max_sizeEv, @function
_ZNKSt6vectorIsSaIsEE8max_sizeEv:
.LFB2328:
	.loc 3 675 0
	.cfi_startproc
	pushq	%rbp	#
	.cfi_def_cfa_offset 16
	.cfi_offset 6, -16
	movq	%rsp, %rbp	#,
	.cfi_def_cfa_register 6
	subq	$16, %rsp	#,
	movq	%rdi, -8(%rbp)	# this, this
# /usr/include/c++/7/bits/stl_vector.h:676:       { return _Alloc_traits::max_size(_M_get_Tp_allocator()); }
	.loc 3 676 0
	movq	-8(%rbp), %rax	# this, _1
	movq	%rax, %rdi	# _1,
	call	_ZNKSt12_Vector_baseIsSaIsEE19_M_get_Tp_allocatorEv	#
	movq	%rax, %rdi	# _2,
	call	_ZNSt16allocator_traitsISaIsEE8max_sizeERKS0_	#
	leave
	.cfi_def_cfa 7, 8
	ret
	.cfi_endproc
.LFE2328:
	.size	_ZNKSt6vectorIsSaIsEE8max_sizeEv, .-_ZNKSt6vectorIsSaIsEE8max_sizeEv
	.section	.text._ZSt3maxImERKT_S2_S2_,"axG",@progbits,_ZSt3maxImERKT_S2_S2_,comdat
	.weak	_ZSt3maxImERKT_S2_S2_
	.type	_ZSt3maxImERKT_S2_S2_, @function
_ZSt3maxImERKT_S2_S2_:
.LFB2329:
	.file 12 "/usr/include/c++/7/bits/stl_algobase.h"
	.loc 12 219 0
	.cfi_startproc
	pushq	%rbp	#
	.cfi_def_cfa_offset 16
	.cfi_offset 6, -16
	movq	%rsp, %rbp	#,
	.cfi_def_cfa_register 6
	movq	%rdi, -8(%rbp)	# __a, __a
	movq	%rsi, -16(%rbp)	# __b, __b
# /usr/include/c++/7/bits/stl_algobase.h:224:       if (__a < __b)
	.loc 12 224 0
	movq	-8(%rbp), %rax	# __a, tmp91
	movq	(%rax), %rdx	# *__a_5(D), _1
	movq	-16(%rbp), %rax	# __b, tmp92
	movq	(%rax), %rax	# *__b_6(D), _2
	cmpq	%rax, %rdx	# _2, _1
	jnb	.L108	#,
# /usr/include/c++/7/bits/stl_algobase.h:225: 	return __b;
	.loc 12 225 0
	movq	-16(%rbp), %rax	# __b, _3
	jmp	.L109	#
.L108:
# /usr/include/c++/7/bits/stl_algobase.h:226:       return __a;
	.loc 12 226 0
	movq	-8(%rbp), %rax	# __a, _3
.L109:
# /usr/include/c++/7/bits/stl_algobase.h:227:     }
	.loc 12 227 0
	popq	%rbp	#
	.cfi_def_cfa 7, 8
	ret
	.cfi_endproc
.LFE2329:
	.size	_ZSt3maxImERKT_S2_S2_, .-_ZSt3maxImERKT_S2_S2_
	.section	.text._ZNSt16allocator_traitsISaIsEE8allocateERS0_m,"axG",@progbits,_ZNSt16allocator_traitsISaIsEE8allocateERS0_m,comdat
	.weak	_ZNSt16allocator_traitsISaIsEE8allocateERS0_m
	.type	_ZNSt16allocator_traitsISaIsEE8allocateERS0_m, @function
_ZNSt16allocator_traitsISaIsEE8allocateERS0_m:
.LFB2330:
	.loc 8 435 0
	.cfi_startproc
	pushq	%rbp	#
	.cfi_def_cfa_offset 16
	.cfi_offset 6, -16
	movq	%rsp, %rbp	#,
	.cfi_def_cfa_register 6
	subq	$16, %rsp	#,
	movq	%rdi, -8(%rbp)	# __a, __a
	movq	%rsi, -16(%rbp)	# __n, __n
# /usr/include/c++/7/bits/alloc_traits.h:436:       { return __a.allocate(__n); }
	.loc 8 436 0
	movq	-16(%rbp), %rcx	# __n, tmp89
	movq	-8(%rbp), %rax	# __a, tmp90
	movl	$0, %edx	#,
	movq	%rcx, %rsi	# tmp89,
	movq	%rax, %rdi	# tmp90,
	call	_ZN9__gnu_cxx13new_allocatorIsE8allocateEmPKv	#
	leave
	.cfi_def_cfa 7, 8
	ret
	.cfi_endproc
.LFE2330:
	.size	_ZNSt16allocator_traitsISaIsEE8allocateERS0_m, .-_ZNSt16allocator_traitsISaIsEE8allocateERS0_m
	.section	.text._ZSt32__make_move_if_noexcept_iteratorIsSt13move_iteratorIPsEET0_PT_,"axG",@progbits,_ZSt32__make_move_if_noexcept_iteratorIsSt13move_iteratorIPsEET0_PT_,comdat
	.weak	_ZSt32__make_move_if_noexcept_iteratorIsSt13move_iteratorIPsEET0_PT_
	.type	_ZSt32__make_move_if_noexcept_iteratorIsSt13move_iteratorIPsEET0_PT_, @function
_ZSt32__make_move_if_noexcept_iteratorIsSt13move_iteratorIPsEET0_PT_:
.LFB2331:
	.loc 11 1224 0
	.cfi_startproc
	pushq	%rbp	#
	.cfi_def_cfa_offset 16
	.cfi_offset 6, -16
	movq	%rsp, %rbp	#,
	.cfi_def_cfa_register 6
	subq	$32, %rsp	#,
	movq	%rdi, -24(%rbp)	# __i, __i
# /usr/include/c++/7/bits/stl_iterator.h:1224:     __make_move_if_noexcept_iterator(_Tp* __i)
	.loc 11 1224 0
	movq	%fs:40, %rax	#, tmp92
	movq	%rax, -8(%rbp)	# tmp92, D.46044
	xorl	%eax, %eax	# tmp92
# /usr/include/c++/7/bits/stl_iterator.h:1225:     { return _ReturnType(__i); }
	.loc 11 1225 0
	movq	-24(%rbp), %rdx	# __i, tmp89
	leaq	-16(%rbp), %rax	#, tmp90
	movq	%rdx, %rsi	# tmp89,
	movq	%rax, %rdi	# tmp90,
	call	_ZNSt13move_iteratorIPsEC1ES0_	#
	movq	-16(%rbp), %rax	# D.45352, D.45864
	movq	-8(%rbp), %rcx	# D.46044, tmp93
	xorq	%fs:40, %rcx	#, tmp93
	je	.L114	#,
	call	__stack_chk_fail@PLT	#
.L114:
	leave
	.cfi_def_cfa 7, 8
	ret
	.cfi_endproc
.LFE2331:
	.size	_ZSt32__make_move_if_noexcept_iteratorIsSt13move_iteratorIPsEET0_PT_, .-_ZSt32__make_move_if_noexcept_iteratorIsSt13move_iteratorIPsEET0_PT_
	.section	.text._ZSt22__uninitialized_copy_aISt13move_iteratorIPsES1_sET0_T_S4_S3_RSaIT1_E,"axG",@progbits,_ZSt22__uninitialized_copy_aISt13move_iteratorIPsES1_sET0_T_S4_S3_RSaIT1_E,comdat
	.weak	_ZSt22__uninitialized_copy_aISt13move_iteratorIPsES1_sET0_T_S4_S3_RSaIT1_E
	.type	_ZSt22__uninitialized_copy_aISt13move_iteratorIPsES1_sET0_T_S4_S3_RSaIT1_E, @function
_ZSt22__uninitialized_copy_aISt13move_iteratorIPsES1_sET0_T_S4_S3_RSaIT1_E:
.LFB2332:
	.loc 9 287 0
	.cfi_startproc
	pushq	%rbp	#
	.cfi_def_cfa_offset 16
	.cfi_offset 6, -16
	movq	%rsp, %rbp	#,
	.cfi_def_cfa_register 6
	subq	$32, %rsp	#,
	movq	%rdi, -8(%rbp)	# __first, __first
	movq	%rsi, -16(%rbp)	# __last, __last
	movq	%rdx, -24(%rbp)	# __result, __result
	movq	%rcx, -32(%rbp)	# D.44400, D.44400
# /usr/include/c++/7/bits/stl_uninitialized.h:289:     { return std::uninitialized_copy(__first, __last, __result); }
	.loc 9 289 0
	movq	-24(%rbp), %rdx	# __result, tmp89
	movq	-16(%rbp), %rcx	# __last, tmp90
	movq	-8(%rbp), %rax	# __first, tmp91
	movq	%rcx, %rsi	# tmp90,
	movq	%rax, %rdi	# tmp91,
	call	_ZSt18uninitialized_copyISt13move_iteratorIPsES1_ET0_T_S4_S3_	#
	leave
	.cfi_def_cfa 7, 8
	ret
	.cfi_endproc
.LFE2332:
	.size	_ZSt22__uninitialized_copy_aISt13move_iteratorIPsES1_sET0_T_S4_S3_RSaIT1_E, .-_ZSt22__uninitialized_copy_aISt13move_iteratorIPsES1_sET0_T_S4_S3_RSaIT1_E
	.section	.text._ZN9__gnu_cxx13new_allocatorIsEC2Ev,"axG",@progbits,_ZN9__gnu_cxx13new_allocatorIsEC5Ev,comdat
	.align 2
	.weak	_ZN9__gnu_cxx13new_allocatorIsEC2Ev
	.type	_ZN9__gnu_cxx13new_allocatorIsEC2Ev, @function
_ZN9__gnu_cxx13new_allocatorIsEC2Ev:
.LFB2367:
	.loc 10 79 0
	.cfi_startproc
	pushq	%rbp	#
	.cfi_def_cfa_offset 16
	.cfi_offset 6, -16
	movq	%rsp, %rbp	#,
	.cfi_def_cfa_register 6
	movq	%rdi, -8(%rbp)	# this, this
# /usr/include/c++/7/ext/new_allocator.h:79:       new_allocator() _GLIBCXX_USE_NOEXCEPT { }
	.loc 10 79 0
	nop
	popq	%rbp	#
	.cfi_def_cfa 7, 8
	ret
	.cfi_endproc
.LFE2367:
	.size	_ZN9__gnu_cxx13new_allocatorIsEC2Ev, .-_ZN9__gnu_cxx13new_allocatorIsEC2Ev
	.weak	_ZN9__gnu_cxx13new_allocatorIsEC1Ev
	.set	_ZN9__gnu_cxx13new_allocatorIsEC1Ev,_ZN9__gnu_cxx13new_allocatorIsEC2Ev
	.section	.text._ZN9__gnu_cxx13new_allocatorIsE10deallocateEPsm,"axG",@progbits,_ZN9__gnu_cxx13new_allocatorIsE10deallocateEPsm,comdat
	.align 2
	.weak	_ZN9__gnu_cxx13new_allocatorIsE10deallocateEPsm
	.type	_ZN9__gnu_cxx13new_allocatorIsE10deallocateEPsm, @function
_ZN9__gnu_cxx13new_allocatorIsE10deallocateEPsm:
.LFB2369:
	.loc 10 116 0
	.cfi_startproc
	pushq	%rbp	#
	.cfi_def_cfa_offset 16
	.cfi_offset 6, -16
	movq	%rsp, %rbp	#,
	.cfi_def_cfa_register 6
	subq	$32, %rsp	#,
	movq	%rdi, -8(%rbp)	# this, this
	movq	%rsi, -16(%rbp)	# __p, __p
	movq	%rdx, -24(%rbp)	# D.39777, D.39777
# /usr/include/c++/7/ext/new_allocator.h:125: 	::operator delete(__p);
	.loc 10 125 0
	movq	-16(%rbp), %rax	# __p, tmp87
	movq	%rax, %rdi	# tmp87,
	call	_ZdlPv@PLT	#
# /usr/include/c++/7/ext/new_allocator.h:126:       }
	.loc 10 126 0
	nop
	leave
	.cfi_def_cfa 7, 8
	ret
	.cfi_endproc
.LFE2369:
	.size	_ZN9__gnu_cxx13new_allocatorIsE10deallocateEPsm, .-_ZN9__gnu_cxx13new_allocatorIsE10deallocateEPsm
	.section	.text._ZN9__gnu_cxx13new_allocatorIsE7destroyIsEEvPT_,"axG",@progbits,_ZN9__gnu_cxx13new_allocatorIsE7destroyIsEEvPT_,comdat
	.align 2
	.weak	_ZN9__gnu_cxx13new_allocatorIsE7destroyIsEEvPT_
	.type	_ZN9__gnu_cxx13new_allocatorIsE7destroyIsEEvPT_, @function
_ZN9__gnu_cxx13new_allocatorIsE7destroyIsEEvPT_:
.LFB2370:
	.loc 10 140 0
	.cfi_startproc
	pushq	%rbp	#
	.cfi_def_cfa_offset 16
	.cfi_offset 6, -16
	movq	%rsp, %rbp	#,
	.cfi_def_cfa_register 6
	movq	%rdi, -8(%rbp)	# this, this
	movq	%rsi, -16(%rbp)	# __p, __p
# /usr/include/c++/7/ext/new_allocator.h:140: 	destroy(_Up* __p) { __p->~_Up(); }
	.loc 10 140 0
	nop
	popq	%rbp	#
	.cfi_def_cfa 7, 8
	ret
	.cfi_endproc
.LFE2370:
	.size	_ZN9__gnu_cxx13new_allocatorIsE7destroyIsEEvPT_, .-_ZN9__gnu_cxx13new_allocatorIsE7destroyIsEEvPT_
	.section	.text._ZNSt27__uninitialized_default_n_1ILb1EE18__uninit_default_nIPsmEET_S3_T0_,"axG",@progbits,_ZNSt27__uninitialized_default_n_1ILb1EE18__uninit_default_nIPsmEET_S3_T0_,comdat
	.weak	_ZNSt27__uninitialized_default_n_1ILb1EE18__uninit_default_nIPsmEET_S3_T0_
	.type	_ZNSt27__uninitialized_default_n_1ILb1EE18__uninit_default_nIPsmEET_S3_T0_, @function
_ZNSt27__uninitialized_default_n_1ILb1EE18__uninit_default_nIPsmEET_S3_T0_:
.LFB2371:
	.loc 9 543 0
	.cfi_startproc
	pushq	%rbp	#
	.cfi_def_cfa_offset 16
	.cfi_offset 6, -16
	movq	%rsp, %rbp	#,
	.cfi_def_cfa_register 6
	subq	$32, %rsp	#,
	movq	%rdi, -24(%rbp)	# __first, __first
	movq	%rsi, -32(%rbp)	# __n, __n
# /usr/include/c++/7/bits/stl_uninitialized.h:543:         __uninit_default_n(_ForwardIterator __first, _Size __n)
	.loc 9 543 0
	movq	%fs:40, %rax	#, tmp93
	movq	%rax, -8(%rbp)	# tmp93, D.46045
	xorl	%eax, %eax	# tmp93
# /usr/include/c++/7/bits/stl_uninitialized.h:548: 	  return std::fill_n(__first, __n, _ValueType());
	.loc 9 548 0
	movw	$0, -10(%rbp)	#, D.45488
	leaq	-10(%rbp), %rdx	#, tmp89
	movq	-32(%rbp), %rcx	# __n, tmp90
	movq	-24(%rbp), %rax	# __first, tmp91
	movq	%rcx, %rsi	# tmp90,
	movq	%rax, %rdi	# tmp91,
	call	_ZSt6fill_nIPsmsET_S1_T0_RKT1_	#
# /usr/include/c++/7/bits/stl_uninitialized.h:549: 	}
	.loc 9 549 0
	movq	-8(%rbp), %rcx	# D.46045, tmp94
	xorq	%fs:40, %rcx	#, tmp94
	je	.L122	#,
	call	__stack_chk_fail@PLT	#
.L122:
	leave
	.cfi_def_cfa 7, 8
	ret
	.cfi_endproc
.LFE2371:
	.size	_ZNSt27__uninitialized_default_n_1ILb1EE18__uninit_default_nIPsmEET_S3_T0_, .-_ZNSt27__uninitialized_default_n_1ILb1EE18__uninit_default_nIPsmEET_S3_T0_
	.section	.text._ZNSt16allocator_traitsISaIsEE8max_sizeERKS0_,"axG",@progbits,_ZNSt16allocator_traitsISaIsEE8max_sizeERKS0_,comdat
	.weak	_ZNSt16allocator_traitsISaIsEE8max_sizeERKS0_
	.type	_ZNSt16allocator_traitsISaIsEE8max_sizeERKS0_, @function
_ZNSt16allocator_traitsISaIsEE8max_sizeERKS0_:
.LFB2372:
	.loc 8 495 0
	.cfi_startproc
	pushq	%rbp	#
	.cfi_def_cfa_offset 16
	.cfi_offset 6, -16
	movq	%rsp, %rbp	#,
	.cfi_def_cfa_register 6
	subq	$16, %rsp	#,
	movq	%rdi, -8(%rbp)	# __a, __a
# /usr/include/c++/7/bits/alloc_traits.h:496:       { return __a.max_size(); }
	.loc 8 496 0
	movq	-8(%rbp), %rax	# __a, tmp89
	movq	%rax, %rdi	# tmp89,
	call	_ZNK9__gnu_cxx13new_allocatorIsE8max_sizeEv	#
	leave
	.cfi_def_cfa 7, 8
	ret
	.cfi_endproc
.LFE2372:
	.size	_ZNSt16allocator_traitsISaIsEE8max_sizeERKS0_, .-_ZNSt16allocator_traitsISaIsEE8max_sizeERKS0_
	.section	.text._ZNKSt12_Vector_baseIsSaIsEE19_M_get_Tp_allocatorEv,"axG",@progbits,_ZNKSt12_Vector_baseIsSaIsEE19_M_get_Tp_allocatorEv,comdat
	.align 2
	.weak	_ZNKSt12_Vector_baseIsSaIsEE19_M_get_Tp_allocatorEv
	.type	_ZNKSt12_Vector_baseIsSaIsEE19_M_get_Tp_allocatorEv, @function
_ZNKSt12_Vector_baseIsSaIsEE19_M_get_Tp_allocatorEv:
.LFB2373:
	.loc 3 119 0
	.cfi_startproc
	pushq	%rbp	#
	.cfi_def_cfa_offset 16
	.cfi_offset 6, -16
	movq	%rsp, %rbp	#,
	.cfi_def_cfa_register 6
	movq	%rdi, -8(%rbp)	# this, this
# /usr/include/c++/7/bits/stl_vector.h:120:       { return *static_cast<const _Tp_alloc_type*>(&this->_M_impl); }
	.loc 3 120 0
	movq	-8(%rbp), %rax	# this, _2
	popq	%rbp	#
	.cfi_def_cfa 7, 8
	ret
	.cfi_endproc
.LFE2373:
	.size	_ZNKSt12_Vector_baseIsSaIsEE19_M_get_Tp_allocatorEv, .-_ZNKSt12_Vector_baseIsSaIsEE19_M_get_Tp_allocatorEv
	.section	.text._ZN9__gnu_cxx13new_allocatorIsE8allocateEmPKv,"axG",@progbits,_ZN9__gnu_cxx13new_allocatorIsE8allocateEmPKv,comdat
	.align 2
	.weak	_ZN9__gnu_cxx13new_allocatorIsE8allocateEmPKv
	.type	_ZN9__gnu_cxx13new_allocatorIsE8allocateEmPKv, @function
_ZN9__gnu_cxx13new_allocatorIsE8allocateEmPKv:
.LFB2374:
	.loc 10 99 0
	.cfi_startproc
	pushq	%rbp	#
	.cfi_def_cfa_offset 16
	.cfi_offset 6, -16
	movq	%rsp, %rbp	#,
	.cfi_def_cfa_register 6
	subq	$32, %rsp	#,
	movq	%rdi, -8(%rbp)	# this, this
	movq	%rsi, -16(%rbp)	# __n, __n
	movq	%rdx, -24(%rbp)	# D.39773, D.39773
# /usr/include/c++/7/ext/new_allocator.h:101: 	if (__n > this->max_size())
	.loc 10 101 0
	movq	-8(%rbp), %rax	# this, tmp92
	movq	%rax, %rdi	# tmp92,
	call	_ZNK9__gnu_cxx13new_allocatorIsE8max_sizeEv	#
	cmpq	%rax, -16(%rbp)	# _1, __n
	seta	%al	#, retval.6_7
	testb	%al, %al	# retval.6_7
	je	.L128	#,
# /usr/include/c++/7/ext/new_allocator.h:102: 	  std::__throw_bad_alloc();
	.loc 10 102 0
	call	_ZSt17__throw_bad_allocv@PLT	#
.L128:
# /usr/include/c++/7/ext/new_allocator.h:111: 	return static_cast<_Tp*>(::operator new(__n * sizeof(_Tp)));
	.loc 10 111 0
	movq	-16(%rbp), %rax	# __n, tmp93
	addq	%rax, %rax	# _2
	movq	%rax, %rdi	# _2,
	call	_Znwm@PLT	#
# /usr/include/c++/7/ext/new_allocator.h:112:       }
	.loc 10 112 0
	leave
	.cfi_def_cfa 7, 8
	ret
	.cfi_endproc
.LFE2374:
	.size	_ZN9__gnu_cxx13new_allocatorIsE8allocateEmPKv, .-_ZN9__gnu_cxx13new_allocatorIsE8allocateEmPKv
	.section	.text._ZNSt13move_iteratorIPsEC2ES0_,"axG",@progbits,_ZNSt13move_iteratorIPsEC5ES0_,comdat
	.align 2
	.weak	_ZNSt13move_iteratorIPsEC2ES0_
	.type	_ZNSt13move_iteratorIPsEC2ES0_, @function
_ZNSt13move_iteratorIPsEC2ES0_:
.LFB2376:
	.loc 11 1039 0
	.cfi_startproc
	pushq	%rbp	#
	.cfi_def_cfa_offset 16
	.cfi_offset 6, -16
	movq	%rsp, %rbp	#,
	.cfi_def_cfa_register 6
	movq	%rdi, -8(%rbp)	# this, this
	movq	%rsi, -16(%rbp)	# __i, __i
.LBB26:
# /usr/include/c++/7/bits/stl_iterator.h:1040:       : _M_current(__i) { }
	.loc 11 1040 0
	movq	-8(%rbp), %rax	# this, tmp87
	movq	-16(%rbp), %rdx	# __i, tmp88
	movq	%rdx, (%rax)	# tmp88, this_2(D)->_M_current
.LBE26:
	nop
	popq	%rbp	#
	.cfi_def_cfa 7, 8
	ret
	.cfi_endproc
.LFE2376:
	.size	_ZNSt13move_iteratorIPsEC2ES0_, .-_ZNSt13move_iteratorIPsEC2ES0_
	.weak	_ZNSt13move_iteratorIPsEC1ES0_
	.set	_ZNSt13move_iteratorIPsEC1ES0_,_ZNSt13move_iteratorIPsEC2ES0_
	.section	.text._ZSt18uninitialized_copyISt13move_iteratorIPsES1_ET0_T_S4_S3_,"axG",@progbits,_ZSt18uninitialized_copyISt13move_iteratorIPsES1_ET0_T_S4_S3_,comdat
	.weak	_ZSt18uninitialized_copyISt13move_iteratorIPsES1_ET0_T_S4_S3_
	.type	_ZSt18uninitialized_copyISt13move_iteratorIPsES1_ET0_T_S4_S3_, @function
_ZSt18uninitialized_copyISt13move_iteratorIPsES1_ET0_T_S4_S3_:
.LFB2378:
	.loc 9 115 0
	.cfi_startproc
	pushq	%rbp	#
	.cfi_def_cfa_offset 16
	.cfi_offset 6, -16
	movq	%rsp, %rbp	#,
	.cfi_def_cfa_register 6
	subq	$48, %rsp	#,
	movq	%rdi, -24(%rbp)	# __first, __first
	movq	%rsi, -32(%rbp)	# __last, __last
	movq	%rdx, -40(%rbp)	# __result, __result
# /usr/include/c++/7/bits/stl_uninitialized.h:128:       const bool __assignable = is_assignable<_RefType2, _RefType1>::value;
	.loc 9 128 0
	movb	$1, -1(%rbp)	#, __assignable
# /usr/include/c++/7/bits/stl_uninitialized.h:134: 	__uninit_copy(__first, __last, __result);
	.loc 9 134 0
	movq	-40(%rbp), %rdx	# __result, tmp89
	movq	-32(%rbp), %rcx	# __last, tmp90
	movq	-24(%rbp), %rax	# __first, tmp91
	movq	%rcx, %rsi	# tmp90,
	movq	%rax, %rdi	# tmp91,
	call	_ZNSt20__uninitialized_copyILb1EE13__uninit_copyISt13move_iteratorIPsES3_EET0_T_S6_S5_	#
# /usr/include/c++/7/bits/stl_uninitialized.h:135:     }
	.loc 9 135 0
	leave
	.cfi_def_cfa 7, 8
	ret
	.cfi_endproc
.LFE2378:
	.size	_ZSt18uninitialized_copyISt13move_iteratorIPsES1_ET0_T_S4_S3_, .-_ZSt18uninitialized_copyISt13move_iteratorIPsES1_ET0_T_S4_S3_
	.section	.text._ZSt6fill_nIPsmsET_S1_T0_RKT1_,"axG",@progbits,_ZSt6fill_nIPsmsET_S1_T0_RKT1_,comdat
	.weak	_ZSt6fill_nIPsmsET_S1_T0_RKT1_
	.type	_ZSt6fill_nIPsmsET_S1_T0_RKT1_, @function
_ZSt6fill_nIPsmsET_S1_T0_RKT1_:
.LFB2404:
	.loc 12 784 0
	.cfi_startproc
	pushq	%rbp	#
	.cfi_def_cfa_offset 16
	.cfi_offset 6, -16
	movq	%rsp, %rbp	#,
	.cfi_def_cfa_register 6
	subq	$32, %rsp	#,
	movq	%rdi, -8(%rbp)	# __first, __first
	movq	%rsi, -16(%rbp)	# __n, __n
	movq	%rdx, -24(%rbp)	# __value, __value
# /usr/include/c++/7/bits/stl_algobase.h:789:       return _OI(std::__fill_n_a(std::__niter_base(__first), __n, __value));
	.loc 12 789 0
	movq	-8(%rbp), %rax	# __first, tmp90
	movq	%rax, %rdi	# tmp90,
	call	_ZSt12__niter_baseIPsET_S1_	#
	movq	%rax, %rcx	#, _1
	movq	-24(%rbp), %rdx	# __value, tmp91
	movq	-16(%rbp), %rax	# __n, tmp92
	movq	%rax, %rsi	# tmp92,
	movq	%rcx, %rdi	# _1,
	call	_ZSt10__fill_n_aIPsmsEN9__gnu_cxx11__enable_ifIXsrSt11__is_scalarIT1_E7__valueET_E6__typeES6_T0_RKS4_	#
# /usr/include/c++/7/bits/stl_algobase.h:790:     }
	.loc 12 790 0
	leave
	.cfi_def_cfa 7, 8
	ret
	.cfi_endproc
.LFE2404:
	.size	_ZSt6fill_nIPsmsET_S1_T0_RKT1_, .-_ZSt6fill_nIPsmsET_S1_T0_RKT1_
	.section	.text._ZNK9__gnu_cxx13new_allocatorIsE8max_sizeEv,"axG",@progbits,_ZNK9__gnu_cxx13new_allocatorIsE8max_sizeEv,comdat
	.align 2
	.weak	_ZNK9__gnu_cxx13new_allocatorIsE8max_sizeEv
	.type	_ZNK9__gnu_cxx13new_allocatorIsE8max_sizeEv, @function
_ZNK9__gnu_cxx13new_allocatorIsE8max_sizeEv:
.LFB2405:
	.loc 10 129 0
	.cfi_startproc
	pushq	%rbp	#
	.cfi_def_cfa_offset 16
	.cfi_offset 6, -16
	movq	%rsp, %rbp	#,
	.cfi_def_cfa_register 6
	movq	%rdi, -8(%rbp)	# this, this
# /usr/include/c++/7/ext/new_allocator.h:130:       { return size_t(-1) / sizeof(_Tp); }
	.loc 10 130 0
	movabsq	$9223372036854775807, %rax	#, _1
	popq	%rbp	#
	.cfi_def_cfa 7, 8
	ret
	.cfi_endproc
.LFE2405:
	.size	_ZNK9__gnu_cxx13new_allocatorIsE8max_sizeEv, .-_ZNK9__gnu_cxx13new_allocatorIsE8max_sizeEv
	.section	.text._ZNSt20__uninitialized_copyILb1EE13__uninit_copyISt13move_iteratorIPsES3_EET0_T_S6_S5_,"axG",@progbits,_ZNSt20__uninitialized_copyILb1EE13__uninit_copyISt13move_iteratorIPsES3_EET0_T_S6_S5_,comdat
	.weak	_ZNSt20__uninitialized_copyILb1EE13__uninit_copyISt13move_iteratorIPsES3_EET0_T_S6_S5_
	.type	_ZNSt20__uninitialized_copyILb1EE13__uninit_copyISt13move_iteratorIPsES3_EET0_T_S6_S5_, @function
_ZNSt20__uninitialized_copyILb1EE13__uninit_copyISt13move_iteratorIPsES3_EET0_T_S6_S5_:
.LFB2406:
	.loc 9 99 0
	.cfi_startproc
	pushq	%rbp	#
	.cfi_def_cfa_offset 16
	.cfi_offset 6, -16
	movq	%rsp, %rbp	#,
	.cfi_def_cfa_register 6
	subq	$32, %rsp	#,
	movq	%rdi, -8(%rbp)	# __first, __first
	movq	%rsi, -16(%rbp)	# __last, __last
	movq	%rdx, -24(%rbp)	# __result, __result
# /usr/include/c++/7/bits/stl_uninitialized.h:101:         { return std::copy(__first, __last, __result); }
	.loc 9 101 0
	movq	-24(%rbp), %rdx	# __result, tmp89
	movq	-16(%rbp), %rcx	# __last, tmp90
	movq	-8(%rbp), %rax	# __first, tmp91
	movq	%rcx, %rsi	# tmp90,
	movq	%rax, %rdi	# tmp91,
	call	_ZSt4copyISt13move_iteratorIPsES1_ET0_T_S4_S3_	#
	leave
	.cfi_def_cfa 7, 8
	ret
	.cfi_endproc
.LFE2406:
	.size	_ZNSt20__uninitialized_copyILb1EE13__uninit_copyISt13move_iteratorIPsES3_EET0_T_S6_S5_, .-_ZNSt20__uninitialized_copyILb1EE13__uninit_copyISt13move_iteratorIPsES3_EET0_T_S6_S5_
	.section	.text._ZSt12__niter_baseIPsET_S1_,"axG",@progbits,_ZSt12__niter_baseIPsET_S1_,comdat
	.weak	_ZSt12__niter_baseIPsET_S1_
	.type	_ZSt12__niter_baseIPsET_S1_, @function
_ZSt12__niter_baseIPsET_S1_:
.LFB2415:
	.loc 12 277 0
	.cfi_startproc
	pushq	%rbp	#
	.cfi_def_cfa_offset 16
	.cfi_offset 6, -16
	movq	%rsp, %rbp	#,
	.cfi_def_cfa_register 6
	movq	%rdi, -8(%rbp)	# __it, __it
# /usr/include/c++/7/bits/stl_algobase.h:278:     { return __it; }
	.loc 12 278 0
	movq	-8(%rbp), %rax	# __it, _2
	popq	%rbp	#
	.cfi_def_cfa 7, 8
	ret
	.cfi_endproc
.LFE2415:
	.size	_ZSt12__niter_baseIPsET_S1_, .-_ZSt12__niter_baseIPsET_S1_
	.section	.text._ZSt10__fill_n_aIPsmsEN9__gnu_cxx11__enable_ifIXsrSt11__is_scalarIT1_E7__valueET_E6__typeES6_T0_RKS4_,"axG",@progbits,_ZSt10__fill_n_aIPsmsEN9__gnu_cxx11__enable_ifIXsrSt11__is_scalarIT1_E7__valueET_E6__typeES6_T0_RKS4_,comdat
	.weak	_ZSt10__fill_n_aIPsmsEN9__gnu_cxx11__enable_ifIXsrSt11__is_scalarIT1_E7__valueET_E6__typeES6_T0_RKS4_
	.type	_ZSt10__fill_n_aIPsmsEN9__gnu_cxx11__enable_ifIXsrSt11__is_scalarIT1_E7__valueET_E6__typeES6_T0_RKS4_, @function
_ZSt10__fill_n_aIPsmsEN9__gnu_cxx11__enable_ifIXsrSt11__is_scalarIT1_E7__valueET_E6__typeES6_T0_RKS4_:
.LFB2416:
	.loc 12 749 0
	.cfi_startproc
	pushq	%rbp	#
	.cfi_def_cfa_offset 16
	.cfi_offset 6, -16
	movq	%rsp, %rbp	#,
	.cfi_def_cfa_register 6
	movq	%rdi, -24(%rbp)	# __first, __first
	movq	%rsi, -32(%rbp)	# __n, __n
	movq	%rdx, -40(%rbp)	# __value, __value
# /usr/include/c++/7/bits/stl_algobase.h:751:       const _Tp __tmp = __value;
	.loc 12 751 0
	movq	-40(%rbp), %rax	# __value, tmp89
	movzwl	(%rax), %eax	# *__value_5(D), tmp90
	movw	%ax, -10(%rbp)	# tmp90, __tmp
.LBB27:
# /usr/include/c++/7/bits/stl_algobase.h:752:       for (__decltype(__n + 0) __niter = __n;
	.loc 12 752 0
	movq	-32(%rbp), %rax	# __n, tmp91
	movq	%rax, -8(%rbp)	# tmp91, __niter
.L143:
# /usr/include/c++/7/bits/stl_algobase.h:753: 	   __niter > 0; --__niter, ++__first)
	.loc 12 753 0
	cmpq	$0, -8(%rbp)	#, __niter
	je	.L142	#,
# /usr/include/c++/7/bits/stl_algobase.h:754: 	*__first = __tmp;
	.loc 12 754 0
	movq	-24(%rbp), %rax	# __first, tmp92
	movzwl	-10(%rbp), %edx	# __tmp, tmp93
	movw	%dx, (%rax)	# tmp93, *__first_1
# /usr/include/c++/7/bits/stl_algobase.h:752:       for (__decltype(__n + 0) __niter = __n;
	.loc 12 752 0
	subq	$1, -8(%rbp)	#, __niter
	addq	$2, -24(%rbp)	#, __first
	jmp	.L143	#
.L142:
.LBE27:
# /usr/include/c++/7/bits/stl_algobase.h:755:       return __first;
	.loc 12 755 0
	movq	-24(%rbp), %rax	# __first, _13
# /usr/include/c++/7/bits/stl_algobase.h:756:     }
	.loc 12 756 0
	popq	%rbp	#
	.cfi_def_cfa 7, 8
	ret
	.cfi_endproc
.LFE2416:
	.size	_ZSt10__fill_n_aIPsmsEN9__gnu_cxx11__enable_ifIXsrSt11__is_scalarIT1_E7__valueET_E6__typeES6_T0_RKS4_, .-_ZSt10__fill_n_aIPsmsEN9__gnu_cxx11__enable_ifIXsrSt11__is_scalarIT1_E7__valueET_E6__typeES6_T0_RKS4_
	.section	.text._ZSt4copyISt13move_iteratorIPsES1_ET0_T_S4_S3_,"axG",@progbits,_ZSt4copyISt13move_iteratorIPsES1_ET0_T_S4_S3_,comdat
	.weak	_ZSt4copyISt13move_iteratorIPsES1_ET0_T_S4_S3_
	.type	_ZSt4copyISt13move_iteratorIPsES1_ET0_T_S4_S3_, @function
_ZSt4copyISt13move_iteratorIPsES1_ET0_T_S4_S3_:
.LFB2417:
	.loc 12 446 0
	.cfi_startproc
	pushq	%rbp	#
	.cfi_def_cfa_offset 16
	.cfi_offset 6, -16
	movq	%rsp, %rbp	#,
	.cfi_def_cfa_register 6
	pushq	%rbx	#
	subq	$40, %rsp	#,
	.cfi_offset 3, -24
	movq	%rdi, -24(%rbp)	# __first, __first
	movq	%rsi, -32(%rbp)	# __last, __last
	movq	%rdx, -40(%rbp)	# __result, __result
# /usr/include/c++/7/bits/stl_algobase.h:455: 	      (std::__miter_base(__first), std::__miter_base(__last),
	.loc 12 455 0
	movq	-32(%rbp), %rax	# __last, tmp91
	movq	%rax, %rdi	# tmp91,
	call	_ZSt12__miter_baseIPsEDTcl12__miter_basecldtfp_4baseEEESt13move_iteratorIT_E	#
	movq	%rax, %rbx	#, _1
	movq	-24(%rbp), %rax	# __first, tmp92
	movq	%rax, %rdi	# tmp92,
	call	_ZSt12__miter_baseIPsEDTcl12__miter_basecldtfp_4baseEEESt13move_iteratorIT_E	#
	movq	%rax, %rcx	#, _2
# /usr/include/c++/7/bits/stl_algobase.h:456: 	       __result));
	.loc 12 456 0
	movq	-40(%rbp), %rax	# __result, tmp93
	movq	%rax, %rdx	# tmp93,
	movq	%rbx, %rsi	# _1,
	movq	%rcx, %rdi	# _2,
	call	_ZSt14__copy_move_a2ILb1EPsS0_ET1_T0_S2_S1_	#
# /usr/include/c++/7/bits/stl_algobase.h:457:     }
	.loc 12 457 0
	addq	$40, %rsp	#,
	popq	%rbx	#
	popq	%rbp	#
	.cfi_def_cfa 7, 8
	ret
	.cfi_endproc
.LFE2417:
	.size	_ZSt4copyISt13move_iteratorIPsES1_ET0_T_S4_S3_, .-_ZSt4copyISt13move_iteratorIPsES1_ET0_T_S4_S3_
	.section	.text._ZSt12__miter_baseIPsEDTcl12__miter_basecldtfp_4baseEEESt13move_iteratorIT_E,"axG",@progbits,_ZSt12__miter_baseIPsEDTcl12__miter_basecldtfp_4baseEEESt13move_iteratorIT_E,comdat
	.weak	_ZSt12__miter_baseIPsEDTcl12__miter_basecldtfp_4baseEEESt13move_iteratorIT_E
	.type	_ZSt12__miter_baseIPsEDTcl12__miter_basecldtfp_4baseEEESt13move_iteratorIT_E, @function
_ZSt12__miter_baseIPsEDTcl12__miter_basecldtfp_4baseEEESt13move_iteratorIT_E:
.LFB2420:
	.loc 11 1244 0
	.cfi_startproc
	pushq	%rbp	#
	.cfi_def_cfa_offset 16
	.cfi_offset 6, -16
	movq	%rsp, %rbp	#,
	.cfi_def_cfa_register 6
	subq	$16, %rsp	#,
	movq	%rdi, -8(%rbp)	# __it, __it
# /usr/include/c++/7/bits/stl_iterator.h:1246:     { return __miter_base(__it.base()); }
	.loc 11 1246 0
	leaq	-8(%rbp), %rax	#, tmp90
	movq	%rax, %rdi	# tmp90,
	call	_ZNKSt13move_iteratorIPsE4baseEv	#
	movq	%rax, %rdi	# _1,
	call	_ZSt12__miter_baseIPsET_S1_	#
	leave
	.cfi_def_cfa 7, 8
	ret
	.cfi_endproc
.LFE2420:
	.size	_ZSt12__miter_baseIPsEDTcl12__miter_basecldtfp_4baseEEESt13move_iteratorIT_E, .-_ZSt12__miter_baseIPsEDTcl12__miter_basecldtfp_4baseEEESt13move_iteratorIT_E
	.section	.text._ZSt14__copy_move_a2ILb1EPsS0_ET1_T0_S2_S1_,"axG",@progbits,_ZSt14__copy_move_a2ILb1EPsS0_ET1_T0_S2_S1_,comdat
	.weak	_ZSt14__copy_move_a2ILb1EPsS0_ET1_T0_S2_S1_
	.type	_ZSt14__copy_move_a2ILb1EPsS0_ET1_T0_S2_S1_, @function
_ZSt14__copy_move_a2ILb1EPsS0_ET1_T0_S2_S1_:
.LFB2421:
	.loc 12 420 0
	.cfi_startproc
	pushq	%rbp	#
	.cfi_def_cfa_offset 16
	.cfi_offset 6, -16
	movq	%rsp, %rbp	#,
	.cfi_def_cfa_register 6
	pushq	%r12	#
	pushq	%rbx	#
	subq	$32, %rsp	#,
	.cfi_offset 12, -24
	.cfi_offset 3, -32
	movq	%rdi, -24(%rbp)	# __first, __first
	movq	%rsi, -32(%rbp)	# __last, __last
	movq	%rdx, -40(%rbp)	# __result, __result
# /usr/include/c++/7/bits/stl_algobase.h:422:       return _OI(std::__copy_move_a<_IsMove>(std::__niter_base(__first),
	.loc 12 422 0
	movq	-40(%rbp), %rax	# __result, tmp92
	movq	%rax, %rdi	# tmp92,
	call	_ZSt12__niter_baseIPsET_S1_	#
	movq	%rax, %r12	#, _1
	movq	-32(%rbp), %rax	# __last, tmp93
	movq	%rax, %rdi	# tmp93,
	call	_ZSt12__niter_baseIPsET_S1_	#
	movq	%rax, %rbx	#, _2
	movq	-24(%rbp), %rax	# __first, tmp94
	movq	%rax, %rdi	# tmp94,
	call	_ZSt12__niter_baseIPsET_S1_	#
# /usr/include/c++/7/bits/stl_algobase.h:424: 					     std::__niter_base(__result)));
	.loc 12 424 0
	movq	%r12, %rdx	# _1,
	movq	%rbx, %rsi	# _2,
	movq	%rax, %rdi	# _3,
	call	_ZSt13__copy_move_aILb1EPsS0_ET1_T0_S2_S1_	#
# /usr/include/c++/7/bits/stl_algobase.h:425:     }
	.loc 12 425 0
	addq	$32, %rsp	#,
	popq	%rbx	#
	popq	%r12	#
	popq	%rbp	#
	.cfi_def_cfa 7, 8
	ret
	.cfi_endproc
.LFE2421:
	.size	_ZSt14__copy_move_a2ILb1EPsS0_ET1_T0_S2_S1_, .-_ZSt14__copy_move_a2ILb1EPsS0_ET1_T0_S2_S1_
	.section	.text._ZNKSt13move_iteratorIPsE4baseEv,"axG",@progbits,_ZNKSt13move_iteratorIPsE4baseEv,comdat
	.align 2
	.weak	_ZNKSt13move_iteratorIPsE4baseEv
	.type	_ZNKSt13move_iteratorIPsE4baseEv, @function
_ZNKSt13move_iteratorIPsE4baseEv:
.LFB2422:
	.loc 11 1048 0
	.cfi_startproc
	pushq	%rbp	#
	.cfi_def_cfa_offset 16
	.cfi_offset 6, -16
	movq	%rsp, %rbp	#,
	.cfi_def_cfa_register 6
	movq	%rdi, -8(%rbp)	# this, this
# /usr/include/c++/7/bits/stl_iterator.h:1049:       { return _M_current; }
	.loc 11 1049 0
	movq	-8(%rbp), %rax	# this, tmp89
	movq	(%rax), %rax	# this_2(D)->_M_current, _3
	popq	%rbp	#
	.cfi_def_cfa 7, 8
	ret
	.cfi_endproc
.LFE2422:
	.size	_ZNKSt13move_iteratorIPsE4baseEv, .-_ZNKSt13move_iteratorIPsE4baseEv
	.section	.text._ZSt12__miter_baseIPsET_S1_,"axG",@progbits,_ZSt12__miter_baseIPsET_S1_,comdat
	.weak	_ZSt12__miter_baseIPsET_S1_
	.type	_ZSt12__miter_baseIPsET_S1_, @function
_ZSt12__miter_baseIPsET_S1_:
.LFB2423:
	.file 13 "/usr/include/c++/7/bits/cpp_type_traits.h"
	.loc 13 408 0
	.cfi_startproc
	pushq	%rbp	#
	.cfi_def_cfa_offset 16
	.cfi_offset 6, -16
	movq	%rsp, %rbp	#,
	.cfi_def_cfa_register 6
	movq	%rdi, -8(%rbp)	# __it, __it
# /usr/include/c++/7/bits/cpp_type_traits.h:409:     { return __it; }
	.loc 13 409 0
	movq	-8(%rbp), %rax	# __it, _2
	popq	%rbp	#
	.cfi_def_cfa 7, 8
	ret
	.cfi_endproc
.LFE2423:
	.size	_ZSt12__miter_baseIPsET_S1_, .-_ZSt12__miter_baseIPsET_S1_
	.section	.text._ZSt13__copy_move_aILb1EPsS0_ET1_T0_S2_S1_,"axG",@progbits,_ZSt13__copy_move_aILb1EPsS0_ET1_T0_S2_S1_,comdat
	.weak	_ZSt13__copy_move_aILb1EPsS0_ET1_T0_S2_S1_
	.type	_ZSt13__copy_move_aILb1EPsS0_ET1_T0_S2_S1_, @function
_ZSt13__copy_move_aILb1EPsS0_ET1_T0_S2_S1_:
.LFB2424:
	.loc 12 375 0
	.cfi_startproc
	pushq	%rbp	#
	.cfi_def_cfa_offset 16
	.cfi_offset 6, -16
	movq	%rsp, %rbp	#,
	.cfi_def_cfa_register 6
	subq	$48, %rsp	#,
	movq	%rdi, -24(%rbp)	# __first, __first
	movq	%rsi, -32(%rbp)	# __last, __last
	movq	%rdx, -40(%rbp)	# __result, __result
# /usr/include/c++/7/bits/stl_algobase.h:380:       const bool __simple = (__is_trivial(_ValueTypeI)
	.loc 12 380 0
	movb	$1, -1(%rbp)	#, __simple
# /usr/include/c++/7/bits/stl_algobase.h:386: 	                      _Category>::__copy_m(__first, __last, __result);
	.loc 12 386 0
	movq	-40(%rbp), %rdx	# __result, tmp89
	movq	-32(%rbp), %rcx	# __last, tmp90
	movq	-24(%rbp), %rax	# __first, tmp91
	movq	%rcx, %rsi	# tmp90,
	movq	%rax, %rdi	# tmp91,
	call	_ZNSt11__copy_moveILb1ELb1ESt26random_access_iterator_tagE8__copy_mIsEEPT_PKS3_S6_S4_	#
# /usr/include/c++/7/bits/stl_algobase.h:387:     }
	.loc 12 387 0
	leave
	.cfi_def_cfa 7, 8
	ret
	.cfi_endproc
.LFE2424:
	.size	_ZSt13__copy_move_aILb1EPsS0_ET1_T0_S2_S1_, .-_ZSt13__copy_move_aILb1EPsS0_ET1_T0_S2_S1_
	.section	.text._ZNSt11__copy_moveILb1ELb1ESt26random_access_iterator_tagE8__copy_mIsEEPT_PKS3_S6_S4_,"axG",@progbits,_ZNSt11__copy_moveILb1ELb1ESt26random_access_iterator_tagE8__copy_mIsEEPT_PKS3_S6_S4_,comdat
	.weak	_ZNSt11__copy_moveILb1ELb1ESt26random_access_iterator_tagE8__copy_mIsEEPT_PKS3_S6_S4_
	.type	_ZNSt11__copy_moveILb1ELb1ESt26random_access_iterator_tagE8__copy_mIsEEPT_PKS3_S6_S4_, @function
_ZNSt11__copy_moveILb1ELb1ESt26random_access_iterator_tagE8__copy_mIsEEPT_PKS3_S6_S4_:
.LFB2425:
	.loc 12 357 0
	.cfi_startproc
	pushq	%rbp	#
	.cfi_def_cfa_offset 16
	.cfi_offset 6, -16
	movq	%rsp, %rbp	#,
	.cfi_def_cfa_register 6
	subq	$48, %rsp	#,
	movq	%rdi, -24(%rbp)	# __first, __first
	movq	%rsi, -32(%rbp)	# __last, __last
	movq	%rdx, -40(%rbp)	# __result, __result
# /usr/include/c++/7/bits/stl_algobase.h:366: 	  const ptrdiff_t _Num = __last - __first;
	.loc 12 366 0
	movq	-32(%rbp), %rdx	# __last, __last.7_1
	movq	-24(%rbp), %rax	# __first, __first.8_2
	subq	%rax, %rdx	# __first.8_2, __last.7_1
	movq	%rdx, %rax	# __last.7_1, _3
	sarq	%rax	# tmp96
	movq	%rax, -8(%rbp)	# tmp96, _Num
# /usr/include/c++/7/bits/stl_algobase.h:367: 	  if (_Num)
	.loc 12 367 0
	cmpq	$0, -8(%rbp)	#, _Num
	je	.L158	#,
# /usr/include/c++/7/bits/stl_algobase.h:368: 	    __builtin_memmove(__result, __first, sizeof(_Tp) * _Num);
	.loc 12 368 0
	movq	-8(%rbp), %rax	# _Num, _Num.9_4
	leaq	(%rax,%rax), %rdx	#, _5
	movq	-24(%rbp), %rcx	# __first, tmp97
	movq	-40(%rbp), %rax	# __result, tmp98
	movq	%rcx, %rsi	# tmp97,
	movq	%rax, %rdi	# tmp98,
	call	memmove@PLT	#
.L158:
# /usr/include/c++/7/bits/stl_algobase.h:369: 	  return __result + _Num;
	.loc 12 369 0
	movq	-8(%rbp), %rax	# _Num, _Num.10_6
	leaq	(%rax,%rax), %rdx	#, _7
	movq	-40(%rbp), %rax	# __result, tmp99
	addq	%rdx, %rax	# _7, _15
# /usr/include/c++/7/bits/stl_algobase.h:370: 	}
	.loc 12 370 0
	leave
	.cfi_def_cfa 7, 8
	ret
	.cfi_endproc
.LFE2425:
	.size	_ZNSt11__copy_moveILb1ELb1ESt26random_access_iterator_tagE8__copy_mIsEEPT_PKS3_S6_S4_, .-_ZNSt11__copy_moveILb1ELb1ESt26random_access_iterator_tagE8__copy_mIsEEPT_PKS3_S6_S4_
	.text
	.type	_Z41__static_initialization_and_destruction_0ii, @function
_Z41__static_initialization_and_destruction_0ii:
.LFB2426:
	.loc 2 62 0
	.cfi_startproc
	pushq	%rbp	#
	.cfi_def_cfa_offset 16
	.cfi_offset 6, -16
	movq	%rsp, %rbp	#,
	.cfi_def_cfa_register 6
	subq	$16, %rsp	#,
	movl	%edi, -4(%rbp)	# __initialize_p, __initialize_p
	movl	%esi, -8(%rbp)	# __priority, __priority
# main.cpp:62: }
	.loc 2 62 0
	cmpl	$1, -4(%rbp)	#, __initialize_p
	jne	.L162	#,
# main.cpp:62: }
	.loc 2 62 0 is_stmt 0 discriminator 1
	cmpl	$65535, -8(%rbp)	#, __priority
	jne	.L162	#,
# /usr/include/c++/7/iostream:74:   static ios_base::Init __ioinit;
	.file 14 "/usr/include/c++/7/iostream"
	.loc 14 74 0 is_stmt 1
	leaq	_ZStL8__ioinit(%rip), %rdi	#,
	call	_ZNSt8ios_base4InitC1Ev@PLT	#
	leaq	__dso_handle(%rip), %rdx	#,
	leaq	_ZStL8__ioinit(%rip), %rsi	#,
	movq	_ZNSt8ios_base4InitD1Ev@GOTPCREL(%rip), %rax	#, tmp87
	movq	%rax, %rdi	# tmp87,
	call	__cxa_atexit@PLT	#
.L162:
# main.cpp:62: }
	.loc 2 62 0
	nop
	leave
	.cfi_def_cfa 7, 8
	ret
	.cfi_endproc
.LFE2426:
	.size	_Z41__static_initialization_and_destruction_0ii, .-_Z41__static_initialization_and_destruction_0ii
	.type	_GLOBAL__sub_I__Z5printi, @function
_GLOBAL__sub_I__Z5printi:
.LFB2427:
	.loc 2 62 0
	.cfi_startproc
	pushq	%rbp	#
	.cfi_def_cfa_offset 16
	.cfi_offset 6, -16
	movq	%rsp, %rbp	#,
	.cfi_def_cfa_register 6
# main.cpp:62: }
	.loc 2 62 0
	movl	$65535, %esi	#,
	movl	$1, %edi	#,
	call	_Z41__static_initialization_and_destruction_0ii	#
	popq	%rbp	#
	.cfi_def_cfa 7, 8
	ret
	.cfi_endproc
.LFE2427:
	.size	_GLOBAL__sub_I__Z5printi, .-_GLOBAL__sub_I__Z5printi
	.section	.init_array,"aw"
	.align 8
	.quad	_GLOBAL__sub_I__Z5printi
	.text
.Letext0:
	.file 15 "/usr/include/c++/7/cwchar"
	.file 16 "/usr/include/c++/7/bits/exception_ptr.h"
	.file 17 "/usr/include/c++/7/type_traits"
	.file 18 "/usr/include/x86_64-linux-gnu/c++/7/bits/c++config.h"
	.file 19 "/usr/include/c++/7/bits/stl_pair.h"
	.file 20 "/usr/include/c++/7/debug/debug.h"
	.file 21 "/usr/include/c++/7/bits/char_traits.h"
	.file 22 "/usr/include/c++/7/cstdint"
	.file 23 "/usr/include/c++/7/clocale"
	.file 24 "/usr/include/c++/7/cstdlib"
	.file 25 "/usr/include/c++/7/cstdio"
	.file 26 "/usr/include/c++/7/bits/basic_string.h"
	.file 27 "/usr/include/c++/7/system_error"
	.file 28 "/usr/include/c++/7/bits/ios_base.h"
	.file 29 "/usr/include/c++/7/cwctype"
	.file 30 "/usr/include/c++/7/iosfwd"
	.file 31 "/usr/include/c++/7/bits/stl_iterator_base_types.h"
	.file 32 "/usr/include/c++/7/bits/predefined_ops.h"
	.file 33 "/usr/include/c++/7/ext/numeric_traits.h"
	.file 34 "/usr/include/c++/7/ext/alloc_traits.h"
	.file 35 "/usr/include/c++/7/ext/type_traits.h"
	.file 36 "/usr/lib/gcc/x86_64-linux-gnu/7/include/stddef.h"
	.file 37 "<built-in>"
	.file 38 "/usr/include/x86_64-linux-gnu/bits/types/wint_t.h"
	.file 39 "/usr/include/x86_64-linux-gnu/bits/types/__mbstate_t.h"
	.file 40 "/usr/include/x86_64-linux-gnu/bits/types/mbstate_t.h"
	.file 41 "/usr/include/x86_64-linux-gnu/bits/types/__FILE.h"
	.file 42 "/usr/include/x86_64-linux-gnu/bits/libio.h"
	.file 43 "/usr/include/x86_64-linux-gnu/bits/types/FILE.h"
	.file 44 "/usr/include/wchar.h"
	.file 45 "/usr/include/x86_64-linux-gnu/bits/types/struct_tm.h"
	.file 46 "/usr/include/x86_64-linux-gnu/bits/types.h"
	.file 47 "/usr/include/x86_64-linux-gnu/bits/stdint-intn.h"
	.file 48 "/usr/include/x86_64-linux-gnu/bits/stdint-uintn.h"
	.file 49 "/usr/include/stdint.h"
	.file 50 "/usr/include/locale.h"
	.file 51 "/usr/include/time.h"
	.file 52 "/usr/include/x86_64-linux-gnu/c++/7/bits/atomic_word.h"
	.file 53 "/usr/include/stdlib.h"
	.file 54 "/usr/include/x86_64-linux-gnu/bits/_G_config.h"
	.file 55 "/usr/include/stdio.h"
	.file 56 "/usr/include/x86_64-linux-gnu/bits/sys_errlist.h"
	.file 57 "/usr/include/errno.h"
	.file 58 "/usr/include/x86_64-linux-gnu/bits/wctype-wchar.h"
	.file 59 "/usr/include/wctype.h"
	.section	.data.rel.local.DW.ref.__gxx_personality_v0,"awG",@progbits,DW.ref.__gxx_personality_v0,comdat
	.align 8
	.type	DW.ref.__gxx_personality_v0, @object
	.size	DW.ref.__gxx_personality_v0, 8
DW.ref.__gxx_personality_v0:
	.quad	__gxx_personality_v0
	.hidden	__dso_handle
	.ident	"GCC: (Ubuntu 7.5.0-3ubuntu1~18.04) 7.5.0"
	.section	.note.GNU-stack,"",@progbits
