	.file	"main.cpp"
# GNU C++14 (Ubuntu 7.5.0-3ubuntu1~18.04) version 7.5.0 (x86_64-linux-gnu)
#	compiled by GNU C version 7.5.0, GMP version 6.1.2, MPFR version 4.0.1, MPC version 1.1.0, isl version isl-0.19-GMP

# GGC heuristics: --param ggc-min-expand=100 --param ggc-min-heapsize=131072
# options passed:  -imultiarch x86_64-linux-gnu -D_GNU_SOURCE main.cpp
# -mtune=generic -march=x86-64 -auxbase-strip main_o3.s -g -O3
# -fverbose-asm -fstack-protector-strong -Wformat -Wformat-security
# options enabled:  -fPIC -fPIE -faggressive-loop-optimizations
# -falign-labels -fasynchronous-unwind-tables -fauto-inc-dec
# -fbranch-count-reg -fcaller-saves -fchkp-check-incomplete-type
# -fchkp-check-read -fchkp-check-write -fchkp-instrument-calls
# -fchkp-narrow-bounds -fchkp-optimize -fchkp-store-bounds
# -fchkp-use-static-bounds -fchkp-use-static-const-bounds
# -fchkp-use-wrappers -fcode-hoisting -fcombine-stack-adjustments -fcommon
# -fcompare-elim -fcprop-registers -fcrossjumping -fcse-follow-jumps
# -fdefer-pop -fdelete-null-pointer-checks -fdevirtualize
# -fdevirtualize-speculatively -fdwarf2-cfi-asm -fearly-inlining
# -feliminate-unused-debug-types -fexceptions -fexpensive-optimizations
# -fforward-propagate -ffp-int-builtin-inexact -ffunction-cse -fgcse
# -fgcse-after-reload -fgcse-lm -fgnu-runtime -fgnu-unique
# -fguess-branch-probability -fhoist-adjacent-loads -fident -fif-conversion
# -fif-conversion2 -findirect-inlining -finline -finline-atomics
# -finline-functions -finline-functions-called-once
# -finline-small-functions -fipa-bit-cp -fipa-cp -fipa-cp-clone -fipa-icf
# -fipa-icf-functions -fipa-icf-variables -fipa-profile -fipa-pure-const
# -fipa-ra -fipa-reference -fipa-sra -fipa-vrp -fira-hoist-pressure
# -fira-share-save-slots -fira-share-spill-slots
# -fisolate-erroneous-paths-dereference -fivopts -fkeep-static-consts
# -fleading-underscore -flifetime-dse -flra-remat -flto-odr-type-merging
# -fmath-errno -fmerge-constants -fmerge-debug-strings
# -fmove-loop-invariants -fomit-frame-pointer -foptimize-sibling-calls
# -foptimize-strlen -fpartial-inlining -fpeel-loops -fpeephole -fpeephole2
# -fplt -fpredictive-commoning -fprefetch-loop-arrays -free
# -freg-struct-return -freorder-blocks -freorder-functions
# -frerun-cse-after-loop -fsched-critical-path-heuristic
# -fsched-dep-count-heuristic -fsched-group-heuristic -fsched-interblock
# -fsched-last-insn-heuristic -fsched-rank-heuristic -fsched-spec
# -fsched-spec-insn-heuristic -fsched-stalled-insns-dep -fschedule-fusion
# -fschedule-insns2 -fsemantic-interposition -fshow-column -fshrink-wrap
# -fshrink-wrap-separate -fsigned-zeros -fsplit-ivs-in-unroller
# -fsplit-loops -fsplit-paths -fsplit-wide-types -fssa-backprop
# -fssa-phiopt -fstack-protector-strong -fstdarg-opt -fstore-merging
# -fstrict-aliasing -fstrict-overflow -fstrict-volatile-bitfields
# -fsync-libcalls -fthread-jumps -ftoplevel-reorder -ftrapping-math
# -ftree-bit-ccp -ftree-builtin-call-dce -ftree-ccp -ftree-ch
# -ftree-coalesce-vars -ftree-copy-prop -ftree-cselim -ftree-dce
# -ftree-dominator-opts -ftree-dse -ftree-forwprop -ftree-fre
# -ftree-loop-distribute-patterns -ftree-loop-if-convert -ftree-loop-im
# -ftree-loop-ivcanon -ftree-loop-optimize -ftree-loop-vectorize
# -ftree-parallelize-loops= -ftree-partial-pre -ftree-phiprop -ftree-pre
# -ftree-pta -ftree-reassoc -ftree-scev-cprop -ftree-sink
# -ftree-slp-vectorize -ftree-slsr -ftree-sra -ftree-switch-conversion
# -ftree-tail-merge -ftree-ter -ftree-vrp -funit-at-a-time -funswitch-loops
# -funwind-tables -fvar-tracking -fvar-tracking-assignments -fverbose-asm
# -fzero-initialized-in-bss -m128bit-long-double -m64 -m80387
# -malign-stringops -mavx256-split-unaligned-load
# -mavx256-split-unaligned-store -mfancy-math-387 -mfp-ret-in-387 -mfxsr
# -mglibc -mieee-fp -mlong-double-80 -mmmx -mno-sse4 -mpush-args -mred-zone
# -msse -msse2 -mstv -mtls-direct-seg-refs -mvzeroupper

	.text
.Ltext0:
	.section	.text._ZNKSt5ctypeIcE8do_widenEc,"axG",@progbits,_ZNKSt5ctypeIcE8do_widenEc,comdat
	.align 2
	.p2align 4,,15
	.weak	_ZNKSt5ctypeIcE8do_widenEc
	.type	_ZNKSt5ctypeIcE8do_widenEc, @function
_ZNKSt5ctypeIcE8do_widenEc:
.LFB1321:
	.file 1 "/usr/include/c++/7/bits/locale_facets.h"
	.loc 1 1082 0
	.cfi_startproc
.LVL0:
# /usr/include/c++/7/bits/locale_facets.h:1083:       { return __c; }
	.loc 1 1083 0
	movl	%esi, %eax	# __c,
	ret
	.cfi_endproc
.LFE1321:
	.size	_ZNKSt5ctypeIcE8do_widenEc, .-_ZNKSt5ctypeIcE8do_widenEc
	.text
	.p2align 4,,15
	.globl	_Z5printi
	.type	_Z5printi, @function
_Z5printi:
.LFB1909:
	.file 2 "main.cpp"
	.loc 2 5 0
	.cfi_startproc
.LVL1:
	pushq	%rbp	#
	.cfi_def_cfa_offset 16
	.cfi_offset 6, -16
	pushq	%rbx	#
	.cfi_def_cfa_offset 24
	.cfi_offset 3, -24
	movl	%edi, %esi	# v, v
# main.cpp:6:     std::cout << v << std::endl;
	.loc 2 6 0
	leaq	_ZSt4cout(%rip), %rdi	#,
.LVL2:
# main.cpp:5: {
	.loc 2 5 0
	subq	$8, %rsp	#,
	.cfi_def_cfa_offset 32
# main.cpp:6:     std::cout << v << std::endl;
	.loc 2 6 0
	call	_ZNSolsEi@PLT	#
.LVL3:
	movq	%rax, %rbp	#, _4
.LVL4:
.LBB620:
.LBB621:
.LBB622:
# /usr/include/c++/7/ostream:591:     { return flush(__os.put(__os.widen('\n'))); }
	.file 3 "/usr/include/c++/7/ostream"
	.loc 3 591 0
	movq	(%rax), %rax	# _4->_vptr.basic_ostream, _4->_vptr.basic_ostream
.LVL5:
.LBB623:
.LBB624:
# /usr/include/c++/7/bits/basic_ios.h:450:       { return __check_facet(_M_ctype).widen(__c); }
	.file 4 "/usr/include/c++/7/bits/basic_ios.h"
	.loc 4 450 0
	movq	-24(%rax), %rax	# MEM[(long int *)_6 + -24B], MEM[(long int *)_6 + -24B]
.LVL6:
	movq	240(%rbp,%rax), %rbx	# MEM[(const struct basic_ios *)_9]._M_ctype, _14
.LVL7:
.LBB625:
.LBB626:
# /usr/include/c++/7/bits/basic_ios.h:49:       if (!__f)
	.loc 4 49 0
	testq	%rbx, %rbx	# _14
	je	.L9	#,
.LVL8:
.LBE626:
.LBE625:
.LBB628:
.LBB629:
# /usr/include/c++/7/bits/locale_facets.h:874: 	if (_M_widen_ok)
	.loc 1 874 0
	cmpb	$0, 56(%rbx)	#, MEM[(const struct ctype *)_14]._M_widen_ok
	je	.L5	#,
	movsbl	67(%rbx), %esi	# MEM[(const struct ctype *)_14]._M_widen, _13
.LVL9:
.L6:
.LBE629:
.LBE628:
.LBE624:
.LBE623:
# /usr/include/c++/7/ostream:591:     { return flush(__os.put(__os.widen('\n'))); }
	.loc 3 591 0
	movq	%rbp, %rdi	# _4,
	call	_ZNSo3putEc@PLT	#
.LVL10:
.LBE622:
.LBE621:
.LBE620:
# main.cpp:7: }
	.loc 2 7 0
	addq	$8, %rsp	#,
	.cfi_remember_state
	.cfi_def_cfa_offset 24
.LBB645:
.LBB643:
.LBB641:
.LBB636:
.LBB637:
# /usr/include/c++/7/ostream:613:     { return __os.flush(); }
	.loc 3 613 0
	movq	%rax, %rdi	# _12,
.LBE637:
.LBE636:
.LBE641:
.LBE643:
.LBE645:
# main.cpp:7: }
	.loc 2 7 0
	popq	%rbx	#
	.cfi_def_cfa_offset 16
	popq	%rbp	#
	.cfi_def_cfa_offset 8
.LVL11:
.LBB646:
.LBB644:
.LBB642:
.LBB639:
.LBB638:
# /usr/include/c++/7/ostream:613:     { return __os.flush(); }
	.loc 3 613 0
	jmp	_ZNSo5flushEv@PLT	#
.LVL12:
	.p2align 4,,10
	.p2align 3
.L5:
	.cfi_restore_state
.LBE638:
.LBE639:
.LBB640:
.LBB635:
.LBB633:
.LBB632:
.LBB630:
.LBB631:
# /usr/include/c++/7/bits/locale_facets.h:876: 	this->_M_widen_init();
	.loc 1 876 0
	movq	%rbx, %rdi	# _14,
	call	_ZNKSt5ctypeIcE13_M_widen_initEv@PLT	#
.LVL13:
# /usr/include/c++/7/bits/locale_facets.h:877: 	return this->do_widen(__c);
	.loc 1 877 0
	movq	(%rbx), %rax	# MEM[(const struct ctype *)_14].D.29884._vptr.facet, MEM[(const struct ctype *)_14].D.29884._vptr.facet
	leaq	_ZNKSt5ctypeIcE8do_widenEc(%rip), %rdx	#, tmp105
	movl	$10, %esi	#, _13
	movq	48(%rax), %rax	# MEM[(int (*__vtbl_ptr_type) () *)_23 + 48B], _24
	cmpq	%rdx, %rax	# tmp105, _24
	je	.L6	#,
	movq	%rbx, %rdi	# _14,
	call	*%rax	# _24
.LVL14:
	movsbl	%al, %esi	# _30, _13
	jmp	.L6	#
.LVL15:
.L9:
.LBE631:
.LBE630:
.LBE632:
.LBE633:
.LBB634:
.LBB627:
# /usr/include/c++/7/bits/basic_ios.h:50: 	__throw_bad_cast();
	.loc 4 50 0
	call	_ZSt16__throw_bad_castv@PLT	#
.LVL16:
.LBE627:
.LBE634:
.LBE635:
.LBE640:
.LBE642:
.LBE644:
.LBE646:
	.cfi_endproc
.LFE1909:
	.size	_Z5printi, .-_Z5printi
	.section	.text._ZN9TestInputD2Ev,"axG",@progbits,_ZN9TestInputD5Ev,comdat
	.align 2
	.p2align 4,,15
	.weak	_ZN9TestInputD2Ev
	.type	_ZN9TestInputD2Ev, @function
_ZN9TestInputD2Ev:
.LFB1915:
	.loc 2 10 0
	.cfi_startproc
.LVL17:
	pushq	%rbx	#
	.cfi_def_cfa_offset 16
	.cfi_offset 3, -16
# main.cpp:10: struct TestInput
	.loc 2 10 0
	movq	%rdi, %rbx	# this, this
.LBB647:
.LBB648:
# /usr/include/c++/7/bits/stl_vector.h:434:       { std::_Destroy(this->_M_impl._M_start, this->_M_impl._M_finish,
	.file 5 "/usr/include/c++/7/bits/stl_vector.h"
	.loc 5 434 0
	movq	48(%rdi), %rdi	# MEM[(struct vector *)this_1(D) + 48B].D.41411._M_impl._M_start, _6
.LVL18:
.LBB649:
.LBB650:
.LBB651:
# /usr/include/c++/7/bits/stl_vector.h:179: 	if (__p)
	.loc 5 179 0
	testq	%rdi, %rdi	# _6
	je	.L11	#,
.LVL19:
.LBB652:
.LBB653:
.LBB654:
# /usr/include/c++/7/ext/new_allocator.h:125: 	::operator delete(__p);
	.file 6 "/usr/include/c++/7/ext/new_allocator.h"
	.loc 6 125 0
	call	_ZdlPv@PLT	#
.LVL20:
.L11:
.LBE654:
.LBE653:
.LBE652:
.LBE651:
.LBE650:
.LBE649:
.LBE648:
.LBE647:
.LBB655:
.LBB656:
# /usr/include/c++/7/bits/stl_vector.h:434:       { std::_Destroy(this->_M_impl._M_start, this->_M_impl._M_finish,
	.loc 5 434 0
	movq	24(%rbx), %rdi	# MEM[(struct vector *)this_1(D) + 24B].D.41411._M_impl._M_start, _5
.LVL21:
.LBB657:
.LBB658:
.LBB659:
# /usr/include/c++/7/bits/stl_vector.h:179: 	if (__p)
	.loc 5 179 0
	testq	%rdi, %rdi	# _5
	je	.L12	#,
.LVL22:
.LBB660:
.LBB661:
.LBB662:
# /usr/include/c++/7/ext/new_allocator.h:125: 	::operator delete(__p);
	.loc 6 125 0
	call	_ZdlPv@PLT	#
.LVL23:
.L12:
.LBE662:
.LBE661:
.LBE660:
.LBE659:
.LBE658:
.LBE657:
.LBE656:
.LBE655:
.LBB663:
.LBB664:
# /usr/include/c++/7/bits/stl_vector.h:434:       { std::_Destroy(this->_M_impl._M_start, this->_M_impl._M_finish,
	.loc 5 434 0
	movq	(%rbx), %rdi	# MEM[(struct vector *)this_1(D)].D.41411._M_impl._M_start, _4
.LVL24:
.LBB665:
.LBB666:
.LBB667:
# /usr/include/c++/7/bits/stl_vector.h:179: 	if (__p)
	.loc 5 179 0
	testq	%rdi, %rdi	# _4
	je	.L10	#,
.LVL25:
.LBE667:
.LBE666:
.LBE665:
.LBE664:
.LBE663:
# main.cpp:10: struct TestInput
	.loc 2 10 0
	popq	%rbx	#
	.cfi_remember_state
	.cfi_def_cfa_offset 8
.LVL26:
.LBB675:
.LBB674:
.LBB673:
.LBB672:
.LBB671:
.LBB668:
.LBB669:
.LBB670:
# /usr/include/c++/7/ext/new_allocator.h:125: 	::operator delete(__p);
	.loc 6 125 0
	jmp	_ZdlPv@PLT	#
.LVL27:
	.p2align 4,,10
	.p2align 3
.L10:
	.cfi_restore_state
.LBE670:
.LBE669:
.LBE668:
.LBE671:
.LBE672:
.LBE673:
.LBE674:
.LBE675:
# main.cpp:10: struct TestInput
	.loc 2 10 0
	popq	%rbx	#
	.cfi_def_cfa_offset 8
.LVL28:
	ret
	.cfi_endproc
.LFE1915:
	.size	_ZN9TestInputD2Ev, .-_ZN9TestInputD2Ev
	.weak	_ZN9TestInputD1Ev
	.set	_ZN9TestInputD1Ev,_ZN9TestInputD2Ev
	.section	.rodata._ZNSt6vectorIsSaIsEE6resizeEm.str1.1,"aMS",@progbits,1
.LC0:
	.string	"vector::_M_default_append"
	.section	.text._ZNSt6vectorIsSaIsEE6resizeEm,"axG",@progbits,_ZNSt6vectorIsSaIsEE6resizeEm,comdat
	.align 2
	.p2align 4,,15
	.weak	_ZNSt6vectorIsSaIsEE6resizeEm
	.type	_ZNSt6vectorIsSaIsEE6resizeEm, @function
_ZNSt6vectorIsSaIsEE6resizeEm:
.LFB2166:
	.loc 5 689 0
	.cfi_startproc
.LVL29:
	pushq	%r15	#
	.cfi_def_cfa_offset 16
	.cfi_offset 15, -16
	pushq	%r14	#
	.cfi_def_cfa_offset 24
	.cfi_offset 14, -24
	pushq	%r13	#
	.cfi_def_cfa_offset 32
	.cfi_offset 13, -32
	pushq	%r12	#
	.cfi_def_cfa_offset 40
	.cfi_offset 12, -40
	pushq	%rbp	#
	.cfi_def_cfa_offset 48
	.cfi_offset 6, -48
	pushq	%rbx	#
	.cfi_def_cfa_offset 56
	.cfi_offset 3, -56
	subq	$40, %rsp	#,
	.cfi_def_cfa_offset 96
# /usr/include/c++/7/bits/stl_vector.h:691: 	if (__new_size > size())
	.loc 5 691 0
	movq	8(%rdi), %r13	# MEM[(short int * *)this_6(D) + 8B], prephitmp_77
	movq	(%rdi), %r15	# MEM[(short int * *)this_6(D)], prephitmp_106
.LVL30:
.LBB736:
.LBB737:
# /usr/include/c++/7/bits/stl_vector.h:671:       { return size_type(this->_M_impl._M_finish - this->_M_impl._M_start); }
	.loc 5 671 0
	movq	%r13, %rcx	# prephitmp_77, _13
	subq	%r15, %rcx	# prephitmp_106, _13
	movq	%rcx, %rax	# _13, tmp124
	sarq	%rax	# tmp124
.LBE737:
.LBE736:
# /usr/include/c++/7/bits/stl_vector.h:691: 	if (__new_size > size())
	.loc 5 691 0
	cmpq	%rax, %rsi	# tmp124, __new_size
	ja	.L41	#,
.LVL31:
# /usr/include/c++/7/bits/stl_vector.h:693: 	else if (__new_size < size())
	.loc 5 693 0
	jnb	.L21	#,
.LVL32:
# /usr/include/c++/7/bits/stl_vector.h:694: 	  _M_erase_at_end(this->_M_impl._M_start + __new_size);
	.loc 5 694 0
	leaq	(%r15,%rsi,2), %rax	#, tmp147
.LVL33:
	movq	%rax, 8(%rdi)	# tmp147, MEM[(short int * *)this_6(D) + 8B]
.LVL34:
.L21:
# /usr/include/c++/7/bits/stl_vector.h:695:       }
	.loc 5 695 0
	addq	$40, %rsp	#,
	.cfi_remember_state
	.cfi_def_cfa_offset 56
	popq	%rbx	#
	.cfi_def_cfa_offset 48
	popq	%rbp	#
	.cfi_def_cfa_offset 40
	popq	%r12	#
	.cfi_def_cfa_offset 32
	popq	%r13	#
	.cfi_def_cfa_offset 24
	popq	%r14	#
	.cfi_def_cfa_offset 16
	popq	%r15	#
	.cfi_def_cfa_offset 8
	ret
.LVL35:
	.p2align 4,,10
	.p2align 3
.L41:
	.cfi_restore_state
# /usr/include/c++/7/bits/stl_vector.h:692: 	  _M_default_append(__new_size - size());
	.loc 5 692 0
	movq	%rsi, %rdx	# __new_size, _1
	movq	%rsi, %r12	# __new_size, __new_size
.LBB738:
.LBB739:
# /usr/include/c++/7/bits/vector.tcc:560: 			- this->_M_impl._M_finish) >= __n)
	.file 7 "/usr/include/c++/7/bits/vector.tcc"
	.loc 7 560 0
	movq	16(%rdi), %rsi	# this_6(D)->D.41411._M_impl._M_end_of_storage, tmp125
.LVL36:
.LBE739:
.LBE738:
# /usr/include/c++/7/bits/stl_vector.h:692: 	  _M_default_append(__new_size - size());
	.loc 5 692 0
	subq	%rax, %rdx	# tmp124, _1
.LVL37:
	movq	%rdi, %rbx	# this, this
.LVL38:
.LBB792:
.LBB790:
# /usr/include/c++/7/bits/vector.tcc:560: 			- this->_M_impl._M_finish) >= __n)
	.loc 7 560 0
	subq	%r13, %rsi	# prephitmp_77, tmp125
	sarq	%rsi	# tmp128
# /usr/include/c++/7/bits/vector.tcc:559: 	  if (size_type(this->_M_impl._M_end_of_storage
	.loc 7 559 0
	cmpq	%rsi, %rdx	# tmp128, _1
	ja	.L23	#,
.LVL39:
.LBB740:
.LBB741:
.LBB742:
.LBB743:
.LBB744:
.LBB745:
.LBB746:
.LBB747:
.LBB748:
# /usr/include/c++/7/bits/stl_algobase.h:754: 	*__first = __tmp;
	.file 8 "/usr/include/c++/7/bits/stl_algobase.h"
	.loc 8 754 0
	leaq	(%rdx,%rdx), %rbp	#, _104
	movq	%r13, %rdi	# prephitmp_77,
	xorl	%esi, %esi	#
	movq	%rbp, %rdx	# _104,
.LVL40:
	call	memset@PLT	#
.LVL41:
.LBE748:
.LBE747:
.LBE746:
.LBE745:
.LBE744:
.LBE743:
.LBE742:
.LBE741:
.LBE740:
# /usr/include/c++/7/bits/vector.tcc:562: 	      this->_M_impl._M_finish =
	.loc 7 562 0
	leaq	0(%r13,%rbp), %rdx	#, tmp133
	movq	%rdx, 8(%rbx)	# tmp133, this_6(D)->D.41411._M_impl._M_finish
.LBE790:
.LBE792:
# /usr/include/c++/7/bits/stl_vector.h:695:       }
	.loc 5 695 0
	addq	$40, %rsp	#,
	.cfi_remember_state
	.cfi_def_cfa_offset 56
	popq	%rbx	#
	.cfi_def_cfa_offset 48
.LVL42:
	popq	%rbp	#
	.cfi_def_cfa_offset 40
	popq	%r12	#
	.cfi_def_cfa_offset 32
.LVL43:
	popq	%r13	#
	.cfi_def_cfa_offset 24
.LVL44:
	popq	%r14	#
	.cfi_def_cfa_offset 16
	popq	%r15	#
	.cfi_def_cfa_offset 8
	ret
.LVL45:
	.p2align 4,,10
	.p2align 3
.L23:
	.cfi_restore_state
.LBB793:
.LBB791:
.LBB749:
.LBB750:
.LBB751:
# /usr/include/c++/7/bits/stl_vector.h:1504: 	if (max_size() - size() < __n)
	.loc 5 1504 0
	movabsq	$9223372036854775807, %rsi	#, tmp135
	subq	%rax, %rsi	# tmp124, tmp134
	cmpq	%rsi, %rdx	# tmp134, _1
	ja	.L42	#,
.LVL46:
	cmpq	%rax, %rdx	# tmp124, _1
	movq	%rax, %rsi	# tmp124, tmp136
	cmovnb	%rdx, %rsi	# _1,, tmp136
	addq	%rsi, %rax	# tmp136, tmp137
	jc	.L34	#,
.LVL47:
# /usr/include/c++/7/bits/stl_vector.h:1508: 	return (__len < size() || __len > max_size()) ? max_size() : __len;
	.loc 5 1508 0
	testq	%rax, %rax	# tmp137
	js	.L34	#,
.LVL48:
.LBE751:
.LBE750:
.LBB754:
.LBB755:
# /usr/include/c++/7/bits/stl_vector.h:172: 	return __n != 0 ? _Tr::allocate(_M_impl, __n) : pointer();
	.loc 5 172 0
	je	.L35	#,
	leaq	(%rax,%rax), %rbp	#, prephitmp_107
.LVL49:
.L28:
.LBB756:
.LBB757:
.LBB758:
# /usr/include/c++/7/ext/new_allocator.h:111: 	return static_cast<_Tp*>(::operator new(__n * sizeof(_Tp)));
	.loc 6 111 0
	movq	%rbp, %rdi	# prephitmp_107,
	movq	%rcx, 16(%rsp)	# _13, %sfp
	movq	%rdx, 8(%rsp)	# _1, %sfp
.LVL50:
	call	_Znwm@PLT	#
.LVL51:
	movq	8(%rbx), %r13	# this_6(D)->D.41411._M_impl._M_finish, prephitmp_77
	movq	(%rbx), %r15	# this_6(D)->D.41411._M_impl._M_start, prephitmp_106
	movq	%rax, %r14	#, _58
	movq	8(%rsp), %rdx	# %sfp, _1
	movq	16(%rsp), %rcx	# %sfp, _13
	addq	%r14, %rbp	# _58, _56
	movq	%r13, %rax	# prephitmp_77, _74
	subq	%r15, %rax	# prephitmp_106, _74
	movq	%rax, 24(%rsp)	# _74, %sfp
.LVL52:
.L29:
	leaq	(%r14,%rcx), %rdi	#, tmp139
.LBE758:
.LBE757:
.LBE756:
.LBE755:
.LBE754:
.LBB760:
.LBB761:
.LBB762:
.LBB763:
.LBB764:
.LBB765:
.LBB766:
.LBB767:
.LBB768:
# /usr/include/c++/7/bits/stl_algobase.h:754: 	*__first = __tmp;
	.loc 8 754 0
	addq	%rdx, %rdx	# tmp138
.LVL53:
	xorl	%esi, %esi	#
	call	memset@PLT	#
.LVL54:
.LBE768:
.LBE767:
.LBE766:
.LBE765:
.LBE764:
.LBE763:
.LBE762:
.LBE761:
.LBE760:
.LBB769:
.LBB770:
.LBB771:
.LBB772:
.LBB773:
.LBB774:
.LBB775:
.LBB776:
.LBB777:
.LBB778:
.LBB779:
# /usr/include/c++/7/bits/stl_algobase.h:367: 	  if (_Num)
	.loc 8 367 0
	cmpq	%r13, %r15	# prephitmp_77, prephitmp_106
	je	.L30	#,
# /usr/include/c++/7/bits/stl_algobase.h:368: 	    __builtin_memmove(__result, __first, sizeof(_Tp) * _Num);
	.loc 8 368 0
	movq	24(%rsp), %rdx	# %sfp,
	movq	%r15, %rsi	# prephitmp_106,
	movq	%r14, %rdi	# _58,
	call	memmove@PLT	#
.LVL55:
.L31:
.LBE779:
.LBE778:
.LBE777:
.LBE776:
.LBE775:
.LBE774:
.LBE773:
.LBE772:
.LBE771:
.LBE770:
.LBE769:
.LBB780:
.LBB781:
.LBB782:
.LBB783:
.LBB784:
# /usr/include/c++/7/ext/new_allocator.h:125: 	::operator delete(__p);
	.loc 6 125 0
	movq	%r15, %rdi	# prephitmp_106,
	call	_ZdlPv@PLT	#
.LVL56:
.L32:
.LBE784:
.LBE783:
.LBE782:
.LBE781:
.LBE780:
# /usr/include/c++/7/bits/vector.tcc:596: 	      this->_M_impl._M_finish = __new_start + __size + __n;
	.loc 7 596 0
	leaq	(%r14,%r12,2), %rax	#, tmp145
# /usr/include/c++/7/bits/vector.tcc:595: 	      this->_M_impl._M_start = __new_start;
	.loc 7 595 0
	movq	%r14, (%rbx)	# _58, this_6(D)->D.41411._M_impl._M_start
# /usr/include/c++/7/bits/vector.tcc:597: 	      this->_M_impl._M_end_of_storage = __new_start + __len;
	.loc 7 597 0
	movq	%rbp, 16(%rbx)	# _56, this_6(D)->D.41411._M_impl._M_end_of_storage
# /usr/include/c++/7/bits/vector.tcc:596: 	      this->_M_impl._M_finish = __new_start + __size + __n;
	.loc 7 596 0
	movq	%rax, 8(%rbx)	# tmp145, this_6(D)->D.41411._M_impl._M_finish
	jmp	.L21	#
.LVL57:
	.p2align 4,,10
	.p2align 3
.L34:
.LBB786:
.LBB752:
# /usr/include/c++/7/bits/stl_vector.h:1508: 	return (__len < size() || __len > max_size()) ? max_size() : __len;
	.loc 5 1508 0
	movq	$-2, %rbp	#, prephitmp_107
	jmp	.L28	#
.LVL58:
	.p2align 4,,10
	.p2align 3
.L30:
.LBE752:
.LBE786:
.LBB787:
.LBB785:
# /usr/include/c++/7/bits/stl_vector.h:179: 	if (__p)
	.loc 5 179 0
	testq	%r15, %r15	# prephitmp_106
	je	.L32	#,
	jmp	.L31	#
.LVL59:
.L35:
.LBE785:
.LBE787:
.LBB788:
.LBB759:
# /usr/include/c++/7/bits/stl_vector.h:172: 	return __n != 0 ? _Tr::allocate(_M_impl, __n) : pointer();
	.loc 5 172 0
	movq	%rcx, 24(%rsp)	# _13, %sfp
	xorl	%ebp, %ebp	# _56
	xorl	%r14d, %r14d	# _58
	jmp	.L29	#
.LVL60:
.L42:
.LBE759:
.LBE788:
.LBB789:
.LBB753:
# /usr/include/c++/7/bits/stl_vector.h:1505: 	  __throw_length_error(__N(__s));
	.loc 5 1505 0
	leaq	.LC0(%rip), %rdi	#,
	call	_ZSt20__throw_length_errorPKc@PLT	#
.LVL61:
.LBE753:
.LBE789:
.LBE749:
.LBE791:
.LBE793:
	.cfi_endproc
.LFE2166:
	.size	_ZNSt6vectorIsSaIsEE6resizeEm, .-_ZNSt6vectorIsSaIsEE6resizeEm
	.section	.rodata.str1.1,"aMS",@progbits,1
.LC1:
	.string	"Size input.data1: "
.LC2:
	.string	"Size input.data2: "
.LC3:
	.string	"Size input.data3: "
.LC4:
	.string	"Size MainTest: "
.LC5:
	.string	"Size test.output.data1: "
.LC6:
	.string	"Size test.output.data2: "
.LC7:
	.string	"Size test.output.data3: "
	.section	.text.startup,"ax",@progbits
	.p2align 4,,15
	.globl	main
	.type	main, @function
main:
.LFB1910:
	.loc 2 33 0
	.cfi_startproc
	.cfi_personality 0x9b,DW.ref.__gxx_personality_v0
	.cfi_lsda 0x1b,.LLSDA1910
	pushq	%r15	#
	.cfi_def_cfa_offset 16
	.cfi_offset 15, -16
	pushq	%r14	#
	.cfi_def_cfa_offset 24
	.cfi_offset 14, -24
	pushq	%r13	#
	.cfi_def_cfa_offset 32
	.cfi_offset 13, -32
	pushq	%r12	#
	.cfi_def_cfa_offset 40
	.cfi_offset 12, -40
	pushq	%rbp	#
	.cfi_def_cfa_offset 48
	.cfi_offset 6, -48
	pushq	%rbx	#
	.cfi_def_cfa_offset 56
	.cfi_offset 3, -56
.LBB1060:
# main.cpp:35:     for (int joana1 = 0; joana1 < sizeTest; joana1++)
	.loc 2 35 0
	xorl	%ebp, %ebp	# joana1
.LBE1060:
.LBB1341:
.LBB1342:
.LBB1343:
.LBB1344:
.LBB1345:
.LBB1346:
# /usr/include/c++/7/bits/stl_vector.h:89: 	: _Tp_alloc_type(), _M_start(), _M_finish(), _M_end_of_storage()
	.loc 5 89 0
	xorl	%ebx, %ebx	# pretmp_123
.LBE1346:
.LBE1345:
.LBE1344:
.LBE1343:
.LBE1342:
.LBE1341:
# main.cpp:33: {
	.loc 2 33 0
	subq	$136, %rsp	#,
	.cfi_def_cfa_offset 192
	leaq	48(%rsp), %rdx	#, tmp315
.LBB1367:
.LBB1351:
.LBB1352:
.LBB1353:
.LBB1354:
.LBB1355:
# /usr/include/c++/7/bits/stl_vector.h:89: 	: _Tp_alloc_type(), _M_start(), _M_finish(), _M_end_of_storage()
	.loc 5 89 0
	movq	$0, 48(%rsp)	#, MEM[(struct _Vector_impl *)&input]._M_start
	movq	$0, 56(%rsp)	#, MEM[(struct _Vector_impl *)&input]._M_finish
.LBE1355:
.LBE1354:
.LBE1353:
.LBE1352:
.LBE1351:
.LBE1367:
# main.cpp:33: {
	.loc 2 33 0
	movq	%fs:40, %rax	#, tmp279
	movq	%rax, 120(%rsp)	# tmp279, D.48805
	xorl	%eax, %eax	# tmp279
.LVL62:
.LBB1368:
.LBB1360:
.LBB1359:
.LBB1358:
.LBB1357:
.LBB1356:
# /usr/include/c++/7/bits/stl_vector.h:89: 	: _Tp_alloc_type(), _M_start(), _M_finish(), _M_end_of_storage()
	.loc 5 89 0
	movq	$0, 64(%rsp)	#, MEM[(struct _Vector_impl *)&input]._M_end_of_storage
.LVL63:
.LBE1356:
.LBE1357:
.LBE1358:
.LBE1359:
.LBE1360:
.LBB1361:
.LBB1362:
.LBB1363:
.LBB1364:
.LBB1365:
	movq	$0, 72(%rsp)	#, MEM[(struct _Vector_impl *)&input + 24B]._M_start
	movq	$0, 80(%rsp)	#, MEM[(struct _Vector_impl *)&input + 24B]._M_finish
	movq	$0, 88(%rsp)	#, MEM[(struct _Vector_impl *)&input + 24B]._M_end_of_storage
.LVL64:
.LBE1365:
.LBE1364:
.LBE1363:
.LBE1362:
.LBE1361:
.LBB1366:
.LBB1350:
.LBB1349:
.LBB1348:
.LBB1347:
	movq	$0, 96(%rsp)	#, MEM[(struct _Vector_impl *)&input + 48B]._M_start
	movq	$0, 104(%rsp)	#, MEM[(struct _Vector_impl *)&input + 48B]._M_finish
	movq	$0, 112(%rsp)	#, MEM[(struct _Vector_impl *)&input + 48B]._M_end_of_storage
.LVL65:
	movq	%rdx, 8(%rsp)	# tmp315, %sfp
	jmp	.L69	#
.LVL66:
	.p2align 4,,10
	.p2align 3
.L108:
.LBE1347:
.LBE1348:
.LBE1349:
.LBE1350:
.LBE1366:
.LBE1368:
.LBB1369:
.LBB1061:
.LBB1062:
.LBB1063:
.LBB1064:
.LBB1065:
.LBB1066:
# /usr/include/c++/7/ext/new_allocator.h:136: 	{ ::new((void *)__p) _Up(std::forward<_Args>(__args)...); }
	.loc 6 136 0
	testq	%rbx, %rbx	# pretmp_123
	je	.L45	#,
	movw	%bp, (%rbx)	# joana1, *prephitmp_270
.L45:
.LVL67:
.LBE1066:
.LBE1065:
.LBE1064:
# /usr/include/c++/7/bits/vector.tcc:102: 	    ++this->_M_impl._M_finish;
	.loc 7 102 0
	addq	$2, %rbx	#, tmp212
	movq	%rbx, 56(%rsp)	# tmp212, MEM[(struct vector *)&input].D.41411._M_impl._M_finish
.LVL68:
.LBE1063:
.LBE1062:
.LBE1061:
.LBB1145:
.LBB1146:
.LBB1147:
# /usr/include/c++/7/bits/vector.tcc:98: 	if (this->_M_impl._M_finish != this->_M_impl._M_end_of_storage)
	.loc 7 98 0
	movq	80(%rsp), %rbx	# MEM[(struct vector *)&input + 24B].D.41411._M_impl._M_finish, _134
	cmpq	88(%rsp), %rbx	# MEM[(struct vector *)&input + 24B].D.41411._M_impl._M_end_of_storage, _134
	je	.L52	#,
.LVL69:
.L110:
.LBB1148:
.LBB1149:
.LBB1150:
# /usr/include/c++/7/ext/new_allocator.h:136: 	{ ::new((void *)__p) _Up(std::forward<_Args>(__args)...); }
	.loc 6 136 0
	testq	%rbx, %rbx	# _134
	je	.L53	#,
	movw	%r12w, (%rbx)	# _1, *_134
.L53:
.LVL70:
.LBE1150:
.LBE1149:
.LBE1148:
# /usr/include/c++/7/bits/vector.tcc:102: 	    ++this->_M_impl._M_finish;
	.loc 7 102 0
	addq	$2, %rbx	#, tmp217
	movq	%rbx, 80(%rsp)	# tmp217, MEM[(struct vector *)&input + 24B].D.41411._M_impl._M_finish
.LVL71:
.LBE1147:
.LBE1146:
.LBE1145:
.LBB1231:
.LBB1232:
.LBB1233:
# /usr/include/c++/7/bits/vector.tcc:98: 	if (this->_M_impl._M_finish != this->_M_impl._M_end_of_storage)
	.loc 7 98 0
	movq	104(%rsp), %rbx	# MEM[(struct vector *)&input + 48B].D.41411._M_impl._M_finish, _182
	cmpq	112(%rsp), %rbx	# MEM[(struct vector *)&input + 48B].D.41411._M_impl._M_end_of_storage, _182
	je	.L60	#,
.LVL72:
.L112:
.LBB1234:
.LBB1235:
.LBB1236:
# /usr/include/c++/7/ext/new_allocator.h:136: 	{ ::new((void *)__p) _Up(std::forward<_Args>(__args)...); }
	.loc 6 136 0
	testq	%rbx, %rbx	# _182
	je	.L61	#,
	movw	%r12w, (%rbx)	# _1, *_182
.L61:
.LVL73:
.LBE1236:
.LBE1235:
.LBE1234:
.LBE1233:
.LBE1232:
.LBE1231:
# main.cpp:35:     for (int joana1 = 0; joana1 < sizeTest; joana1++)
	.loc 2 35 0
	addl	$1, %ebp	#, joana1
.LVL74:
.LBB1323:
.LBB1315:
.LBB1307:
# /usr/include/c++/7/bits/vector.tcc:102: 	    ++this->_M_impl._M_finish;
	.loc 7 102 0
	addq	$2, %rbx	#, tmp221
.LBE1307:
.LBE1315:
.LBE1323:
# main.cpp:35:     for (int joana1 = 0; joana1 < sizeTest; joana1++)
	.loc 2 35 0
	cmpl	$90, %ebp	#, joana1
.LBB1324:
.LBB1316:
.LBB1308:
# /usr/include/c++/7/bits/vector.tcc:102: 	    ++this->_M_impl._M_finish;
	.loc 7 102 0
	movq	%rbx, 104(%rsp)	# tmp221, MEM[(struct vector *)&input + 48B].D.41411._M_impl._M_finish
.LVL75:
.LBE1308:
.LBE1316:
.LBE1324:
# main.cpp:35:     for (int joana1 = 0; joana1 < sizeTest; joana1++)
	.loc 2 35 0
	je	.L68	#,
.LVL76:
.L114:
	movq	56(%rsp), %rbx	# MEM[(struct vector *)&input].D.41411._M_impl._M_finish, pretmp_123
	movq	64(%rsp), %rax	# MEM[(struct vector *)&input].D.41411._M_impl._M_end_of_storage, prephitmp_171
.LVL77:
.L69:
.LBB1325:
.LBB1140:
.LBB1135:
# /usr/include/c++/7/bits/vector.tcc:98: 	if (this->_M_impl._M_finish != this->_M_impl._M_end_of_storage)
	.loc 7 98 0
	cmpq	%rbx, %rax	# pretmp_123, prephitmp_171
.LBE1135:
.LBE1140:
.LBE1325:
# main.cpp:37:         input.data1.push_back(joana1);
	.loc 2 37 0
	movl	%ebp, %r12d	# joana1, _1
.LVL78:
.LBB1326:
.LBB1141:
.LBB1136:
# /usr/include/c++/7/bits/vector.tcc:98: 	if (this->_M_impl._M_finish != this->_M_impl._M_end_of_storage)
	.loc 7 98 0
	jne	.L108	#,
.LVL79:
.LBB1067:
.LBB1068:
.LBB1069:
.LBB1070:
# /usr/include/c++/7/bits/stl_vector.h:1504: 	if (max_size() - size() < __n)
	.loc 5 1504 0
	movq	48(%rsp), %rcx	# MEM[(short int * *)&input], pretmp_88
.LVL80:
.LBB1071:
.LBB1072:
# /usr/include/c++/7/bits/stl_vector.h:671:       { return size_type(this->_M_impl._M_finish - this->_M_impl._M_start); }
	.loc 5 671 0
	movq	%rbx, %r14	# pretmp_123, _120
	subq	%rcx, %r14	# pretmp_88, _120
.LBE1072:
.LBE1071:
.LBB1073:
.LBB1074:
# /usr/include/c++/7/bits/stl_algobase.h:224:       if (__a < __b)
	.loc 8 224 0
	movq	%r14, %rax	# _120, tmp213
	sarq	%rax	# tmp213
	je	.L75	#,
.LVL81:
.LBE1074:
.LBE1073:
# /usr/include/c++/7/bits/stl_vector.h:1508: 	return (__len < size() || __len > max_size()) ? max_size() : __len;
	.loc 5 1508 0
	cmpq	%r14, %rax	# _120, tmp213
# /usr/include/c++/7/bits/stl_vector.h:1507: 	const size_type __len = size() + std::max(size(), __n);
	.loc 5 1507 0
	movq	%r14, %r8	# _120, __len
.LVL82:
# /usr/include/c++/7/bits/stl_vector.h:1508: 	return (__len < size() || __len > max_size()) ? max_size() : __len;
	.loc 5 1508 0
	movq	$-2, %r15	#, prephitmp_310
	jbe	.L109	#,
.LVL83:
.L47:
.LBE1070:
.LBE1069:
.LBB1079:
.LBB1080:
.LBB1081:
.LBB1082:
.LBB1083:
# /usr/include/c++/7/ext/new_allocator.h:111: 	return static_cast<_Tp*>(::operator new(__n * sizeof(_Tp)));
	.loc 6 111 0
	movq	%r15, %rdi	# prephitmp_310,
	movq	8(%rsp), %r13	# %sfp, tmp250
.LEHB0:
	call	_Znwm@PLT	#
.LVL84:
	movq	56(%rsp), %r9	# MEM[(struct vector *)&input].D.41411._M_impl._M_finish, prephitmp_253
	movq	48(%rsp), %rcx	# MEM[(struct vector *)&input].D.41411._M_impl._M_start, pretmp_88
	movq	%rax, %r13	#, _132
	movq	%rbx, %r8	# pretmp_123, __len
	addq	%r13, %r15	# _132, prephitmp_226
.LVL85:
	movq	%r9, %rax	# prephitmp_253, prephitmp_251
.LVL86:
	subq	%rcx, %r8	# pretmp_88, __len
	subq	%rbx, %rax	# pretmp_123, prephitmp_251
.LBE1083:
.LBE1082:
.LBE1081:
.LBE1080:
.LBE1079:
.LBB1085:
.LBB1086:
.LBB1087:
# /usr/include/c++/7/ext/new_allocator.h:136: 	{ ::new((void *)__p) _Up(std::forward<_Args>(__args)...); }
	.loc 6 136 0
	addq	%r13, %r14	# _132, _98
.LVL87:
	movq	%rax, 16(%rsp)	# prephitmp_251, %sfp
	je	.L48	#,
	movw	%r12w, (%r14)	# _1, *_98
.LVL88:
.L48:
.LBE1087:
.LBE1086:
.LBE1085:
.LBB1088:
.LBB1089:
.LBB1090:
.LBB1091:
.LBB1092:
.LBB1093:
.LBB1094:
.LBB1095:
.LBB1096:
.LBB1097:
.LBB1098:
# /usr/include/c++/7/bits/stl_algobase.h:367: 	  if (_Num)
	.loc 8 367 0
	cmpq	%rcx, %rbx	# pretmp_88, pretmp_123
	je	.L49	#,
# /usr/include/c++/7/bits/stl_algobase.h:368: 	    __builtin_memmove(__result, __first, sizeof(_Tp) * _Num);
	.loc 8 368 0
	movq	%r8, %rdx	# __len,
	movq	%rcx, %rsi	# pretmp_88,
	movq	%r13, %rdi	# _132,
	movq	%r9, 40(%rsp)	# prephitmp_253, %sfp
	movq	%r8, 32(%rsp)	# __len, %sfp
	movq	%rcx, 24(%rsp)	# pretmp_88, %sfp
	call	memmove@PLT	#
.LVL89:
	movq	40(%rsp), %r9	# %sfp, prephitmp_253
	movq	32(%rsp), %r8	# %sfp, __len
	movq	24(%rsp), %rcx	# %sfp, pretmp_88
.L49:
.LVL90:
.LBE1098:
.LBE1097:
.LBE1096:
.LBE1095:
.LBE1094:
.LBE1093:
.LBE1092:
.LBE1091:
.LBE1090:
.LBE1089:
.LBE1088:
.LBB1099:
.LBB1100:
.LBB1101:
.LBB1102:
.LBB1103:
.LBB1104:
.LBB1105:
.LBB1106:
.LBB1107:
.LBB1108:
.LBB1109:
# /usr/include/c++/7/bits/stl_algobase.h:367: 	  if (_Num)
	.loc 8 367 0
	cmpq	%r9, %rbx	# prephitmp_253, pretmp_123
.LBE1109:
.LBE1108:
.LBE1107:
.LBE1106:
.LBE1105:
.LBE1104:
.LBE1103:
.LBE1102:
.LBE1101:
.LBE1100:
.LBE1099:
# /usr/include/c++/7/bits/vector.tcc:429: 	  ++__new_finish;
	.loc 7 429 0
	leaq	2(%r13,%r8), %r8	#, __new_finish
.LVL91:
.LBB1120:
.LBB1119:
.LBB1118:
.LBB1117:
.LBB1116:
.LBB1115:
.LBB1114:
.LBB1113:
.LBB1112:
.LBB1111:
.LBB1110:
# /usr/include/c++/7/bits/stl_algobase.h:367: 	  if (_Num)
	.loc 8 367 0
	je	.L50	#,
# /usr/include/c++/7/bits/stl_algobase.h:368: 	    __builtin_memmove(__result, __first, sizeof(_Tp) * _Num);
	.loc 8 368 0
	movq	16(%rsp), %rdx	# %sfp,
	movq	%r8, %rdi	# __new_finish,
	movq	%rbx, %rsi	# pretmp_123,
	movq	%rcx, 24(%rsp)	# pretmp_88, %sfp
	call	memmove@PLT	#
.LVL92:
	movq	24(%rsp), %rcx	# %sfp, pretmp_88
	movq	%rax, %r8	#, __new_finish
.L50:
# /usr/include/c++/7/bits/stl_algobase.h:369: 	  return __result + _Num;
	.loc 8 369 0
	movq	16(%rsp), %rbx	# %sfp, prephitmp_251
	addq	%r8, %rbx	# __new_finish, prephitmp_251
.LVL93:
.LBE1110:
.LBE1111:
.LBE1112:
.LBE1113:
.LBE1114:
.LBE1115:
.LBE1116:
.LBE1117:
.LBE1118:
.LBE1119:
.LBE1120:
.LBB1121:
.LBB1122:
# /usr/include/c++/7/bits/stl_vector.h:179: 	if (__p)
	.loc 5 179 0
	testq	%rcx, %rcx	# pretmp_88
	je	.L51	#,
.LVL94:
.LBB1123:
.LBB1124:
.LBB1125:
# /usr/include/c++/7/ext/new_allocator.h:125: 	::operator delete(__p);
	.loc 6 125 0
	movq	%rcx, %rdi	# pretmp_88,
	call	_ZdlPv@PLT	#
.LVL95:
.L51:
.LBE1125:
.LBE1124:
.LBE1123:
.LBE1122:
.LBE1121:
# /usr/include/c++/7/bits/vector.tcc:451:       this->_M_impl._M_start = __new_start;
	.loc 7 451 0
	movq	%r13, 16(%rsp)	# _132, %sfp
# /usr/include/c++/7/bits/vector.tcc:453:       this->_M_impl._M_end_of_storage = __new_start + __len;
	.loc 7 453 0
	movq	%r15, 64(%rsp)	# prephitmp_226, MEM[(struct vector *)&input].D.41411._M_impl._M_end_of_storage
.LVL96:
# /usr/include/c++/7/bits/vector.tcc:451:       this->_M_impl._M_start = __new_start;
	.loc 7 451 0
	movq	16(%rsp), %xmm0	# %sfp, tmp216
	movq	%rbx, 16(%rsp)	# _112, %sfp
.LBE1068:
.LBE1067:
.LBE1136:
.LBE1141:
.LBE1326:
.LBB1327:
.LBB1226:
.LBB1221:
# /usr/include/c++/7/bits/vector.tcc:98: 	if (this->_M_impl._M_finish != this->_M_impl._M_end_of_storage)
	.loc 7 98 0
	movq	80(%rsp), %rbx	# MEM[(struct vector *)&input + 24B].D.41411._M_impl._M_finish, _134
.LVL97:
	cmpq	88(%rsp), %rbx	# MEM[(struct vector *)&input + 24B].D.41411._M_impl._M_end_of_storage, _134
.LBE1221:
.LBE1226:
.LBE1327:
.LBB1328:
.LBB1142:
.LBB1137:
.LBB1132:
.LBB1129:
# /usr/include/c++/7/bits/vector.tcc:451:       this->_M_impl._M_start = __new_start;
	.loc 7 451 0
	movhps	16(%rsp), %xmm0	# %sfp, tmp216
	movaps	%xmm0, 48(%rsp)	# tmp216, MEM[(short int * *)&input]
.LBE1129:
.LBE1132:
.LBE1137:
.LBE1142:
.LBE1328:
.LBB1329:
.LBB1227:
.LBB1222:
# /usr/include/c++/7/bits/vector.tcc:98: 	if (this->_M_impl._M_finish != this->_M_impl._M_end_of_storage)
	.loc 7 98 0
	jne	.L110	#,
.LVL98:
	.p2align 4,,10
	.p2align 3
.L52:
.LBB1151:
.LBB1152:
.LBB1153:
.LBB1154:
.LBB1155:
.LBB1156:
# /usr/include/c++/7/bits/stl_vector.h:671:       { return size_type(this->_M_impl._M_finish - this->_M_impl._M_start); }
	.loc 5 671 0
	movq	%rbx, %r14	# _134, _168
.LBE1156:
.LBE1155:
# /usr/include/c++/7/bits/stl_vector.h:1504: 	if (max_size() - size() < __n)
	.loc 5 1504 0
	movq	72(%rsp), %rcx	# MEM[(short int * *)&input + 24B], pretmp_192
.LVL99:
.LBB1158:
.LBB1157:
# /usr/include/c++/7/bits/stl_vector.h:671:       { return size_type(this->_M_impl._M_finish - this->_M_impl._M_start); }
	.loc 5 671 0
	subq	%rcx, %r14	# pretmp_192, _168
.LBE1157:
.LBE1158:
.LBB1159:
.LBB1160:
# /usr/include/c++/7/bits/stl_algobase.h:224:       if (__a < __b)
	.loc 8 224 0
	movq	%r14, %rax	# _168, tmp218
	sarq	%rax	# tmp218
	je	.L79	#,
.LVL100:
.LBE1160:
.LBE1159:
# /usr/include/c++/7/bits/stl_vector.h:1508: 	return (__len < size() || __len > max_size()) ? max_size() : __len;
	.loc 5 1508 0
	cmpq	%r14, %rax	# _168, tmp218
# /usr/include/c++/7/bits/stl_vector.h:1507: 	const size_type __len = size() + std::max(size(), __n);
	.loc 5 1507 0
	movq	%r14, %r9	# _168, __len
.LVL101:
# /usr/include/c++/7/bits/stl_vector.h:1508: 	return (__len < size() || __len > max_size()) ? max_size() : __len;
	.loc 5 1508 0
	movq	$-2, %r15	#, prephitmp_297
	jbe	.L111	#,
.LVL102:
.L55:
.LBE1154:
.LBE1153:
.LBB1165:
.LBB1166:
.LBB1167:
.LBB1168:
.LBB1169:
# /usr/include/c++/7/ext/new_allocator.h:111: 	return static_cast<_Tp*>(::operator new(__n * sizeof(_Tp)));
	.loc 6 111 0
	movq	%r15, %rdi	# prephitmp_297,
	movq	8(%rsp), %r13	# %sfp, tmp250
	call	_Znwm@PLT	#
.LVL103:
	movq	80(%rsp), %r10	# MEM[(struct vector *)&input + 24B].D.41411._M_impl._M_finish, _136
	movq	72(%rsp), %rcx	# MEM[(struct vector *)&input + 24B].D.41411._M_impl._M_start, pretmp_192
	movq	%rbx, %r9	# _134, __len
	addq	%rax, %r15	# _180, prephitmp_289
.LVL104:
	movq	%rax, %r8	#, _180
	movq	%r10, %r13	# _136, prephitmp_273
	subq	%rcx, %r9	# pretmp_192, __len
	subq	%rbx, %r13	# _134, prephitmp_273
.LBE1169:
.LBE1168:
.LBE1167:
.LBE1166:
.LBE1165:
.LBB1171:
.LBB1172:
.LBB1173:
# /usr/include/c++/7/ext/new_allocator.h:136: 	{ ::new((void *)__p) _Up(std::forward<_Args>(__args)...); }
	.loc 6 136 0
	addq	%rax, %r14	# _180, _146
.LVL105:
	je	.L56	#,
	movw	%r12w, (%r14)	# _1, *_146
.LVL106:
.L56:
.LBE1173:
.LBE1172:
.LBE1171:
.LBB1174:
.LBB1175:
.LBB1176:
.LBB1177:
.LBB1178:
.LBB1179:
.LBB1180:
.LBB1181:
.LBB1182:
.LBB1183:
.LBB1184:
# /usr/include/c++/7/bits/stl_algobase.h:367: 	  if (_Num)
	.loc 8 367 0
	cmpq	%rcx, %rbx	# pretmp_192, _134
	je	.L57	#,
# /usr/include/c++/7/bits/stl_algobase.h:368: 	    __builtin_memmove(__result, __first, sizeof(_Tp) * _Num);
	.loc 8 368 0
	movq	%r9, %rdx	# __len,
	movq	%rcx, %rsi	# pretmp_192,
	movq	%r8, %rdi	# _180,
	movq	%r10, 32(%rsp)	# _136, %sfp
	movq	%r9, 24(%rsp)	# __len, %sfp
	movq	%rcx, 16(%rsp)	# pretmp_192, %sfp
	call	memmove@PLT	#
.LVL107:
	movq	32(%rsp), %r10	# %sfp, _136
	movq	24(%rsp), %r9	# %sfp, __len
	movq	%rax, %r8	#, _180
	movq	16(%rsp), %rcx	# %sfp, pretmp_192
.L57:
.LVL108:
.LBE1184:
.LBE1183:
.LBE1182:
.LBE1181:
.LBE1180:
.LBE1179:
.LBE1178:
.LBE1177:
.LBE1176:
.LBE1175:
.LBE1174:
.LBB1185:
.LBB1186:
.LBB1187:
.LBB1188:
.LBB1189:
.LBB1190:
.LBB1191:
.LBB1192:
.LBB1193:
.LBB1194:
.LBB1195:
# /usr/include/c++/7/bits/stl_algobase.h:367: 	  if (_Num)
	.loc 8 367 0
	cmpq	%r10, %rbx	# _136, _134
.LBE1195:
.LBE1194:
.LBE1193:
.LBE1192:
.LBE1191:
.LBE1190:
.LBE1189:
.LBE1188:
.LBE1187:
.LBE1186:
.LBE1185:
# /usr/include/c++/7/bits/vector.tcc:429: 	  ++__new_finish;
	.loc 7 429 0
	leaq	2(%r8,%r9), %r9	#, __new_finish
.LVL109:
.LBB1206:
.LBB1205:
.LBB1204:
.LBB1203:
.LBB1202:
.LBB1201:
.LBB1200:
.LBB1199:
.LBB1198:
.LBB1197:
.LBB1196:
# /usr/include/c++/7/bits/stl_algobase.h:367: 	  if (_Num)
	.loc 8 367 0
	je	.L58	#,
# /usr/include/c++/7/bits/stl_algobase.h:368: 	    __builtin_memmove(__result, __first, sizeof(_Tp) * _Num);
	.loc 8 368 0
	movq	%r9, %rdi	# __new_finish,
	movq	%r13, %rdx	# prephitmp_273,
	movq	%rbx, %rsi	# _134,
	movq	%rcx, 24(%rsp)	# pretmp_192, %sfp
	movq	%r8, 16(%rsp)	# _180, %sfp
	call	memmove@PLT	#
.LVL110:
	movq	24(%rsp), %rcx	# %sfp, pretmp_192
	movq	16(%rsp), %r8	# %sfp, _180
	movq	%rax, %r9	#, __new_finish
.L58:
# /usr/include/c++/7/bits/stl_algobase.h:369: 	  return __result + _Num;
	.loc 8 369 0
	addq	%r9, %r13	# __new_finish, _160
.LVL111:
.LBE1196:
.LBE1197:
.LBE1198:
.LBE1199:
.LBE1200:
.LBE1201:
.LBE1202:
.LBE1203:
.LBE1204:
.LBE1205:
.LBE1206:
.LBB1207:
.LBB1208:
# /usr/include/c++/7/bits/stl_vector.h:179: 	if (__p)
	.loc 5 179 0
	testq	%rcx, %rcx	# pretmp_192
	je	.L59	#,
.LBB1209:
.LBB1210:
.LBB1211:
# /usr/include/c++/7/ext/new_allocator.h:125: 	::operator delete(__p);
	.loc 6 125 0
	movq	%rcx, %rdi	# pretmp_192,
	movq	%r8, 16(%rsp)	# _180, %sfp
.LVL112:
	call	_ZdlPv@PLT	#
.LVL113:
	movq	16(%rsp), %r8	# %sfp, _180
.L59:
.LBE1211:
.LBE1210:
.LBE1209:
.LBE1208:
.LBE1207:
.LBE1152:
.LBE1151:
.LBE1222:
.LBE1227:
.LBE1329:
.LBB1330:
.LBB1317:
.LBB1309:
# /usr/include/c++/7/bits/vector.tcc:98: 	if (this->_M_impl._M_finish != this->_M_impl._M_end_of_storage)
	.loc 7 98 0
	movq	104(%rsp), %rbx	# MEM[(struct vector *)&input + 48B].D.41411._M_impl._M_finish, _182
.LVL114:
	cmpq	112(%rsp), %rbx	# MEM[(struct vector *)&input + 48B].D.41411._M_impl._M_end_of_storage, _182
.LBE1309:
.LBE1317:
.LBE1330:
.LBB1331:
.LBB1228:
.LBB1223:
.LBB1218:
.LBB1215:
# /usr/include/c++/7/bits/vector.tcc:451:       this->_M_impl._M_start = __new_start;
	.loc 7 451 0
	movq	%r8, 72(%rsp)	# _180, MEM[(struct vector *)&input + 24B].D.41411._M_impl._M_start
# /usr/include/c++/7/bits/vector.tcc:452:       this->_M_impl._M_finish = __new_finish;
	.loc 7 452 0
	movq	%r13, 80(%rsp)	# _160, MEM[(struct vector *)&input + 24B].D.41411._M_impl._M_finish
# /usr/include/c++/7/bits/vector.tcc:453:       this->_M_impl._M_end_of_storage = __new_start + __len;
	.loc 7 453 0
	movq	%r15, 88(%rsp)	# prephitmp_289, MEM[(struct vector *)&input + 24B].D.41411._M_impl._M_end_of_storage
.LVL115:
.LBE1215:
.LBE1218:
.LBE1223:
.LBE1228:
.LBE1331:
.LBB1332:
.LBB1318:
.LBB1310:
# /usr/include/c++/7/bits/vector.tcc:98: 	if (this->_M_impl._M_finish != this->_M_impl._M_end_of_storage)
	.loc 7 98 0
	jne	.L112	#,
.LVL116:
	.p2align 4,,10
	.p2align 3
.L60:
.LBB1237:
.LBB1238:
.LBB1239:
.LBB1240:
# /usr/include/c++/7/bits/stl_vector.h:1504: 	if (max_size() - size() < __n)
	.loc 5 1504 0
	movq	96(%rsp), %rcx	# MEM[(short int * *)&input + 48B], prephitmp_255
.LVL117:
.LBB1241:
.LBB1242:
# /usr/include/c++/7/bits/stl_vector.h:671:       { return size_type(this->_M_impl._M_finish - this->_M_impl._M_start); }
	.loc 5 671 0
	movq	%rbx, %r14	# _182, _216
	subq	%rcx, %r14	# prephitmp_255, _216
.LBE1242:
.LBE1241:
.LBB1243:
.LBB1244:
# /usr/include/c++/7/bits/stl_algobase.h:224:       if (__a < __b)
	.loc 8 224 0
	movq	%r14, %rax	# _216, tmp222
	sarq	%rax	# tmp222
	je	.L83	#,
.LVL118:
.LBE1244:
.LBE1243:
# /usr/include/c++/7/bits/stl_vector.h:1508: 	return (__len < size() || __len > max_size()) ? max_size() : __len;
	.loc 5 1508 0
	cmpq	%r14, %rax	# _216, tmp222
# /usr/include/c++/7/bits/stl_vector.h:1507: 	const size_type __len = size() + std::max(size(), __n);
	.loc 5 1507 0
	movq	%r14, %r8	# _216, __len
.LVL119:
# /usr/include/c++/7/bits/stl_vector.h:1508: 	return (__len < size() || __len > max_size()) ? max_size() : __len;
	.loc 5 1508 0
	movq	$-2, %r15	#, prephitmp_141
	jbe	.L113	#,
.LVL120:
.L63:
.LBE1240:
.LBE1239:
.LBB1249:
.LBB1250:
.LBB1251:
.LBB1252:
.LBB1253:
# /usr/include/c++/7/ext/new_allocator.h:111: 	return static_cast<_Tp*>(::operator new(__n * sizeof(_Tp)));
	.loc 6 111 0
	movq	%r15, %rdi	# prephitmp_141,
	movq	8(%rsp), %r13	# %sfp, tmp250
	call	_Znwm@PLT	#
.LVL121:
	movq	104(%rsp), %r9	# MEM[(struct vector *)&input + 48B].D.41411._M_impl._M_finish, _184
	movq	96(%rsp), %rcx	# MEM[(struct vector *)&input + 48B].D.41411._M_impl._M_start, prephitmp_255
	movq	%rax, %r13	#, _228
	movq	%rbx, %r8	# _182, __len
	addq	%r13, %r15	# _228, _259
.LVL122:
	movq	%r9, %rax	# _184, prephitmp_286
.LVL123:
	subq	%rcx, %r8	# prephitmp_255, __len
	subq	%rbx, %rax	# _182, prephitmp_286
.LBE1253:
.LBE1252:
.LBE1251:
.LBE1250:
.LBE1249:
.LBB1255:
.LBB1256:
.LBB1257:
# /usr/include/c++/7/ext/new_allocator.h:136: 	{ ::new((void *)__p) _Up(std::forward<_Args>(__args)...); }
	.loc 6 136 0
	addq	%r13, %r14	# _228, _194
.LVL124:
	movq	%rax, 16(%rsp)	# prephitmp_286, %sfp
	je	.L64	#,
	movw	%r12w, (%r14)	# _1, *_194
.LVL125:
.L64:
.LBE1257:
.LBE1256:
.LBE1255:
.LBB1258:
.LBB1259:
.LBB1260:
.LBB1261:
.LBB1262:
.LBB1263:
.LBB1264:
.LBB1265:
.LBB1266:
.LBB1267:
.LBB1268:
# /usr/include/c++/7/bits/stl_algobase.h:367: 	  if (_Num)
	.loc 8 367 0
	cmpq	%rcx, %rbx	# prephitmp_255, _182
	je	.L65	#,
# /usr/include/c++/7/bits/stl_algobase.h:368: 	    __builtin_memmove(__result, __first, sizeof(_Tp) * _Num);
	.loc 8 368 0
	movq	%r8, %rdx	# __len,
	movq	%rcx, %rsi	# prephitmp_255,
	movq	%r13, %rdi	# _228,
	movq	%r9, 40(%rsp)	# _184, %sfp
	movq	%r8, 32(%rsp)	# __len, %sfp
	movq	%rcx, 24(%rsp)	# prephitmp_255, %sfp
	call	memmove@PLT	#
.LVL126:
	movq	40(%rsp), %r9	# %sfp, _184
	movq	32(%rsp), %r8	# %sfp, __len
	movq	24(%rsp), %rcx	# %sfp, prephitmp_255
.L65:
.LVL127:
.LBE1268:
.LBE1267:
.LBE1266:
.LBE1265:
.LBE1264:
.LBE1263:
.LBE1262:
.LBE1261:
.LBE1260:
.LBE1259:
.LBE1258:
.LBB1269:
.LBB1270:
.LBB1271:
.LBB1272:
.LBB1273:
.LBB1274:
.LBB1275:
.LBB1276:
.LBB1277:
.LBB1278:
.LBB1279:
# /usr/include/c++/7/bits/stl_algobase.h:367: 	  if (_Num)
	.loc 8 367 0
	cmpq	%r9, %rbx	# _184, _182
.LBE1279:
.LBE1278:
.LBE1277:
.LBE1276:
.LBE1275:
.LBE1274:
.LBE1273:
.LBE1272:
.LBE1271:
.LBE1270:
.LBE1269:
# /usr/include/c++/7/bits/vector.tcc:429: 	  ++__new_finish;
	.loc 7 429 0
	leaq	2(%r13,%r8), %r8	#, __new_finish
.LVL128:
.LBB1290:
.LBB1289:
.LBB1288:
.LBB1287:
.LBB1286:
.LBB1285:
.LBB1284:
.LBB1283:
.LBB1282:
.LBB1281:
.LBB1280:
# /usr/include/c++/7/bits/stl_algobase.h:367: 	  if (_Num)
	.loc 8 367 0
	je	.L66	#,
# /usr/include/c++/7/bits/stl_algobase.h:368: 	    __builtin_memmove(__result, __first, sizeof(_Tp) * _Num);
	.loc 8 368 0
	movq	16(%rsp), %rdx	# %sfp,
	movq	%r8, %rdi	# __new_finish,
	movq	%rbx, %rsi	# _182,
	movq	%rcx, 24(%rsp)	# prephitmp_255, %sfp
	call	memmove@PLT	#
.LVL129:
	movq	24(%rsp), %rcx	# %sfp, prephitmp_255
	movq	%rax, %r8	#, __new_finish
.L66:
# /usr/include/c++/7/bits/stl_algobase.h:369: 	  return __result + _Num;
	.loc 8 369 0
	movq	16(%rsp), %rbx	# %sfp, prephitmp_286
.LVL130:
	addq	%r8, %rbx	# __new_finish, prephitmp_286
.LVL131:
.LBE1280:
.LBE1281:
.LBE1282:
.LBE1283:
.LBE1284:
.LBE1285:
.LBE1286:
.LBE1287:
.LBE1288:
.LBE1289:
.LBE1290:
.LBB1291:
.LBB1292:
# /usr/include/c++/7/bits/stl_vector.h:179: 	if (__p)
	.loc 5 179 0
	testq	%rcx, %rcx	# prephitmp_255
	je	.L67	#,
.LVL132:
.LBB1293:
.LBB1294:
.LBB1295:
# /usr/include/c++/7/ext/new_allocator.h:125: 	::operator delete(__p);
	.loc 6 125 0
	movq	%rcx, %rdi	# prephitmp_255,
	call	_ZdlPv@PLT	#
.LVL133:
.L67:
.LBE1295:
.LBE1294:
.LBE1293:
.LBE1292:
.LBE1291:
# /usr/include/c++/7/bits/vector.tcc:451:       this->_M_impl._M_start = __new_start;
	.loc 7 451 0
	movq	%r13, 16(%rsp)	# _228, %sfp
.LBE1238:
.LBE1237:
.LBE1310:
.LBE1318:
.LBE1332:
# main.cpp:35:     for (int joana1 = 0; joana1 < sizeTest; joana1++)
	.loc 2 35 0
	addl	$1, %ebp	#, joana1
.LVL134:
.LBB1333:
.LBB1319:
.LBB1311:
.LBB1303:
.LBB1299:
# /usr/include/c++/7/bits/vector.tcc:453:       this->_M_impl._M_end_of_storage = __new_start + __len;
	.loc 7 453 0
	movq	%r15, 112(%rsp)	# _259, MEM[(struct vector *)&input + 48B].D.41411._M_impl._M_end_of_storage
.LVL135:
# /usr/include/c++/7/bits/vector.tcc:451:       this->_M_impl._M_start = __new_start;
	.loc 7 451 0
	movq	16(%rsp), %xmm0	# %sfp, tmp225
	movq	%rbx, 16(%rsp)	# _208, %sfp
	movhps	16(%rsp), %xmm0	# %sfp, tmp225
.LBE1299:
.LBE1303:
.LBE1311:
.LBE1319:
.LBE1333:
# main.cpp:35:     for (int joana1 = 0; joana1 < sizeTest; joana1++)
	.loc 2 35 0
	cmpl	$90, %ebp	#, joana1
.LBB1334:
.LBB1320:
.LBB1312:
.LBB1304:
.LBB1300:
# /usr/include/c++/7/bits/vector.tcc:451:       this->_M_impl._M_start = __new_start;
	.loc 7 451 0
	movaps	%xmm0, 96(%rsp)	# tmp225, MEM[(short int * *)&input + 48B]
.LBE1300:
.LBE1304:
.LBE1312:
.LBE1320:
.LBE1334:
# main.cpp:35:     for (int joana1 = 0; joana1 < sizeTest; joana1++)
	.loc 2 35 0
	jne	.L114	#,
.LVL136:
	.p2align 4,,10
	.p2align 3
.L68:
.LBE1369:
.LBB1370:
.LBB1371:
# /usr/include/c++/7/ostream:561: 	__ostream_insert(__out, __s,
	.loc 3 561 0
	leaq	.LC1(%rip), %rsi	#,
	leaq	_ZSt4cout(%rip), %rdi	#,
	movl	$18, %edx	#,
	leaq	48(%rsp), %r13	#, tmp250
	call	_ZSt16__ostream_insertIcSt11char_traitsIcEERSt13basic_ostreamIT_T0_ES6_PKS3_l@PLT	#
.LVL137:
.LBE1371:
.LBE1370:
.LBB1372:
.LBB1373:
# /usr/include/c++/7/bits/stl_vector.h:671:       { return size_type(this->_M_impl._M_finish - this->_M_impl._M_start); }
	.loc 5 671 0
	movq	56(%rsp), %rsi	# MEM[(short int * *)&input + 8B], MEM[(short int * *)&input + 8B]
	subq	48(%rsp), %rsi	# MEM[(short int * *)&input], tmp226
.LBE1373:
.LBE1372:
.LBB1375:
.LBB1376:
# /usr/include/c++/7/ostream:171:       { return _M_insert(__n); }
	.loc 3 171 0
	leaq	_ZSt4cout(%rip), %rdi	#,
	leaq	48(%rsp), %r13	#, tmp250
.LBE1376:
.LBE1375:
.LBB1378:
.LBB1374:
# /usr/include/c++/7/bits/stl_vector.h:671:       { return size_type(this->_M_impl._M_finish - this->_M_impl._M_start); }
	.loc 5 671 0
	sarq	%rsi	# tmp229
.LBE1374:
.LBE1378:
.LBB1379:
.LBB1377:
# /usr/include/c++/7/ostream:171:       { return _M_insert(__n); }
	.loc 3 171 0
	call	_ZNSo9_M_insertImEERSoT_@PLT	#
.LVL138:
.LBE1377:
.LBE1379:
.LBB1380:
.LBB1381:
# /usr/include/c++/7/ostream:113: 	return __pf(*this);
	.loc 3 113 0
	movq	%rax, %rdi	# _20,
	leaq	48(%rsp), %r13	#, tmp250
	call	_ZSt4endlIcSt11char_traitsIcEERSt13basic_ostreamIT_T0_ES6_@PLT	#
.LVL139:
.LBE1381:
.LBE1380:
.LBB1382:
.LBB1383:
# /usr/include/c++/7/ostream:561: 	__ostream_insert(__out, __s,
	.loc 3 561 0
	leaq	.LC2(%rip), %rsi	#,
	leaq	_ZSt4cout(%rip), %rdi	#,
	movl	$18, %edx	#,
	leaq	48(%rsp), %r13	#, tmp250
	call	_ZSt16__ostream_insertIcSt11char_traitsIcEERSt13basic_ostreamIT_T0_ES6_PKS3_l@PLT	#
.LVL140:
.LBE1383:
.LBE1382:
.LBB1384:
.LBB1385:
# /usr/include/c++/7/bits/stl_vector.h:671:       { return size_type(this->_M_impl._M_finish - this->_M_impl._M_start); }
	.loc 5 671 0
	movq	80(%rsp), %rsi	# MEM[(short int * *)&input + 32B], MEM[(short int * *)&input + 32B]
	subq	72(%rsp), %rsi	# MEM[(short int * *)&input + 24B], tmp230
.LBE1385:
.LBE1384:
.LBB1387:
.LBB1388:
# /usr/include/c++/7/ostream:171:       { return _M_insert(__n); }
	.loc 3 171 0
	leaq	_ZSt4cout(%rip), %rdi	#,
	leaq	48(%rsp), %r13	#, tmp250
.LBE1388:
.LBE1387:
.LBB1390:
.LBB1386:
# /usr/include/c++/7/bits/stl_vector.h:671:       { return size_type(this->_M_impl._M_finish - this->_M_impl._M_start); }
	.loc 5 671 0
	sarq	%rsi	# tmp233
.LBE1386:
.LBE1390:
.LBB1391:
.LBB1389:
# /usr/include/c++/7/ostream:171:       { return _M_insert(__n); }
	.loc 3 171 0
	call	_ZNSo9_M_insertImEERSoT_@PLT	#
.LVL141:
.LBE1389:
.LBE1391:
.LBB1392:
.LBB1393:
# /usr/include/c++/7/ostream:113: 	return __pf(*this);
	.loc 3 113 0
	movq	%rax, %rdi	# _34,
	leaq	48(%rsp), %r13	#, tmp250
	call	_ZSt4endlIcSt11char_traitsIcEERSt13basic_ostreamIT_T0_ES6_@PLT	#
.LVL142:
.LBE1393:
.LBE1392:
.LBB1394:
.LBB1395:
# /usr/include/c++/7/ostream:561: 	__ostream_insert(__out, __s,
	.loc 3 561 0
	leaq	.LC3(%rip), %rsi	#,
	leaq	_ZSt4cout(%rip), %rdi	#,
	movl	$18, %edx	#,
	leaq	48(%rsp), %r13	#, tmp250
	call	_ZSt16__ostream_insertIcSt11char_traitsIcEERSt13basic_ostreamIT_T0_ES6_PKS3_l@PLT	#
.LVL143:
.LBE1395:
.LBE1394:
.LBB1396:
.LBB1397:
# /usr/include/c++/7/bits/stl_vector.h:671:       { return size_type(this->_M_impl._M_finish - this->_M_impl._M_start); }
	.loc 5 671 0
	movq	104(%rsp), %rsi	# MEM[(short int * *)&input + 56B], MEM[(short int * *)&input + 56B]
	subq	96(%rsp), %rsi	# MEM[(short int * *)&input + 48B], tmp234
.LBE1397:
.LBE1396:
.LBB1399:
.LBB1400:
# /usr/include/c++/7/ostream:171:       { return _M_insert(__n); }
	.loc 3 171 0
	leaq	_ZSt4cout(%rip), %rdi	#,
	leaq	48(%rsp), %r13	#, tmp250
.LBE1400:
.LBE1399:
.LBB1402:
.LBB1398:
# /usr/include/c++/7/bits/stl_vector.h:671:       { return size_type(this->_M_impl._M_finish - this->_M_impl._M_start); }
	.loc 5 671 0
	sarq	%rsi	# tmp237
.LBE1398:
.LBE1402:
.LBB1403:
.LBB1401:
# /usr/include/c++/7/ostream:171:       { return _M_insert(__n); }
	.loc 3 171 0
	call	_ZNSo9_M_insertImEERSoT_@PLT	#
.LVL144:
.LBE1401:
.LBE1403:
.LBB1404:
.LBB1405:
# /usr/include/c++/7/ostream:113: 	return __pf(*this);
	.loc 3 113 0
	movq	%rax, %rdi	# _40,
	leaq	48(%rsp), %r13	#, tmp250
	call	_ZSt4endlIcSt11char_traitsIcEERSt13basic_ostreamIT_T0_ES6_@PLT	#
.LVL145:
.LBE1405:
.LBE1404:
# main.cpp:45:     input.data1.resize(sizeTest);
	.loc 2 45 0
	leaq	48(%rsp), %r13	#, tmp250
	movl	$90, %esi	#,
	movq	%r13, %rdi	# tmp250,
	call	_ZNSt6vectorIsSaIsEE6resizeEm	#
.LVL146:
# main.cpp:46:     input.data2.resize(sizeTest);
	.loc 2 46 0
	leaq	24(%r13), %rdi	#, tmp240
	movl	$90, %esi	#,
	call	_ZNSt6vectorIsSaIsEE6resizeEm	#
.LVL147:
# main.cpp:47:     input.data3.resize(sizeTest);
	.loc 2 47 0
	leaq	48(%r13), %rdi	#, tmp242
	movl	$90, %esi	#,
	call	_ZNSt6vectorIsSaIsEE6resizeEm	#
.LVL148:
.LBB1406:
.LBB1407:
# /usr/include/c++/7/ostream:561: 	__ostream_insert(__out, __s,
	.loc 3 561 0
	leaq	.LC4(%rip), %rsi	#,
	leaq	_ZSt4cout(%rip), %rdi	#,
	movl	$15, %edx	#,
	call	_ZSt16__ostream_insertIcSt11char_traitsIcEERSt13basic_ostreamIT_T0_ES6_PKS3_l@PLT	#
.LVL149:
.LBE1407:
.LBE1406:
.LBB1408:
.LBB1409:
# /usr/include/c++/7/ostream:171:       { return _M_insert(__n); }
	.loc 3 171 0
	leaq	_ZSt4cout(%rip), %rdi	#,
	movl	$541, %esi	#,
	call	_ZNSo9_M_insertImEERSoT_@PLT	#
.LVL150:
.LBE1409:
.LBE1408:
.LBB1410:
.LBB1411:
# /usr/include/c++/7/ostream:113: 	return __pf(*this);
	.loc 3 113 0
	movq	%rax, %rdi	# _46,
	call	_ZSt4endlIcSt11char_traitsIcEERSt13basic_ostreamIT_T0_ES6_@PLT	#
.LVL151:
.LBE1411:
.LBE1410:
.LBB1412:
.LBB1413:
# /usr/include/c++/7/ostream:561: 	__ostream_insert(__out, __s,
	.loc 3 561 0
	leaq	.LC5(%rip), %rsi	#,
	leaq	_ZSt4cout(%rip), %rdi	#,
	movl	$24, %edx	#,
	call	_ZSt16__ostream_insertIcSt11char_traitsIcEERSt13basic_ostreamIT_T0_ES6_PKS3_l@PLT	#
.LVL152:
.LBE1413:
.LBE1412:
.LBB1414:
.LBB1415:
# /usr/include/c++/7/ostream:171:       { return _M_insert(__n); }
	.loc 3 171 0
	leaq	_ZSt4cout(%rip), %rdi	#,
	movl	$180, %esi	#,
	call	_ZNSo9_M_insertImEERSoT_@PLT	#
.LVL153:
.LBE1415:
.LBE1414:
.LBB1416:
.LBB1417:
# /usr/include/c++/7/ostream:113: 	return __pf(*this);
	.loc 3 113 0
	movq	%rax, %rdi	# _47,
	call	_ZSt4endlIcSt11char_traitsIcEERSt13basic_ostreamIT_T0_ES6_@PLT	#
.LVL154:
.LBE1417:
.LBE1416:
.LBB1418:
.LBB1419:
# /usr/include/c++/7/ostream:561: 	__ostream_insert(__out, __s,
	.loc 3 561 0
	leaq	.LC6(%rip), %rsi	#,
	leaq	_ZSt4cout(%rip), %rdi	#,
	movl	$24, %edx	#,
	call	_ZSt16__ostream_insertIcSt11char_traitsIcEERSt13basic_ostreamIT_T0_ES6_PKS3_l@PLT	#
.LVL155:
.LBE1419:
.LBE1418:
.LBB1420:
.LBB1421:
# /usr/include/c++/7/ostream:171:       { return _M_insert(__n); }
	.loc 3 171 0
	leaq	_ZSt4cout(%rip), %rdi	#,
	movl	$180, %esi	#,
	call	_ZNSo9_M_insertImEERSoT_@PLT	#
.LVL156:
.LBE1421:
.LBE1420:
.LBB1422:
.LBB1423:
# /usr/include/c++/7/ostream:113: 	return __pf(*this);
	.loc 3 113 0
	movq	%rax, %rdi	# _48,
	call	_ZSt4endlIcSt11char_traitsIcEERSt13basic_ostreamIT_T0_ES6_@PLT	#
.LVL157:
.LBE1423:
.LBE1422:
.LBB1424:
.LBB1425:
# /usr/include/c++/7/ostream:561: 	__ostream_insert(__out, __s,
	.loc 3 561 0
	leaq	.LC7(%rip), %rsi	#,
	leaq	_ZSt4cout(%rip), %rdi	#,
	movl	$24, %edx	#,
	call	_ZSt16__ostream_insertIcSt11char_traitsIcEERSt13basic_ostreamIT_T0_ES6_PKS3_l@PLT	#
.LVL158:
.LBE1425:
.LBE1424:
.LBB1426:
.LBB1427:
# /usr/include/c++/7/ostream:171:       { return _M_insert(__n); }
	.loc 3 171 0
	leaq	_ZSt4cout(%rip), %rdi	#,
	movl	$180, %esi	#,
	call	_ZNSo9_M_insertImEERSoT_@PLT	#
.LVL159:
.LBE1427:
.LBE1426:
.LBB1428:
.LBB1429:
# /usr/include/c++/7/ostream:113: 	return __pf(*this);
	.loc 3 113 0
	movq	%rax, %rdi	# _49,
	call	_ZSt4endlIcSt11char_traitsIcEERSt13basic_ostreamIT_T0_ES6_@PLT	#
.LVL160:
.LEHE0:
.LBE1429:
.LBE1428:
# main.cpp:34:     TestInput input;
	.loc 2 34 0
	movq	%r13, %rdi	# tmp250,
	call	_ZN9TestInputD1Ev	#
.LVL161:
# main.cpp:62: }
	.loc 2 62 0
	xorl	%eax, %eax	#
	movq	120(%rsp), %rdx	# D.48805, tmp280
	xorq	%fs:40, %rdx	#, tmp280
	jne	.L115	#,
	addq	$136, %rsp	#,
	.cfi_remember_state
	.cfi_def_cfa_offset 56
	popq	%rbx	#
	.cfi_def_cfa_offset 48
	popq	%rbp	#
	.cfi_def_cfa_offset 40
.LVL162:
	popq	%r12	#
	.cfi_def_cfa_offset 32
	popq	%r13	#
	.cfi_def_cfa_offset 24
	popq	%r14	#
	.cfi_def_cfa_offset 16
	popq	%r15	#
	.cfi_def_cfa_offset 8
	ret
.LVL163:
	.p2align 4,,10
	.p2align 3
.L83:
	.cfi_restore_state
.LBB1430:
.LBB1335:
.LBB1321:
.LBB1313:
.LBB1305:
.LBB1301:
.LBB1296:
.LBB1247:
.LBB1246:
.LBB1245:
# /usr/include/c++/7/bits/stl_algobase.h:224:       if (__a < __b)
	.loc 8 224 0
	movl	$2, %r15d	#, prephitmp_141
	jmp	.L63	#
.LVL164:
	.p2align 4,,10
	.p2align 3
.L79:
.LBE1245:
.LBE1246:
.LBE1247:
.LBE1296:
.LBE1301:
.LBE1305:
.LBE1313:
.LBE1321:
.LBE1335:
.LBB1336:
.LBB1229:
.LBB1224:
.LBB1219:
.LBB1216:
.LBB1212:
.LBB1163:
.LBB1162:
.LBB1161:
	movl	$2, %r15d	#, prephitmp_297
	jmp	.L55	#
.LVL165:
	.p2align 4,,10
	.p2align 3
.L75:
.LBE1161:
.LBE1162:
.LBE1163:
.LBE1212:
.LBE1216:
.LBE1219:
.LBE1224:
.LBE1229:
.LBE1336:
.LBB1337:
.LBB1143:
.LBB1138:
.LBB1133:
.LBB1130:
.LBB1126:
.LBB1077:
.LBB1076:
.LBB1075:
	movl	$2, %r15d	#, prephitmp_310
	jmp	.L47	#
.LVL166:
	.p2align 4,,10
	.p2align 3
.L111:
.LBE1075:
.LBE1076:
.LBE1077:
.LBE1126:
.LBE1130:
.LBE1133:
.LBE1138:
.LBE1143:
.LBE1337:
.LBB1338:
.LBB1230:
.LBB1225:
.LBB1220:
.LBB1217:
.LBB1213:
.LBB1164:
# /usr/include/c++/7/bits/stl_vector.h:1508: 	return (__len < size() || __len > max_size()) ? max_size() : __len;
	.loc 5 1508 0
	testq	%r14, %r14	# _168
	js	.L55	#,
.LVL167:
.LBE1164:
.LBE1213:
.LBB1214:
.LBB1170:
# /usr/include/c++/7/bits/stl_vector.h:172: 	return __n != 0 ? _Tr::allocate(_M_impl, __n) : pointer();
	.loc 5 172 0
	jne	.L116	#,
	xorl	%r13d, %r13d	# prephitmp_273
	movq	%rbx, %r10	# _134, _136
	xorl	%r15d, %r15d	# prephitmp_289
	xorl	%r8d, %r8d	# _180
	jmp	.L56	#
.LVL168:
	.p2align 4,,10
	.p2align 3
.L113:
.LBE1170:
.LBE1214:
.LBE1217:
.LBE1220:
.LBE1225:
.LBE1230:
.LBE1338:
.LBB1339:
.LBB1322:
.LBB1314:
.LBB1306:
.LBB1302:
.LBB1297:
.LBB1248:
# /usr/include/c++/7/bits/stl_vector.h:1508: 	return (__len < size() || __len > max_size()) ? max_size() : __len;
	.loc 5 1508 0
	testq	%r14, %r14	# _216
	js	.L63	#,
.LVL169:
.LBE1248:
.LBE1297:
.LBB1298:
.LBB1254:
# /usr/include/c++/7/bits/stl_vector.h:172: 	return __n != 0 ? _Tr::allocate(_M_impl, __n) : pointer();
	.loc 5 172 0
	jne	.L117	#,
	movq	$0, 16(%rsp)	#, %sfp
	movq	%rbx, %r9	# _182, _184
	xorl	%r13d, %r13d	# _228
	xorl	%r15d, %r15d	# _259
	jmp	.L64	#
.LVL170:
	.p2align 4,,10
	.p2align 3
.L109:
.LBE1254:
.LBE1298:
.LBE1302:
.LBE1306:
.LBE1314:
.LBE1322:
.LBE1339:
.LBB1340:
.LBB1144:
.LBB1139:
.LBB1134:
.LBB1131:
.LBB1127:
.LBB1078:
# /usr/include/c++/7/bits/stl_vector.h:1508: 	return (__len < size() || __len > max_size()) ? max_size() : __len;
	.loc 5 1508 0
	testq	%r14, %r14	# _120
	js	.L47	#,
.LVL171:
.LBE1078:
.LBE1127:
.LBB1128:
.LBB1084:
# /usr/include/c++/7/bits/stl_vector.h:172: 	return __n != 0 ? _Tr::allocate(_M_impl, __n) : pointer();
	.loc 5 172 0
	jne	.L118	#,
	movq	$0, 16(%rsp)	#, %sfp
	movq	%rbx, %r9	# pretmp_123, prephitmp_253
	xorl	%r15d, %r15d	# prephitmp_226
	xorl	%r13d, %r13d	# _132
	jmp	.L48	#
.LVL172:
.L87:
	movq	%rax, %rbx	#, tmp246
.LBE1084:
.LBE1128:
.LBE1131:
.LBE1134:
.LBE1139:
.LBE1144:
.LBE1340:
.LBE1430:
# main.cpp:34:     TestInput input;
	.loc 2 34 0
	movq	%r13, %rdi	# tmp250,
	call	_ZN9TestInputD1Ev	#
.LVL173:
	movq	%rbx, %rdi	# tmp246,
.LEHB1:
	call	_Unwind_Resume@PLT	#
.LVL174:
.LEHE1:
.L115:
# main.cpp:62: }
	.loc 2 62 0
	call	__stack_chk_fail@PLT	#
.LVL175:
.L118:
	leaq	(%r14,%r14), %r15	#, prephitmp_310
	jmp	.L47	#
.LVL176:
.L117:
	leaq	(%r14,%r14), %r15	#, prephitmp_141
	jmp	.L63	#
.LVL177:
.L116:
	leaq	(%r14,%r14), %r15	#, prephitmp_297
	jmp	.L55	#
	.cfi_endproc
.LFE1910:
	.globl	__gxx_personality_v0
	.section	.gcc_except_table,"a",@progbits
.LLSDA1910:
	.byte	0xff
	.byte	0xff
	.byte	0x1
	.uleb128 .LLSDACSE1910-.LLSDACSB1910
.LLSDACSB1910:
	.uleb128 .LEHB0-.LFB1910
	.uleb128 .LEHE0-.LEHB0
	.uleb128 .L87-.LFB1910
	.uleb128 0
	.uleb128 .LEHB1-.LFB1910
	.uleb128 .LEHE1-.LEHB1
	.uleb128 0
	.uleb128 0
.LLSDACSE1910:
	.section	.text.startup
	.size	main, .-main
	.p2align 4,,15
	.type	_GLOBAL__sub_I__Z5printi, @function
_GLOBAL__sub_I__Z5printi:
.LFB2497:
	.loc 2 62 0
	.cfi_startproc
.LVL178:
.LBB1431:
.LBB1432:
# /usr/include/c++/7/iostream:74:   static ios_base::Init __ioinit;
	.file 9 "/usr/include/c++/7/iostream"
	.loc 9 74 0
	leaq	_ZStL8__ioinit(%rip), %rdi	#,
.LBE1432:
.LBE1431:
# main.cpp:62: }
	.loc 2 62 0
	subq	$8, %rsp	#,
	.cfi_def_cfa_offset 16
.LBB1435:
.LBB1433:
# /usr/include/c++/7/iostream:74:   static ios_base::Init __ioinit;
	.loc 9 74 0
	call	_ZNSt8ios_base4InitC1Ev@PLT	#
.LVL179:
	movq	_ZNSt8ios_base4InitD1Ev@GOTPCREL(%rip), %rdi	#,
	leaq	__dso_handle(%rip), %rdx	#,
	leaq	_ZStL8__ioinit(%rip), %rsi	#,
.LBE1433:
.LBE1435:
# main.cpp:62: }
	.loc 2 62 0
	addq	$8, %rsp	#,
	.cfi_def_cfa_offset 8
.LBB1436:
.LBB1434:
# /usr/include/c++/7/iostream:74:   static ios_base::Init __ioinit;
	.loc 9 74 0
	jmp	__cxa_atexit@PLT	#
.LVL180:
.LBE1434:
.LBE1436:
	.cfi_endproc
.LFE2497:
	.size	_GLOBAL__sub_I__Z5printi, .-_GLOBAL__sub_I__Z5printi
	.section	.init_array,"aw"
	.align 8
	.quad	_GLOBAL__sub_I__Z5printi
	.local	_ZStL8__ioinit
	.comm	_ZStL8__ioinit,1,1
	.text
.Letext0:
	.file 10 "/usr/include/c++/7/cwchar"
	.file 11 "/usr/include/c++/7/new"
	.file 12 "/usr/include/c++/7/bits/exception_ptr.h"
	.file 13 "/usr/include/c++/7/type_traits"
	.file 14 "/usr/include/x86_64-linux-gnu/c++/7/bits/c++config.h"
	.file 15 "/usr/include/c++/7/bits/stl_pair.h"
	.file 16 "/usr/include/c++/7/debug/debug.h"
	.file 17 "/usr/include/c++/7/bits/char_traits.h"
	.file 18 "/usr/include/c++/7/cstdint"
	.file 19 "/usr/include/c++/7/clocale"
	.file 20 "/usr/include/c++/7/cstdlib"
	.file 21 "/usr/include/c++/7/cstdio"
	.file 22 "/usr/include/c++/7/bits/basic_string.h"
	.file 23 "/usr/include/c++/7/system_error"
	.file 24 "/usr/include/c++/7/bits/ios_base.h"
	.file 25 "/usr/include/c++/7/cwctype"
	.file 26 "/usr/include/c++/7/bits/ostream.tcc"
	.file 27 "/usr/include/c++/7/iosfwd"
	.file 28 "/usr/include/c++/7/bits/stl_construct.h"
	.file 29 "/usr/include/c++/7/bits/stl_uninitialized.h"
	.file 30 "/usr/include/c++/7/bits/alloc_traits.h"
	.file 31 "/usr/include/c++/7/bits/allocator.h"
	.file 32 "/usr/include/c++/7/bits/stl_iterator_base_types.h"
	.file 33 "/usr/include/c++/7/bits/stl_iterator.h"
	.file 34 "/usr/include/c++/7/bits/cpp_type_traits.h"
	.file 35 "/usr/include/c++/7/bits/move.h"
	.file 36 "/usr/include/c++/7/bits/functexcept.h"
	.file 37 "/usr/include/c++/7/bits/ostream_insert.h"
	.file 38 "/usr/include/c++/7/bits/predefined_ops.h"
	.file 39 "/usr/include/c++/7/ext/numeric_traits.h"
	.file 40 "/usr/include/c++/7/ext/alloc_traits.h"
	.file 41 "/usr/include/c++/7/ext/type_traits.h"
	.file 42 "/usr/lib/gcc/x86_64-linux-gnu/7/include/stddef.h"
	.file 43 "<built-in>"
	.file 44 "/usr/include/x86_64-linux-gnu/bits/types/wint_t.h"
	.file 45 "/usr/include/x86_64-linux-gnu/bits/types/__mbstate_t.h"
	.file 46 "/usr/include/x86_64-linux-gnu/bits/types/mbstate_t.h"
	.file 47 "/usr/include/x86_64-linux-gnu/bits/types/__FILE.h"
	.file 48 "/usr/include/x86_64-linux-gnu/bits/libio.h"
	.file 49 "/usr/include/x86_64-linux-gnu/bits/types/FILE.h"
	.file 50 "/usr/include/wchar.h"
	.file 51 "/usr/include/x86_64-linux-gnu/bits/wchar2.h"
	.file 52 "/usr/include/x86_64-linux-gnu/bits/types/struct_tm.h"
	.file 53 "/usr/include/x86_64-linux-gnu/bits/types.h"
	.file 54 "/usr/include/x86_64-linux-gnu/bits/stdint-intn.h"
	.file 55 "/usr/include/x86_64-linux-gnu/bits/stdint-uintn.h"
	.file 56 "/usr/include/stdint.h"
	.file 57 "/usr/include/locale.h"
	.file 58 "/usr/include/time.h"
	.file 59 "/usr/include/x86_64-linux-gnu/c++/7/bits/atomic_word.h"
	.file 60 "/usr/include/stdlib.h"
	.file 61 "/usr/include/x86_64-linux-gnu/bits/stdlib-float.h"
	.file 62 "/usr/include/x86_64-linux-gnu/bits/stdlib-bsearch.h"
	.file 63 "/usr/include/x86_64-linux-gnu/bits/stdlib.h"
	.file 64 "/usr/include/x86_64-linux-gnu/bits/_G_config.h"
	.file 65 "/usr/include/stdio.h"
	.file 66 "/usr/include/x86_64-linux-gnu/bits/sys_errlist.h"
	.file 67 "/usr/include/x86_64-linux-gnu/bits/stdio2.h"
	.file 68 "/usr/include/x86_64-linux-gnu/bits/stdio.h"
	.file 69 "/usr/include/errno.h"
	.file 70 "/usr/include/x86_64-linux-gnu/bits/wctype-wchar.h"
	.file 71 "/usr/include/wctype.h"
	.section	.data.rel.local.DW.ref.__gxx_personality_v0,"awG",@progbits,DW.ref.__gxx_personality_v0,comdat
	.align 8
	.type	DW.ref.__gxx_personality_v0, @object
	.size	DW.ref.__gxx_personality_v0, 8
DW.ref.__gxx_personality_v0:
	.quad	__gxx_personality_v0
	.hidden	__dso_handle
	.ident	"GCC: (Ubuntu 7.5.0-3ubuntu1~18.04) 7.5.0"
	.section	.note.GNU-stack,"",@progbits
