	.file	"main.cpp"
# GNU C++14 (Ubuntu 7.5.0-3ubuntu1~18.04) version 7.5.0 (x86_64-linux-gnu)
#	compiled by GNU C version 7.5.0, GMP version 6.1.2, MPFR version 4.0.1, MPC version 1.1.0, isl version isl-0.19-GMP

# GGC heuristics: --param ggc-min-expand=100 --param ggc-min-heapsize=131072
# options passed:  -imultiarch x86_64-linux-gnu -D_GNU_SOURCE main.cpp
# -mtune=generic -march=x86-64 -auxbase-strip main_o1.s -g -fverbose-asm
# -fstack-protector-strong -Wformat -Wformat-security
# options enabled:  -fPIC -fPIE -faggressive-loop-optimizations
# -fasynchronous-unwind-tables -fauto-inc-dec -fchkp-check-incomplete-type
# -fchkp-check-read -fchkp-check-write -fchkp-instrument-calls
# -fchkp-narrow-bounds -fchkp-optimize -fchkp-store-bounds
# -fchkp-use-static-bounds -fchkp-use-static-const-bounds
# -fchkp-use-wrappers -fcommon -fdelete-null-pointer-checks
# -fdwarf2-cfi-asm -fearly-inlining -feliminate-unused-debug-types
# -fexceptions -ffp-int-builtin-inexact -ffunction-cse -fgcse-lm
# -fgnu-runtime -fgnu-unique -fident -finline-atomics -fira-hoist-pressure
# -fira-share-save-slots -fira-share-spill-slots -fivopts
# -fkeep-static-consts -fleading-underscore -flifetime-dse
# -flto-odr-type-merging -fmath-errno -fmerge-debug-strings -fpeephole
# -fplt -fprefetch-loop-arrays -freg-struct-return
# -fsched-critical-path-heuristic -fsched-dep-count-heuristic
# -fsched-group-heuristic -fsched-interblock -fsched-last-insn-heuristic
# -fsched-rank-heuristic -fsched-spec -fsched-spec-insn-heuristic
# -fsched-stalled-insns-dep -fschedule-fusion -fsemantic-interposition
# -fshow-column -fshrink-wrap-separate -fsigned-zeros
# -fsplit-ivs-in-unroller -fssa-backprop -fstack-protector-strong
# -fstdarg-opt -fstrict-volatile-bitfields -fsync-libcalls -ftrapping-math
# -ftree-cselim -ftree-forwprop -ftree-loop-if-convert -ftree-loop-im
# -ftree-loop-ivcanon -ftree-loop-optimize -ftree-parallelize-loops=
# -ftree-phiprop -ftree-reassoc -ftree-scev-cprop -funit-at-a-time
# -funwind-tables -fverbose-asm -fzero-initialized-in-bss
# -m128bit-long-double -m64 -m80387 -malign-stringops
# -mavx256-split-unaligned-load -mavx256-split-unaligned-store
# -mfancy-math-387 -mfp-ret-in-387 -mfxsr -mglibc -mieee-fp
# -mlong-double-80 -mmmx -mno-sse4 -mpush-args -mred-zone -msse -msse2
# -mstv -mtls-direct-seg-refs -mvzeroupper

	.text
.Ltext0:
	.section	.text._ZnwmPv,"axG",@progbits,_ZnwmPv,comdat
	.weak	_ZnwmPv
	.type	_ZnwmPv, @function
_ZnwmPv:
.LFB38:
	.file 1 "/usr/include/c++/7/new"
	.loc 1 169 0
	.cfi_startproc
	pushq	%rbp	#
	.cfi_def_cfa_offset 16
	.cfi_offset 6, -16
	movq	%rsp, %rbp	#,
	.cfi_def_cfa_register 6
	movq	%rdi, -8(%rbp)	# D.3346, D.3346
	movq	%rsi, -16(%rbp)	# __p, __p
# /usr/include/c++/7/new:169: { return __p; }
	.loc 1 169 0
	movq	-16(%rbp), %rax	# __p, _2
	popq	%rbp	#
	.cfi_def_cfa 7, 8
	ret
	.cfi_endproc
.LFE38:
	.size	_ZnwmPv, .-_ZnwmPv
	.section	.rodata
	.type	_ZStL19piecewise_construct, @object
	.size	_ZStL19piecewise_construct, 1
_ZStL19piecewise_construct:
	.zero	1
	.local	_ZStL8__ioinit
	.comm	_ZStL8__ioinit,1,1
	.text
	.globl	_Z5printi
	.type	_Z5printi, @function
_Z5printi:
.LFB1838:
	.file 2 "main.cpp"
	.loc 2 5 0
	.cfi_startproc
	pushq	%rbp	#
	.cfi_def_cfa_offset 16
	.cfi_offset 6, -16
	movq	%rsp, %rbp	#,
	.cfi_def_cfa_register 6
	subq	$16, %rsp	#,
	movl	%edi, -4(%rbp)	# v, v
# main.cpp:6:     std::cout << v << std::endl;
	.loc 2 6 0
	movl	-4(%rbp), %eax	# v, tmp88
	movl	%eax, %esi	# tmp88,
	leaq	_ZSt4cout(%rip), %rdi	#,
	call	_ZNSolsEi@PLT	#
	movq	%rax, %rdx	#, _1
	movq	_ZSt4endlIcSt11char_traitsIcEERSt13basic_ostreamIT_T0_ES6_@GOTPCREL(%rip), %rax	#, tmp89
	movq	%rax, %rsi	# tmp89,
	movq	%rdx, %rdi	# _1,
	call	_ZNSolsEPFRSoS_E@PLT	#
# main.cpp:7: }
	.loc 2 7 0
	nop
	leave
	.cfi_def_cfa 7, 8
	ret
	.cfi_endproc
.LFE1838:
	.size	_Z5printi, .-_Z5printi
	.section	.rodata
	.align 2
	.type	_ZL8sizeTest, @object
	.size	_ZL8sizeTest, 2
_ZL8sizeTest:
	.value	90
	.section	.text._ZN9TestInputC2Ev,"axG",@progbits,_ZN9TestInputC5Ev,comdat
	.align 2
	.weak	_ZN9TestInputC2Ev
	.type	_ZN9TestInputC2Ev, @function
_ZN9TestInputC2Ev:
.LFB1841:
	.loc 2 10 0
	.cfi_startproc
	pushq	%rbp	#
	.cfi_def_cfa_offset 16
	.cfi_offset 6, -16
	movq	%rsp, %rbp	#,
	.cfi_def_cfa_register 6
	subq	$16, %rsp	#,
	movq	%rdi, -8(%rbp)	# this, this
.LBB2:
# main.cpp:10: struct TestInput
	.loc 2 10 0
	movq	-8(%rbp), %rax	# this, _1
	movq	%rax, %rdi	# _1,
	call	_ZNSt6vectorIsSaIsEEC1Ev	#
	movq	-8(%rbp), %rax	# this, tmp93
	addq	$24, %rax	#, _2
	movq	%rax, %rdi	# _2,
	call	_ZNSt6vectorIsSaIsEEC1Ev	#
	movq	-8(%rbp), %rax	# this, tmp94
	addq	$48, %rax	#, _3
	movq	%rax, %rdi	# _3,
	call	_ZNSt6vectorIsSaIsEEC1Ev	#
.LBE2:
	nop
	leave
	.cfi_def_cfa 7, 8
	ret
	.cfi_endproc
.LFE1841:
	.size	_ZN9TestInputC2Ev, .-_ZN9TestInputC2Ev
	.weak	_ZN9TestInputC1Ev
	.set	_ZN9TestInputC1Ev,_ZN9TestInputC2Ev
	.section	.text._ZN9TestInputD2Ev,"axG",@progbits,_ZN9TestInputD5Ev,comdat
	.align 2
	.weak	_ZN9TestInputD2Ev
	.type	_ZN9TestInputD2Ev, @function
_ZN9TestInputD2Ev:
.LFB1844:
	.loc 2 10 0
	.cfi_startproc
	pushq	%rbp	#
	.cfi_def_cfa_offset 16
	.cfi_offset 6, -16
	movq	%rsp, %rbp	#,
	.cfi_def_cfa_register 6
	subq	$16, %rsp	#,
	movq	%rdi, -8(%rbp)	# this, this
.LBB3:
# main.cpp:10: struct TestInput
	.loc 2 10 0
	movq	-8(%rbp), %rax	# this, tmp90
	addq	$48, %rax	#, _1
	movq	%rax, %rdi	# _1,
	call	_ZNSt6vectorIsSaIsEED1Ev	#
	movq	-8(%rbp), %rax	# this, tmp91
	addq	$24, %rax	#, _2
	movq	%rax, %rdi	# _2,
	call	_ZNSt6vectorIsSaIsEED1Ev	#
	movq	-8(%rbp), %rax	# this, _3
	movq	%rax, %rdi	# _3,
	call	_ZNSt6vectorIsSaIsEED1Ev	#
.LBE3:
	nop
	leave
	.cfi_def_cfa 7, 8
	ret
	.cfi_endproc
.LFE1844:
	.size	_ZN9TestInputD2Ev, .-_ZN9TestInputD2Ev
	.weak	_ZN9TestInputD1Ev
	.set	_ZN9TestInputD1Ev,_ZN9TestInputD2Ev
	.section	.rodata
.LC0:
	.string	"Size input.data1: "
.LC1:
	.string	"Size input.data2: "
.LC2:
	.string	"Size input.data3: "
.LC3:
	.string	"Size MainTest: "
.LC4:
	.string	"Size test.output.data1: "
.LC5:
	.string	"Size test.output.data2: "
.LC6:
	.string	"Size test.output.data3: "
	.text
	.globl	main
	.type	main, @function
main:
.LFB1839:
	.loc 2 33 0
	.cfi_startproc
	.cfi_personality 0x9b,DW.ref.__gxx_personality_v0
	.cfi_lsda 0x1b,.LLSDA1839
	pushq	%rbp	#
	.cfi_def_cfa_offset 16
	.cfi_offset 6, -16
	movq	%rsp, %rbp	#,
	.cfi_def_cfa_register 6
	pushq	%rbx	#
	subq	$664, %rsp	#,
	.cfi_offset 3, -24
# main.cpp:33: {
	.loc 2 33 0
	movq	%fs:40, %rax	#, tmp168
	movq	%rax, -24(%rbp)	# tmp168, D.46027
	xorl	%eax, %eax	# tmp168
# main.cpp:34:     TestInput input;
	.loc 2 34 0
	leaq	-656(%rbp), %rax	#, tmp119
	movq	%rax, %rdi	# tmp119,
	call	_ZN9TestInputC1Ev	#
.LBB4:
# main.cpp:35:     for (int joana1 = 0; joana1 < sizeTest; joana1++)
	.loc 2 35 0
	movl	$0, -664(%rbp)	#, joana1
.L8:
# main.cpp:35:     for (int joana1 = 0; joana1 < sizeTest; joana1++)
	.loc 2 35 0 is_stmt 0 discriminator 2
	cmpl	$89, -664(%rbp)	#, joana1
	jg	.L7	#,
# main.cpp:37:         input.data1.push_back(joana1);
	.loc 2 37 0 is_stmt 1
	movl	-664(%rbp), %eax	# joana1, tmp120
	movw	%ax, -666(%rbp)	# _1, D.40745
	leaq	-666(%rbp), %rdx	#, tmp121
	leaq	-656(%rbp), %rax	#, tmp122
	movq	%rdx, %rsi	# tmp121,
	movq	%rax, %rdi	# tmp122,
.LEHB0:
	call	_ZNSt6vectorIsSaIsEE9push_backEOs	#
# main.cpp:38:         input.data2.push_back(joana1);
	.loc 2 38 0 discriminator 2
	movl	-664(%rbp), %eax	# joana1, tmp123
	movw	%ax, -666(%rbp)	# _2, D.40746
	leaq	-666(%rbp), %rax	#, tmp124
	leaq	-656(%rbp), %rdx	#, tmp125
	addq	$24, %rdx	#, tmp126
	movq	%rax, %rsi	# tmp124,
	movq	%rdx, %rdi	# tmp126,
	call	_ZNSt6vectorIsSaIsEE9push_backEOs	#
# main.cpp:39:         input.data3.push_back(joana1);
	.loc 2 39 0 discriminator 2
	movl	-664(%rbp), %eax	# joana1, tmp127
	movw	%ax, -666(%rbp)	# _3, D.40747
	leaq	-666(%rbp), %rax	#, tmp128
	leaq	-656(%rbp), %rdx	#, tmp129
	addq	$48, %rdx	#, tmp130
	movq	%rax, %rsi	# tmp128,
	movq	%rdx, %rdi	# tmp130,
	call	_ZNSt6vectorIsSaIsEE9push_backEOs	#
# main.cpp:35:     for (int joana1 = 0; joana1 < sizeTest; joana1++)
	.loc 2 35 0 discriminator 2
	addl	$1, -664(%rbp)	#, joana1
	jmp	.L8	#
.L7:
.LBE4:
# main.cpp:42:     std::cout << "Size input.data1: " << input.data1.size() << std::endl;
	.loc 2 42 0
	leaq	.LC0(%rip), %rsi	#,
	leaq	_ZSt4cout(%rip), %rdi	#,
	call	_ZStlsISt11char_traitsIcEERSt13basic_ostreamIcT_ES5_PKc@PLT	#
	movq	%rax, %rbx	#, _4
	leaq	-656(%rbp), %rax	#, tmp131
	movq	%rax, %rdi	# tmp131,
	call	_ZNKSt6vectorIsSaIsEE4sizeEv	#
	movq	%rax, %rsi	# _5,
	movq	%rbx, %rdi	# _4,
	call	_ZNSolsEm@PLT	#
# main.cpp:42:     std::cout << "Size input.data1: " << input.data1.size() << std::endl;
	.loc 2 42 0 is_stmt 0 discriminator 1
	movq	%rax, %rdx	#, _6
	movq	_ZSt4endlIcSt11char_traitsIcEERSt13basic_ostreamIT_T0_ES6_@GOTPCREL(%rip), %rax	#, tmp132
	movq	%rax, %rsi	# tmp132,
	movq	%rdx, %rdi	# _6,
	call	_ZNSolsEPFRSoS_E@PLT	#
# main.cpp:43:     std::cout << "Size input.data2: " << input.data2.size() << std::endl;
	.loc 2 43 0 is_stmt 1
	leaq	.LC1(%rip), %rsi	#,
	leaq	_ZSt4cout(%rip), %rdi	#,
	call	_ZStlsISt11char_traitsIcEERSt13basic_ostreamIcT_ES5_PKc@PLT	#
	movq	%rax, %rbx	#, _7
	leaq	-656(%rbp), %rax	#, tmp133
	addq	$24, %rax	#, tmp134
	movq	%rax, %rdi	# tmp134,
	call	_ZNKSt6vectorIsSaIsEE4sizeEv	#
	movq	%rax, %rsi	# _8,
	movq	%rbx, %rdi	# _7,
	call	_ZNSolsEm@PLT	#
# main.cpp:43:     std::cout << "Size input.data2: " << input.data2.size() << std::endl;
	.loc 2 43 0 is_stmt 0 discriminator 1
	movq	%rax, %rdx	#, _9
	movq	_ZSt4endlIcSt11char_traitsIcEERSt13basic_ostreamIT_T0_ES6_@GOTPCREL(%rip), %rax	#, tmp135
	movq	%rax, %rsi	# tmp135,
	movq	%rdx, %rdi	# _9,
	call	_ZNSolsEPFRSoS_E@PLT	#
# main.cpp:44:     std::cout << "Size input.data3: " << input.data3.size() << std::endl;
	.loc 2 44 0 is_stmt 1
	leaq	.LC2(%rip), %rsi	#,
	leaq	_ZSt4cout(%rip), %rdi	#,
	call	_ZStlsISt11char_traitsIcEERSt13basic_ostreamIcT_ES5_PKc@PLT	#
	movq	%rax, %rbx	#, _10
	leaq	-656(%rbp), %rax	#, tmp136
	addq	$48, %rax	#, tmp137
	movq	%rax, %rdi	# tmp137,
	call	_ZNKSt6vectorIsSaIsEE4sizeEv	#
	movq	%rax, %rsi	# _11,
	movq	%rbx, %rdi	# _10,
	call	_ZNSolsEm@PLT	#
# main.cpp:44:     std::cout << "Size input.data3: " << input.data3.size() << std::endl;
	.loc 2 44 0 is_stmt 0 discriminator 1
	movq	%rax, %rdx	#, _12
	movq	_ZSt4endlIcSt11char_traitsIcEERSt13basic_ostreamIT_T0_ES6_@GOTPCREL(%rip), %rax	#, tmp138
	movq	%rax, %rsi	# tmp138,
	movq	%rdx, %rdi	# _12,
	call	_ZNSolsEPFRSoS_E@PLT	#
# main.cpp:45:     input.data1.resize(sizeTest);
	.loc 2 45 0 is_stmt 1
	leaq	-656(%rbp), %rax	#, tmp139
	movl	$90, %esi	#,
	movq	%rax, %rdi	# tmp139,
	call	_ZNSt6vectorIsSaIsEE6resizeEm	#
# main.cpp:46:     input.data2.resize(sizeTest);
	.loc 2 46 0
	leaq	-656(%rbp), %rax	#, tmp140
	addq	$24, %rax	#, tmp141
	movl	$90, %esi	#,
	movq	%rax, %rdi	# tmp141,
	call	_ZNSt6vectorIsSaIsEE6resizeEm	#
# main.cpp:47:     input.data3.resize(sizeTest);
	.loc 2 47 0
	leaq	-656(%rbp), %rax	#, tmp142
	addq	$48, %rax	#, tmp143
	movl	$90, %esi	#,
	movq	%rax, %rdi	# tmp143,
	call	_ZNSt6vectorIsSaIsEE6resizeEm	#
# main.cpp:49:     std::cout << "Size MainTest: " << sizeof(MainTest) << std::endl;
	.loc 2 49 0
	leaq	.LC3(%rip), %rsi	#,
	leaq	_ZSt4cout(%rip), %rdi	#,
	call	_ZStlsISt11char_traitsIcEERSt13basic_ostreamIcT_ES5_PKc@PLT	#
	movl	$541, %esi	#,
	movq	%rax, %rdi	# _13,
	call	_ZNSolsEm@PLT	#
# main.cpp:49:     std::cout << "Size MainTest: " << sizeof(MainTest) << std::endl;
	.loc 2 49 0 is_stmt 0 discriminator 1
	movq	%rax, %rdx	#, _14
	movq	_ZSt4endlIcSt11char_traitsIcEERSt13basic_ostreamIT_T0_ES6_@GOTPCREL(%rip), %rax	#, tmp144
	movq	%rax, %rsi	# tmp144,
	movq	%rdx, %rdi	# _14,
	call	_ZNSolsEPFRSoS_E@PLT	#
.LBB5:
# main.cpp:51:     for (int joana2 = 0; joana2 < sizeTest; joana2++)
	.loc 2 51 0 is_stmt 1
	movl	$0, -660(%rbp)	#, joana2
.L10:
# main.cpp:51:     for (int joana2 = 0; joana2 < sizeTest; joana2++)
	.loc 2 51 0 is_stmt 0 discriminator 3
	cmpl	$89, -660(%rbp)	#, joana2
	jg	.L9	#,
# main.cpp:53:         test.output.data1[joana2] = input.data1[joana2];
	.loc 2 53 0 is_stmt 1 discriminator 2
	movl	-660(%rbp), %eax	# joana2, tmp145
	movslq	%eax, %rdx	# tmp145, _15
	leaq	-656(%rbp), %rax	#, tmp146
	movq	%rdx, %rsi	# _15,
	movq	%rax, %rdi	# tmp146,
	call	_ZNSt6vectorIsSaIsEEixEm	#
	movzwl	(%rax), %edx	# *_16, _17
	movl	-660(%rbp), %eax	# joana2, tmp148
	cltq
	movw	%dx, -575(%rbp,%rax,2)	# _17, test.output.data1
# main.cpp:54:         test.output.data2[joana2] = input.data2[joana2];
	.loc 2 54 0 discriminator 2
	movl	-660(%rbp), %eax	# joana2, tmp149
	cltq
	leaq	-656(%rbp), %rdx	#, tmp150
	addq	$24, %rdx	#, tmp151
	movq	%rax, %rsi	# _18,
	movq	%rdx, %rdi	# tmp151,
	call	_ZNSt6vectorIsSaIsEEixEm	#
	movzwl	(%rax), %eax	# *_19, _20
	movl	-660(%rbp), %edx	# joana2, tmp153
	movslq	%edx, %rdx	# tmp153, tmp152
	addq	$88, %rdx	#, tmp154
	movw	%ax, -571(%rbp,%rdx,2)	# _20, test.output.data2
# main.cpp:55:         test.output.data3[joana2] = input.data3[joana2];
	.loc 2 55 0 discriminator 2
	movl	-660(%rbp), %eax	# joana2, tmp155
	cltq
	leaq	-656(%rbp), %rdx	#, tmp156
	addq	$48, %rdx	#, tmp157
	movq	%rax, %rsi	# _21,
	movq	%rdx, %rdi	# tmp157,
	call	_ZNSt6vectorIsSaIsEEixEm	#
	movzwl	(%rax), %eax	# *_22, _23
	movl	-660(%rbp), %edx	# joana2, tmp159
	movslq	%edx, %rdx	# tmp159, tmp158
	addq	$176, %rdx	#, tmp160
	movw	%ax, -567(%rbp,%rdx,2)	# _23, test.output.data3
# main.cpp:51:     for (int joana2 = 0; joana2 < sizeTest; joana2++)
	.loc 2 51 0 discriminator 2
	addl	$1, -660(%rbp)	#, joana2
	jmp	.L10	#
.L9:
.LBE5:
# main.cpp:57:     std::cout << "Size test.output.data1: " << sizeof(test.output.data1) << std::endl;
	.loc 2 57 0
	leaq	.LC4(%rip), %rsi	#,
	leaq	_ZSt4cout(%rip), %rdi	#,
	call	_ZStlsISt11char_traitsIcEERSt13basic_ostreamIcT_ES5_PKc@PLT	#
	movl	$180, %esi	#,
	movq	%rax, %rdi	# _24,
	call	_ZNSolsEm@PLT	#
# main.cpp:57:     std::cout << "Size test.output.data1: " << sizeof(test.output.data1) << std::endl;
	.loc 2 57 0 is_stmt 0 discriminator 1
	movq	%rax, %rdx	#, _25
	movq	_ZSt4endlIcSt11char_traitsIcEERSt13basic_ostreamIT_T0_ES6_@GOTPCREL(%rip), %rax	#, tmp161
	movq	%rax, %rsi	# tmp161,
	movq	%rdx, %rdi	# _25,
	call	_ZNSolsEPFRSoS_E@PLT	#
# main.cpp:58:     std::cout << "Size test.output.data2: " << sizeof(test.output.data2) << std::endl;
	.loc 2 58 0 is_stmt 1
	leaq	.LC5(%rip), %rsi	#,
	leaq	_ZSt4cout(%rip), %rdi	#,
	call	_ZStlsISt11char_traitsIcEERSt13basic_ostreamIcT_ES5_PKc@PLT	#
	movl	$180, %esi	#,
	movq	%rax, %rdi	# _26,
	call	_ZNSolsEm@PLT	#
# main.cpp:58:     std::cout << "Size test.output.data2: " << sizeof(test.output.data2) << std::endl;
	.loc 2 58 0 is_stmt 0 discriminator 1
	movq	%rax, %rdx	#, _27
	movq	_ZSt4endlIcSt11char_traitsIcEERSt13basic_ostreamIT_T0_ES6_@GOTPCREL(%rip), %rax	#, tmp162
	movq	%rax, %rsi	# tmp162,
	movq	%rdx, %rdi	# _27,
	call	_ZNSolsEPFRSoS_E@PLT	#
# main.cpp:59:     std::cout << "Size test.output.data3: " << sizeof(test.output.data3) << std::endl;
	.loc 2 59 0 is_stmt 1
	leaq	.LC6(%rip), %rsi	#,
	leaq	_ZSt4cout(%rip), %rdi	#,
	call	_ZStlsISt11char_traitsIcEERSt13basic_ostreamIcT_ES5_PKc@PLT	#
	movl	$180, %esi	#,
	movq	%rax, %rdi	# _28,
	call	_ZNSolsEm@PLT	#
# main.cpp:59:     std::cout << "Size test.output.data3: " << sizeof(test.output.data3) << std::endl;
	.loc 2 59 0 is_stmt 0 discriminator 1
	movq	%rax, %rdx	#, _29
	movq	_ZSt4endlIcSt11char_traitsIcEERSt13basic_ostreamIT_T0_ES6_@GOTPCREL(%rip), %rax	#, tmp163
	movq	%rax, %rsi	# tmp163,
	movq	%rdx, %rdi	# _29,
	call	_ZNSolsEPFRSoS_E@PLT	#
.LEHE0:
# main.cpp:61:     return 0;
	.loc 2 61 0 is_stmt 1
	movl	$0, %ebx	#, _100
# main.cpp:34:     TestInput input;
	.loc 2 34 0
	leaq	-656(%rbp), %rax	#, tmp164
	movq	%rax, %rdi	# tmp164,
	call	_ZN9TestInputD1Ev	#
	movl	%ebx, %eax	# _100, <retval>
# main.cpp:62: }
	.loc 2 62 0
	movq	-24(%rbp), %rcx	# D.46027, tmp169
	xorq	%fs:40, %rcx	#, tmp169
	je	.L13	#,
	jmp	.L15	#
.L14:
	movq	%rax, %rbx	#, tmp167
# main.cpp:34:     TestInput input;
	.loc 2 34 0
	leaq	-656(%rbp), %rax	#, tmp166
	movq	%rax, %rdi	# tmp166,
	call	_ZN9TestInputD1Ev	#
	movq	%rbx, %rax	# tmp167, D.46025
	movq	%rax, %rdi	# D.46025,
.LEHB1:
	call	_Unwind_Resume@PLT	#
.LEHE1:
.L15:
# main.cpp:62: }
	.loc 2 62 0
	call	__stack_chk_fail@PLT	#
.L13:
	addq	$664, %rsp	#,
	popq	%rbx	#
	popq	%rbp	#
	.cfi_def_cfa 7, 8
	ret
	.cfi_endproc
.LFE1839:
	.globl	__gxx_personality_v0
	.section	.gcc_except_table,"a",@progbits
.LLSDA1839:
	.byte	0xff
	.byte	0xff
	.byte	0x1
	.uleb128 .LLSDACSE1839-.LLSDACSB1839
.LLSDACSB1839:
	.uleb128 .LEHB0-.LFB1839
	.uleb128 .LEHE0-.LEHB0
	.uleb128 .L14-.LFB1839
	.uleb128 0
	.uleb128 .LEHB1-.LFB1839
	.uleb128 .LEHE1-.LEHB1
	.uleb128 0
	.uleb128 0
.LLSDACSE1839:
	.text
	.size	main, .-main
	.section	.text._ZNSt6vectorIsSaIsEEC2Ev,"axG",@progbits,_ZNSt6vectorIsSaIsEEC5Ev,comdat
	.align 2
	.weak	_ZNSt6vectorIsSaIsEEC2Ev
	.type	_ZNSt6vectorIsSaIsEEC2Ev, @function
_ZNSt6vectorIsSaIsEEC2Ev:
.LFB2086:
	.file 3 "/usr/include/c++/7/bits/stl_vector.h"
	.loc 3 259 0
	.cfi_startproc
	.cfi_personality 0x9b,DW.ref.__gxx_personality_v0
	.cfi_lsda 0x1b,.LLSDA2086
	pushq	%rbp	#
	.cfi_def_cfa_offset 16
	.cfi_offset 6, -16
	movq	%rsp, %rbp	#,
	.cfi_def_cfa_register 6
	subq	$16, %rsp	#,
	movq	%rdi, -8(%rbp)	# this, this
.LBB6:
# /usr/include/c++/7/bits/stl_vector.h:263:       : _Base() { }
	.loc 3 263 0
	movq	-8(%rbp), %rax	# this, _1
	movq	%rax, %rdi	# _1,
	call	_ZNSt12_Vector_baseIsSaIsEEC2Ev	#
.LBE6:
	nop
	leave
	.cfi_def_cfa 7, 8
	ret
	.cfi_endproc
.LFE2086:
	.section	.gcc_except_table
.LLSDA2086:
	.byte	0xff
	.byte	0xff
	.byte	0x1
	.uleb128 .LLSDACSE2086-.LLSDACSB2086
.LLSDACSB2086:
.LLSDACSE2086:
	.section	.text._ZNSt6vectorIsSaIsEEC2Ev,"axG",@progbits,_ZNSt6vectorIsSaIsEEC5Ev,comdat
	.size	_ZNSt6vectorIsSaIsEEC2Ev, .-_ZNSt6vectorIsSaIsEEC2Ev
	.weak	_ZNSt6vectorIsSaIsEEC1Ev
	.set	_ZNSt6vectorIsSaIsEEC1Ev,_ZNSt6vectorIsSaIsEEC2Ev
	.section	.text._ZNSt6vectorIsSaIsEED2Ev,"axG",@progbits,_ZNSt6vectorIsSaIsEED5Ev,comdat
	.align 2
	.weak	_ZNSt6vectorIsSaIsEED2Ev
	.type	_ZNSt6vectorIsSaIsEED2Ev, @function
_ZNSt6vectorIsSaIsEED2Ev:
.LFB2089:
	.loc 3 433 0
	.cfi_startproc
	.cfi_personality 0x9b,DW.ref.__gxx_personality_v0
	.cfi_lsda 0x1b,.LLSDA2089
	pushq	%rbp	#
	.cfi_def_cfa_offset 16
	.cfi_offset 6, -16
	movq	%rsp, %rbp	#,
	.cfi_def_cfa_register 6
	subq	$16, %rsp	#,
	movq	%rdi, -8(%rbp)	# this, this
.LBB7:
# /usr/include/c++/7/bits/stl_vector.h:435: 		      _M_get_Tp_allocator()); }
	.loc 3 435 0
	movq	-8(%rbp), %rax	# this, _1
	movq	%rax, %rdi	# _1,
	call	_ZNSt12_Vector_baseIsSaIsEE19_M_get_Tp_allocatorEv	#
	movq	%rax, %rdx	#, _2
# /usr/include/c++/7/bits/stl_vector.h:434:       { std::_Destroy(this->_M_impl._M_start, this->_M_impl._M_finish,
	.loc 3 434 0
	movq	-8(%rbp), %rax	# this, tmp92
	movq	8(%rax), %rcx	# this_6(D)->D.40629._M_impl._M_finish, _3
	movq	-8(%rbp), %rax	# this, tmp93
	movq	(%rax), %rax	# this_6(D)->D.40629._M_impl._M_start, _4
	movq	%rcx, %rsi	# _3,
	movq	%rax, %rdi	# _4,
	call	_ZSt8_DestroyIPssEvT_S1_RSaIT0_E	#
# /usr/include/c++/7/bits/stl_vector.h:435: 		      _M_get_Tp_allocator()); }
	.loc 3 435 0
	movq	-8(%rbp), %rax	# this, _5
	movq	%rax, %rdi	# _5,
	call	_ZNSt12_Vector_baseIsSaIsEED2Ev	#
.LBE7:
	nop
	leave
	.cfi_def_cfa 7, 8
	ret
	.cfi_endproc
.LFE2089:
	.section	.gcc_except_table
.LLSDA2089:
	.byte	0xff
	.byte	0xff
	.byte	0x1
	.uleb128 .LLSDACSE2089-.LLSDACSB2089
.LLSDACSB2089:
.LLSDACSE2089:
	.section	.text._ZNSt6vectorIsSaIsEED2Ev,"axG",@progbits,_ZNSt6vectorIsSaIsEED5Ev,comdat
	.size	_ZNSt6vectorIsSaIsEED2Ev, .-_ZNSt6vectorIsSaIsEED2Ev
	.weak	_ZNSt6vectorIsSaIsEED1Ev
	.set	_ZNSt6vectorIsSaIsEED1Ev,_ZNSt6vectorIsSaIsEED2Ev
	.section	.text._ZSt4moveIRsEONSt16remove_referenceIT_E4typeEOS2_,"axG",@progbits,_ZSt4moveIRsEONSt16remove_referenceIT_E4typeEOS2_,comdat
	.weak	_ZSt4moveIRsEONSt16remove_referenceIT_E4typeEOS2_
	.type	_ZSt4moveIRsEONSt16remove_referenceIT_E4typeEOS2_, @function
_ZSt4moveIRsEONSt16remove_referenceIT_E4typeEOS2_:
.LFB2092:
	.file 4 "/usr/include/c++/7/bits/move.h"
	.loc 4 98 0
	.cfi_startproc
	pushq	%rbp	#
	.cfi_def_cfa_offset 16
	.cfi_offset 6, -16
	movq	%rsp, %rbp	#,
	.cfi_def_cfa_register 6
	movq	%rdi, -8(%rbp)	# __t, __t
# /usr/include/c++/7/bits/move.h:99:     { return static_cast<typename std::remove_reference<_Tp>::type&&>(__t); }
	.loc 4 99 0
	movq	-8(%rbp), %rax	# __t, _2
	popq	%rbp	#
	.cfi_def_cfa 7, 8
	ret
	.cfi_endproc
.LFE2092:
	.size	_ZSt4moveIRsEONSt16remove_referenceIT_E4typeEOS2_, .-_ZSt4moveIRsEONSt16remove_referenceIT_E4typeEOS2_
	.section	.text._ZNSt6vectorIsSaIsEE9push_backEOs,"axG",@progbits,_ZNSt6vectorIsSaIsEE9push_backEOs,comdat
	.align 2
	.weak	_ZNSt6vectorIsSaIsEE9push_backEOs
	.type	_ZNSt6vectorIsSaIsEE9push_backEOs, @function
_ZNSt6vectorIsSaIsEE9push_backEOs:
.LFB2091:
	.loc 3 953 0
	.cfi_startproc
	pushq	%rbp	#
	.cfi_def_cfa_offset 16
	.cfi_offset 6, -16
	movq	%rsp, %rbp	#,
	.cfi_def_cfa_register 6
	subq	$16, %rsp	#,
	movq	%rdi, -8(%rbp)	# this, this
	movq	%rsi, -16(%rbp)	# __x, __x
# /usr/include/c++/7/bits/stl_vector.h:954:       { emplace_back(std::move(__x)); }
	.loc 3 954 0
	movq	-16(%rbp), %rax	# __x, tmp88
	movq	%rax, %rdi	# tmp88,
	call	_ZSt4moveIRsEONSt16remove_referenceIT_E4typeEOS2_	#
	movq	%rax, %rdx	#, _1
	movq	-8(%rbp), %rax	# this, tmp89
	movq	%rdx, %rsi	# _1,
	movq	%rax, %rdi	# tmp89,
	call	_ZNSt6vectorIsSaIsEE12emplace_backIJsEEEvDpOT_	#
	nop
	leave
	.cfi_def_cfa 7, 8
	ret
	.cfi_endproc
.LFE2091:
	.size	_ZNSt6vectorIsSaIsEE9push_backEOs, .-_ZNSt6vectorIsSaIsEE9push_backEOs
	.section	.text._ZNKSt6vectorIsSaIsEE4sizeEv,"axG",@progbits,_ZNKSt6vectorIsSaIsEE4sizeEv,comdat
	.align 2
	.weak	_ZNKSt6vectorIsSaIsEE4sizeEv
	.type	_ZNKSt6vectorIsSaIsEE4sizeEv, @function
_ZNKSt6vectorIsSaIsEE4sizeEv:
.LFB2094:
	.loc 3 670 0
	.cfi_startproc
	pushq	%rbp	#
	.cfi_def_cfa_offset 16
	.cfi_offset 6, -16
	movq	%rsp, %rbp	#,
	.cfi_def_cfa_register 6
	movq	%rdi, -8(%rbp)	# this, this
# /usr/include/c++/7/bits/stl_vector.h:671:       { return size_type(this->_M_impl._M_finish - this->_M_impl._M_start); }
	.loc 3 671 0
	movq	-8(%rbp), %rax	# this, tmp95
	movq	8(%rax), %rax	# this_8(D)->D.40629._M_impl._M_finish, _1
	movq	%rax, %rdx	# _1, _2
	movq	-8(%rbp), %rax	# this, tmp96
	movq	(%rax), %rax	# this_8(D)->D.40629._M_impl._M_start, _3
	subq	%rax, %rdx	# _4, _2
	movq	%rdx, %rax	# _2, _5
	sarq	%rax	# tmp97
	popq	%rbp	#
	.cfi_def_cfa 7, 8
	ret
	.cfi_endproc
.LFE2094:
	.size	_ZNKSt6vectorIsSaIsEE4sizeEv, .-_ZNKSt6vectorIsSaIsEE4sizeEv
	.section	.text._ZNSt6vectorIsSaIsEE6resizeEm,"axG",@progbits,_ZNSt6vectorIsSaIsEE6resizeEm,comdat
	.align 2
	.weak	_ZNSt6vectorIsSaIsEE6resizeEm
	.type	_ZNSt6vectorIsSaIsEE6resizeEm, @function
_ZNSt6vectorIsSaIsEE6resizeEm:
.LFB2096:
	.loc 3 689 0
	.cfi_startproc
	pushq	%rbp	#
	.cfi_def_cfa_offset 16
	.cfi_offset 6, -16
	movq	%rsp, %rbp	#,
	.cfi_def_cfa_register 6
	subq	$16, %rsp	#,
	movq	%rdi, -8(%rbp)	# this, this
	movq	%rsi, -16(%rbp)	# __new_size, __new_size
# /usr/include/c++/7/bits/stl_vector.h:691: 	if (__new_size > size())
	.loc 3 691 0
	movq	-8(%rbp), %rax	# this, tmp96
	movq	%rax, %rdi	# tmp96,
	call	_ZNKSt6vectorIsSaIsEE4sizeEv	#
	cmpq	%rax, -16(%rbp)	# _1, __new_size
	seta	%al	#, retval.11_13
	testb	%al, %al	# retval.11_13
	je	.L24	#,
# /usr/include/c++/7/bits/stl_vector.h:692: 	  _M_default_append(__new_size - size());
	.loc 3 692 0
	movq	-8(%rbp), %rax	# this, tmp97
	movq	%rax, %rdi	# tmp97,
	call	_ZNKSt6vectorIsSaIsEE4sizeEv	#
	movq	%rax, %rdx	#, _2
	movq	-16(%rbp), %rax	# __new_size, tmp98
	subq	%rdx, %rax	# _2, tmp98
	movq	%rax, %rdx	# tmp98, _3
	movq	-8(%rbp), %rax	# this, tmp99
	movq	%rdx, %rsi	# _3,
	movq	%rax, %rdi	# tmp99,
	call	_ZNSt6vectorIsSaIsEE17_M_default_appendEm	#
# /usr/include/c++/7/bits/stl_vector.h:695:       }
	.loc 3 695 0
	jmp	.L26	#
.L24:
# /usr/include/c++/7/bits/stl_vector.h:693: 	else if (__new_size < size())
	.loc 3 693 0
	movq	-8(%rbp), %rax	# this, tmp100
	movq	%rax, %rdi	# tmp100,
	call	_ZNKSt6vectorIsSaIsEE4sizeEv	#
	cmpq	%rax, -16(%rbp)	# _4, __new_size
	setb	%al	#, retval.12_15
	testb	%al, %al	# retval.12_15
	je	.L26	#,
# /usr/include/c++/7/bits/stl_vector.h:694: 	  _M_erase_at_end(this->_M_impl._M_start + __new_size);
	.loc 3 694 0
	movq	-8(%rbp), %rax	# this, tmp101
	movq	(%rax), %rax	# this_10(D)->D.40629._M_impl._M_start, _5
	movq	-16(%rbp), %rdx	# __new_size, tmp102
	addq	%rdx, %rdx	# _6
	addq	%rax, %rdx	# _5, _7
	movq	-8(%rbp), %rax	# this, tmp103
	movq	%rdx, %rsi	# _7,
	movq	%rax, %rdi	# tmp103,
	call	_ZNSt6vectorIsSaIsEE15_M_erase_at_endEPs	#
.L26:
# /usr/include/c++/7/bits/stl_vector.h:695:       }
	.loc 3 695 0
	nop
	leave
	.cfi_def_cfa 7, 8
	ret
	.cfi_endproc
.LFE2096:
	.size	_ZNSt6vectorIsSaIsEE6resizeEm, .-_ZNSt6vectorIsSaIsEE6resizeEm
	.section	.text._ZNSt6vectorIsSaIsEEixEm,"axG",@progbits,_ZNSt6vectorIsSaIsEEixEm,comdat
	.align 2
	.weak	_ZNSt6vectorIsSaIsEEixEm
	.type	_ZNSt6vectorIsSaIsEEixEm, @function
_ZNSt6vectorIsSaIsEEixEm:
.LFB2097:
	.loc 3 795 0
	.cfi_startproc
	pushq	%rbp	#
	.cfi_def_cfa_offset 16
	.cfi_offset 6, -16
	movq	%rsp, %rbp	#,
	.cfi_def_cfa_register 6
	movq	%rdi, -8(%rbp)	# this, this
	movq	%rsi, -16(%rbp)	# __n, __n
# /usr/include/c++/7/bits/stl_vector.h:798: 	return *(this->_M_impl._M_start + __n);
	.loc 3 798 0
	movq	-8(%rbp), %rax	# this, tmp91
	movq	(%rax), %rax	# this_4(D)->D.40629._M_impl._M_start, _1
	movq	-16(%rbp), %rdx	# __n, tmp92
	addq	%rdx, %rdx	# _2
	addq	%rdx, %rax	# _2, _6
# /usr/include/c++/7/bits/stl_vector.h:799:       }
	.loc 3 799 0
	popq	%rbp	#
	.cfi_def_cfa 7, 8
	ret
	.cfi_endproc
.LFE2097:
	.size	_ZNSt6vectorIsSaIsEEixEm, .-_ZNSt6vectorIsSaIsEEixEm
	.section	.text._ZNSt12_Vector_baseIsSaIsEE12_Vector_implD2Ev,"axG",@progbits,_ZNSt12_Vector_baseIsSaIsEE12_Vector_implD5Ev,comdat
	.align 2
	.weak	_ZNSt12_Vector_baseIsSaIsEE12_Vector_implD2Ev
	.type	_ZNSt12_Vector_baseIsSaIsEE12_Vector_implD2Ev, @function
_ZNSt12_Vector_baseIsSaIsEE12_Vector_implD2Ev:
.LFB2212:
	.loc 3 81 0
	.cfi_startproc
	pushq	%rbp	#
	.cfi_def_cfa_offset 16
	.cfi_offset 6, -16
	movq	%rsp, %rbp	#,
	.cfi_def_cfa_register 6
	subq	$16, %rsp	#,
	movq	%rdi, -8(%rbp)	# this, this
.LBB8:
# /usr/include/c++/7/bits/stl_vector.h:81:       struct _Vector_impl
	.loc 3 81 0
	movq	-8(%rbp), %rax	# this, tmp87
	movq	%rax, %rdi	# tmp87,
	call	_ZNSaIsED2Ev	#
.LBE8:
	nop
	leave
	.cfi_def_cfa 7, 8
	ret
	.cfi_endproc
.LFE2212:
	.size	_ZNSt12_Vector_baseIsSaIsEE12_Vector_implD2Ev, .-_ZNSt12_Vector_baseIsSaIsEE12_Vector_implD2Ev
	.weak	_ZNSt12_Vector_baseIsSaIsEE12_Vector_implD1Ev
	.set	_ZNSt12_Vector_baseIsSaIsEE12_Vector_implD1Ev,_ZNSt12_Vector_baseIsSaIsEE12_Vector_implD2Ev
	.section	.text._ZNSt12_Vector_baseIsSaIsEEC2Ev,"axG",@progbits,_ZNSt12_Vector_baseIsSaIsEEC5Ev,comdat
	.align 2
	.weak	_ZNSt12_Vector_baseIsSaIsEEC2Ev
	.type	_ZNSt12_Vector_baseIsSaIsEEC2Ev, @function
_ZNSt12_Vector_baseIsSaIsEEC2Ev:
.LFB2214:
	.loc 3 126 0
	.cfi_startproc
	pushq	%rbp	#
	.cfi_def_cfa_offset 16
	.cfi_offset 6, -16
	movq	%rsp, %rbp	#,
	.cfi_def_cfa_register 6
	subq	$16, %rsp	#,
	movq	%rdi, -8(%rbp)	# this, this
.LBB9:
# /usr/include/c++/7/bits/stl_vector.h:127:       : _M_impl() { }
	.loc 3 127 0
	movq	-8(%rbp), %rax	# this, _1
	movq	%rax, %rdi	# _1,
	call	_ZNSt12_Vector_baseIsSaIsEE12_Vector_implC1Ev	#
.LBE9:
	nop
	leave
	.cfi_def_cfa 7, 8
	ret
	.cfi_endproc
.LFE2214:
	.size	_ZNSt12_Vector_baseIsSaIsEEC2Ev, .-_ZNSt12_Vector_baseIsSaIsEEC2Ev
	.weak	_ZNSt12_Vector_baseIsSaIsEEC1Ev
	.set	_ZNSt12_Vector_baseIsSaIsEEC1Ev,_ZNSt12_Vector_baseIsSaIsEEC2Ev
	.section	.text._ZNSt12_Vector_baseIsSaIsEED2Ev,"axG",@progbits,_ZNSt12_Vector_baseIsSaIsEED5Ev,comdat
	.align 2
	.weak	_ZNSt12_Vector_baseIsSaIsEED2Ev
	.type	_ZNSt12_Vector_baseIsSaIsEED2Ev, @function
_ZNSt12_Vector_baseIsSaIsEED2Ev:
.LFB2217:
	.loc 3 161 0
	.cfi_startproc
	.cfi_personality 0x9b,DW.ref.__gxx_personality_v0
	.cfi_lsda 0x1b,.LLSDA2217
	pushq	%rbp	#
	.cfi_def_cfa_offset 16
	.cfi_offset 6, -16
	movq	%rsp, %rbp	#,
	.cfi_def_cfa_register 6
	subq	$16, %rsp	#,
	movq	%rdi, -8(%rbp)	# this, this
.LBB10:
# /usr/include/c++/7/bits/stl_vector.h:162:       { _M_deallocate(this->_M_impl._M_start, this->_M_impl._M_end_of_storage
	.loc 3 162 0
	movq	-8(%rbp), %rax	# this, tmp96
	movq	16(%rax), %rax	# this_11(D)->_M_impl._M_end_of_storage, _1
# /usr/include/c++/7/bits/stl_vector.h:163: 		      - this->_M_impl._M_start); }
	.loc 3 163 0
	movq	%rax, %rdx	# _1, _2
	movq	-8(%rbp), %rax	# this, tmp97
	movq	(%rax), %rax	# this_11(D)->_M_impl._M_start, _3
	subq	%rax, %rdx	# _4, _2
	movq	%rdx, %rax	# _2, _5
	sarq	%rax	# tmp98
# /usr/include/c++/7/bits/stl_vector.h:162:       { _M_deallocate(this->_M_impl._M_start, this->_M_impl._M_end_of_storage
	.loc 3 162 0
	movq	%rax, %rdx	# _6, _7
	movq	-8(%rbp), %rax	# this, tmp99
	movq	(%rax), %rcx	# this_11(D)->_M_impl._M_start, _8
	movq	-8(%rbp), %rax	# this, tmp100
	movq	%rcx, %rsi	# _8,
	movq	%rax, %rdi	# tmp100,
	call	_ZNSt12_Vector_baseIsSaIsEE13_M_deallocateEPsm	#
# /usr/include/c++/7/bits/stl_vector.h:163: 		      - this->_M_impl._M_start); }
	.loc 3 163 0
	movq	-8(%rbp), %rax	# this, _9
	movq	%rax, %rdi	# _9,
	call	_ZNSt12_Vector_baseIsSaIsEE12_Vector_implD1Ev	#
.LBE10:
	nop
	leave
	.cfi_def_cfa 7, 8
	ret
	.cfi_endproc
.LFE2217:
	.section	.gcc_except_table
.LLSDA2217:
	.byte	0xff
	.byte	0xff
	.byte	0x1
	.uleb128 .LLSDACSE2217-.LLSDACSB2217
.LLSDACSB2217:
.LLSDACSE2217:
	.section	.text._ZNSt12_Vector_baseIsSaIsEED2Ev,"axG",@progbits,_ZNSt12_Vector_baseIsSaIsEED5Ev,comdat
	.size	_ZNSt12_Vector_baseIsSaIsEED2Ev, .-_ZNSt12_Vector_baseIsSaIsEED2Ev
	.weak	_ZNSt12_Vector_baseIsSaIsEED1Ev
	.set	_ZNSt12_Vector_baseIsSaIsEED1Ev,_ZNSt12_Vector_baseIsSaIsEED2Ev
	.section	.text._ZNSt12_Vector_baseIsSaIsEE19_M_get_Tp_allocatorEv,"axG",@progbits,_ZNSt12_Vector_baseIsSaIsEE19_M_get_Tp_allocatorEv,comdat
	.align 2
	.weak	_ZNSt12_Vector_baseIsSaIsEE19_M_get_Tp_allocatorEv
	.type	_ZNSt12_Vector_baseIsSaIsEE19_M_get_Tp_allocatorEv, @function
_ZNSt12_Vector_baseIsSaIsEE19_M_get_Tp_allocatorEv:
.LFB2219:
	.loc 3 115 0
	.cfi_startproc
	pushq	%rbp	#
	.cfi_def_cfa_offset 16
	.cfi_offset 6, -16
	movq	%rsp, %rbp	#,
	.cfi_def_cfa_register 6
	movq	%rdi, -8(%rbp)	# this, this
# /usr/include/c++/7/bits/stl_vector.h:116:       { return *static_cast<_Tp_alloc_type*>(&this->_M_impl); }
	.loc 3 116 0
	movq	-8(%rbp), %rax	# this, _2
	popq	%rbp	#
	.cfi_def_cfa 7, 8
	ret
	.cfi_endproc
.LFE2219:
	.size	_ZNSt12_Vector_baseIsSaIsEE19_M_get_Tp_allocatorEv, .-_ZNSt12_Vector_baseIsSaIsEE19_M_get_Tp_allocatorEv
	.section	.text._ZSt8_DestroyIPssEvT_S1_RSaIT0_E,"axG",@progbits,_ZSt8_DestroyIPssEvT_S1_RSaIT0_E,comdat
	.weak	_ZSt8_DestroyIPssEvT_S1_RSaIT0_E
	.type	_ZSt8_DestroyIPssEvT_S1_RSaIT0_E, @function
_ZSt8_DestroyIPssEvT_S1_RSaIT0_E:
.LFB2220:
	.file 5 "/usr/include/c++/7/bits/stl_construct.h"
	.loc 5 203 0
	.cfi_startproc
	pushq	%rbp	#
	.cfi_def_cfa_offset 16
	.cfi_offset 6, -16
	movq	%rsp, %rbp	#,
	.cfi_def_cfa_register 6
	subq	$32, %rsp	#,
	movq	%rdi, -8(%rbp)	# __first, __first
	movq	%rsi, -16(%rbp)	# __last, __last
	movq	%rdx, -24(%rbp)	# D.42935, D.42935
# /usr/include/c++/7/bits/stl_construct.h:206:       _Destroy(__first, __last);
	.loc 5 206 0
	movq	-16(%rbp), %rdx	# __last, tmp87
	movq	-8(%rbp), %rax	# __first, tmp88
	movq	%rdx, %rsi	# tmp87,
	movq	%rax, %rdi	# tmp88,
	call	_ZSt8_DestroyIPsEvT_S1_	#
# /usr/include/c++/7/bits/stl_construct.h:207:     }
	.loc 5 207 0
	nop
	leave
	.cfi_def_cfa 7, 8
	ret
	.cfi_endproc
.LFE2220:
	.size	_ZSt8_DestroyIPssEvT_S1_RSaIT0_E, .-_ZSt8_DestroyIPssEvT_S1_RSaIT0_E
	.section	.text._ZSt7forwardIsEOT_RNSt16remove_referenceIS0_E4typeE,"axG",@progbits,_ZSt7forwardIsEOT_RNSt16remove_referenceIS0_E4typeE,comdat
	.weak	_ZSt7forwardIsEOT_RNSt16remove_referenceIS0_E4typeE
	.type	_ZSt7forwardIsEOT_RNSt16remove_referenceIS0_E4typeE, @function
_ZSt7forwardIsEOT_RNSt16remove_referenceIS0_E4typeE:
.LFB2222:
	.loc 4 73 0
	.cfi_startproc
	pushq	%rbp	#
	.cfi_def_cfa_offset 16
	.cfi_offset 6, -16
	movq	%rsp, %rbp	#,
	.cfi_def_cfa_register 6
	movq	%rdi, -8(%rbp)	# __t, __t
# /usr/include/c++/7/bits/move.h:74:     { return static_cast<_Tp&&>(__t); }
	.loc 4 74 0
	movq	-8(%rbp), %rax	# __t, _2
	popq	%rbp	#
	.cfi_def_cfa 7, 8
	ret
	.cfi_endproc
.LFE2222:
	.size	_ZSt7forwardIsEOT_RNSt16remove_referenceIS0_E4typeE, .-_ZSt7forwardIsEOT_RNSt16remove_referenceIS0_E4typeE
	.section	.text._ZNSt6vectorIsSaIsEE12emplace_backIJsEEEvDpOT_,"axG",@progbits,_ZNSt6vectorIsSaIsEE12emplace_backIJsEEEvDpOT_,comdat
	.align 2
	.weak	_ZNSt6vectorIsSaIsEE12emplace_backIJsEEEvDpOT_
	.type	_ZNSt6vectorIsSaIsEE12emplace_backIJsEEEvDpOT_, @function
_ZNSt6vectorIsSaIsEE12emplace_backIJsEEEvDpOT_:
.LFB2221:
	.file 6 "/usr/include/c++/7/bits/vector.tcc"
	.loc 6 95 0
	.cfi_startproc
	pushq	%rbp	#
	.cfi_def_cfa_offset 16
	.cfi_offset 6, -16
	movq	%rsp, %rbp	#,
	.cfi_def_cfa_register 6
	pushq	%rbx	#
	subq	$24, %rsp	#,
	.cfi_offset 3, -24
	movq	%rdi, -24(%rbp)	# this, this
	movq	%rsi, -32(%rbp)	# __args#0, __args#0
# /usr/include/c++/7/bits/vector.tcc:98: 	if (this->_M_impl._M_finish != this->_M_impl._M_end_of_storage)
	.loc 6 98 0
	movq	-24(%rbp), %rax	# this, tmp96
	movq	8(%rax), %rdx	# this_11(D)->D.40629._M_impl._M_finish, _1
	movq	-24(%rbp), %rax	# this, tmp97
	movq	16(%rax), %rax	# this_11(D)->D.40629._M_impl._M_end_of_storage, _2
	cmpq	%rax, %rdx	# _2, _1
	je	.L38	#,
# /usr/include/c++/7/bits/vector.tcc:100: 	    _Alloc_traits::construct(this->_M_impl, this->_M_impl._M_finish,
	.loc 6 100 0
	movq	-32(%rbp), %rax	# __args#0, tmp98
	movq	%rax, %rdi	# tmp98,
	call	_ZSt7forwardIsEOT_RNSt16remove_referenceIS0_E4typeE	#
	movq	%rax, %rdx	#, _3
	movq	-24(%rbp), %rax	# this, tmp99
	movq	8(%rax), %rcx	# this_11(D)->D.40629._M_impl._M_finish, _4
	movq	-24(%rbp), %rax	# this, _5
	movq	%rcx, %rsi	# _4,
	movq	%rax, %rdi	# _5,
	call	_ZNSt16allocator_traitsISaIsEE9constructIsJsEEEvRS0_PT_DpOT0_	#
# /usr/include/c++/7/bits/vector.tcc:102: 	    ++this->_M_impl._M_finish;
	.loc 6 102 0
	movq	-24(%rbp), %rax	# this, tmp100
	movq	8(%rax), %rax	# this_11(D)->D.40629._M_impl._M_finish, _6
	leaq	2(%rax), %rdx	#, _7
	movq	-24(%rbp), %rax	# this, tmp101
	movq	%rdx, 8(%rax)	# _7, this_11(D)->D.40629._M_impl._M_finish
# /usr/include/c++/7/bits/vector.tcc:109:       }
	.loc 6 109 0
	jmp	.L40	#
.L38:
# /usr/include/c++/7/bits/vector.tcc:105: 	  _M_realloc_insert(end(), std::forward<_Args>(__args)...);
	.loc 6 105 0
	movq	-32(%rbp), %rax	# __args#0, tmp102
	movq	%rax, %rdi	# tmp102,
	call	_ZSt7forwardIsEOT_RNSt16remove_referenceIS0_E4typeE	#
	movq	%rax, %rbx	#, _8
	movq	-24(%rbp), %rax	# this, tmp103
	movq	%rax, %rdi	# tmp103,
	call	_ZNSt6vectorIsSaIsEE3endEv	#
	movq	%rax, %rcx	#, D.45792
	movq	-24(%rbp), %rax	# this, tmp104
	movq	%rbx, %rdx	# _8,
	movq	%rcx, %rsi	# D.45792,
	movq	%rax, %rdi	# tmp104,
	call	_ZNSt6vectorIsSaIsEE17_M_realloc_insertIJsEEEvN9__gnu_cxx17__normal_iteratorIPsS1_EEDpOT_	#
.L40:
# /usr/include/c++/7/bits/vector.tcc:109:       }
	.loc 6 109 0
	nop
	addq	$24, %rsp	#,
	popq	%rbx	#
	popq	%rbp	#
	.cfi_def_cfa 7, 8
	ret
	.cfi_endproc
.LFE2221:
	.size	_ZNSt6vectorIsSaIsEE12emplace_backIJsEEEvDpOT_, .-_ZNSt6vectorIsSaIsEE12emplace_backIJsEEEvDpOT_
	.section	.rodata
.LC7:
	.string	"vector::_M_default_append"
	.section	.text._ZNSt6vectorIsSaIsEE17_M_default_appendEm,"axG",@progbits,_ZNSt6vectorIsSaIsEE17_M_default_appendEm,comdat
	.align 2
	.weak	_ZNSt6vectorIsSaIsEE17_M_default_appendEm
	.type	_ZNSt6vectorIsSaIsEE17_M_default_appendEm, @function
_ZNSt6vectorIsSaIsEE17_M_default_appendEm:
.LFB2224:
	.loc 6 554 0
	.cfi_startproc
	.cfi_personality 0x9b,DW.ref.__gxx_personality_v0
	.cfi_lsda 0x1b,.LLSDA2224
	pushq	%rbp	#
	.cfi_def_cfa_offset 16
	.cfi_offset 6, -16
	movq	%rsp, %rbp	#,
	.cfi_def_cfa_register 6
	pushq	%rbx	#
	subq	$56, %rsp	#,
	.cfi_offset 3, -24
	movq	%rdi, -56(%rbp)	# this, this
	movq	%rsi, -64(%rbp)	# __n, __n
.LBB11:
# /usr/include/c++/7/bits/vector.tcc:557:       if (__n != 0)
	.loc 6 557 0
	cmpq	$0, -64(%rbp)	#, __n
	je	.L50	#,
.LBB12:
.LBB13:
# /usr/include/c++/7/bits/vector.tcc:559: 	  if (size_type(this->_M_impl._M_end_of_storage
	.loc 6 559 0
	movq	-56(%rbp), %rax	# this, tmp135
	movq	16(%rax), %rax	# this_54(D)->D.40629._M_impl._M_end_of_storage, _1
# /usr/include/c++/7/bits/vector.tcc:560: 			- this->_M_impl._M_finish) >= __n)
	.loc 6 560 0
	movq	%rax, %rdx	# _1, _2
	movq	-56(%rbp), %rax	# this, tmp136
	movq	8(%rax), %rax	# this_54(D)->D.40629._M_impl._M_finish, _3
	subq	%rax, %rdx	# _4, _2
	movq	%rdx, %rax	# _2, _5
	sarq	%rax	# tmp137
# /usr/include/c++/7/bits/vector.tcc:559: 	  if (size_type(this->_M_impl._M_end_of_storage
	.loc 6 559 0
	cmpq	%rax, -64(%rbp)	# _7, __n
	ja	.L43	#,
# /usr/include/c++/7/bits/vector.tcc:564: 						 __n, _M_get_Tp_allocator());
	.loc 6 564 0
	movq	-56(%rbp), %rax	# this, _8
	movq	%rax, %rdi	# _8,
	call	_ZNSt12_Vector_baseIsSaIsEE19_M_get_Tp_allocatorEv	#
	movq	%rax, %rdx	#, _9
# /usr/include/c++/7/bits/vector.tcc:563: 		std::__uninitialized_default_n_a(this->_M_impl._M_finish,
	.loc 6 563 0
	movq	-56(%rbp), %rax	# this, tmp138
	movq	8(%rax), %rax	# this_54(D)->D.40629._M_impl._M_finish, _10
	movq	-64(%rbp), %rcx	# __n, tmp139
	movq	%rcx, %rsi	# tmp139,
	movq	%rax, %rdi	# _10,
.LEHB2:
	call	_ZSt27__uninitialized_default_n_aIPsmsET_S1_T0_RSaIT1_E	#
	movq	%rax, %rdx	#, _11
# /usr/include/c++/7/bits/vector.tcc:562: 	      this->_M_impl._M_finish =
	.loc 6 562 0
	movq	-56(%rbp), %rax	# this, tmp140
	movq	%rdx, 8(%rax)	# _11, this_54(D)->D.40629._M_impl._M_finish
.LBE13:
.LBE12:
.LBE11:
# /usr/include/c++/7/bits/vector.tcc:600:     }
	.loc 6 600 0
	jmp	.L50	#
.L43:
.LBB20:
.LBB18:
.LBB16:
.LBB14:
# /usr/include/c++/7/bits/vector.tcc:568: 	      const size_type __len =
	.loc 6 568 0
	movq	-64(%rbp), %rcx	# __n, tmp141
	movq	-56(%rbp), %rax	# this, tmp142
	leaq	.LC7(%rip), %rdx	#,
	movq	%rcx, %rsi	# tmp141,
	movq	%rax, %rdi	# tmp142,
	call	_ZNKSt6vectorIsSaIsEE12_M_check_lenEmPKc	#
	movq	%rax, -40(%rbp)	# _56, __len
# /usr/include/c++/7/bits/vector.tcc:570: 	      const size_type __size = this->size();
	.loc 6 570 0
	movq	-56(%rbp), %rax	# this, tmp143
	movq	%rax, %rdi	# tmp143,
	call	_ZNKSt6vectorIsSaIsEE4sizeEv	#
	movq	%rax, -32(%rbp)	# tmp144, __size
# /usr/include/c++/7/bits/vector.tcc:571: 	      pointer __new_start(this->_M_allocate(__len));
	.loc 6 571 0
	movq	-56(%rbp), %rax	# this, _12
	movq	-40(%rbp), %rdx	# __len, tmp145
	movq	%rdx, %rsi	# tmp145,
	movq	%rax, %rdi	# _12,
	call	_ZNSt12_Vector_baseIsSaIsEE11_M_allocateEm	#
.LEHE2:
	movq	%rax, -24(%rbp)	# _61, __new_start
# /usr/include/c++/7/bits/vector.tcc:572: 	      pointer __destroy_from = pointer();
	.loc 6 572 0
	movq	$0, -48(%rbp)	#, __destroy_from
# /usr/include/c++/7/bits/vector.tcc:576: 						   __n, _M_get_Tp_allocator());
	.loc 6 576 0
	movq	-56(%rbp), %rax	# this, _13
	movq	%rax, %rdi	# _13,
	call	_ZNSt12_Vector_baseIsSaIsEE19_M_get_Tp_allocatorEv	#
	movq	%rax, %rsi	#, _14
# /usr/include/c++/7/bits/vector.tcc:575: 		  std::__uninitialized_default_n_a(__new_start + __size,
	.loc 6 575 0
	movq	-32(%rbp), %rax	# __size, tmp146
	leaq	(%rax,%rax), %rdx	#, _15
	movq	-24(%rbp), %rax	# __new_start, tmp147
	leaq	(%rdx,%rax), %rcx	#, _16
	movq	-64(%rbp), %rax	# __n, tmp148
	movq	%rsi, %rdx	# _14,
	movq	%rax, %rsi	# tmp148,
	movq	%rcx, %rdi	# _16,
.LEHB3:
	call	_ZSt27__uninitialized_default_n_aIPsmsET_S1_T0_RSaIT1_E	#
# /usr/include/c++/7/bits/vector.tcc:577: 		  __destroy_from = __new_start + __size;
	.loc 6 577 0
	movq	-32(%rbp), %rax	# __size, tmp149
	leaq	(%rax,%rax), %rdx	#, _17
	movq	-24(%rbp), %rax	# __new_start, tmp153
	addq	%rdx, %rax	# _17, tmp152
	movq	%rax, -48(%rbp)	# tmp152, __destroy_from
# /usr/include/c++/7/bits/vector.tcc:580: 		      __new_start, _M_get_Tp_allocator());
	.loc 6 580 0
	movq	-56(%rbp), %rax	# this, _18
	movq	%rax, %rdi	# _18,
	call	_ZNSt12_Vector_baseIsSaIsEE19_M_get_Tp_allocatorEv	#
	movq	%rax, %rcx	#, _19
# /usr/include/c++/7/bits/vector.tcc:578: 		  std::__uninitialized_move_if_noexcept_a(
	.loc 6 578 0
	movq	-56(%rbp), %rax	# this, tmp154
	movq	8(%rax), %rsi	# this_54(D)->D.40629._M_impl._M_finish, _20
	movq	-56(%rbp), %rax	# this, tmp155
	movq	(%rax), %rax	# this_54(D)->D.40629._M_impl._M_start, _21
	movq	-24(%rbp), %rdx	# __new_start, tmp156
	movq	%rax, %rdi	# _21,
	call	_ZSt34__uninitialized_move_if_noexcept_aIPsS0_SaIsEET0_T_S3_S2_RT1_	#
.LEHE3:
# /usr/include/c++/7/bits/vector.tcc:591: 			    _M_get_Tp_allocator());
	.loc 6 591 0
	movq	-56(%rbp), %rax	# this, _28
	movq	%rax, %rdi	# _28,
	call	_ZNSt12_Vector_baseIsSaIsEE19_M_get_Tp_allocatorEv	#
	movq	%rax, %rdx	#, _29
# /usr/include/c++/7/bits/vector.tcc:590: 	      std::_Destroy(this->_M_impl._M_start, this->_M_impl._M_finish,
	.loc 6 590 0
	movq	-56(%rbp), %rax	# this, tmp157
	movq	8(%rax), %rcx	# this_54(D)->D.40629._M_impl._M_finish, _30
	movq	-56(%rbp), %rax	# this, tmp158
	movq	(%rax), %rax	# this_54(D)->D.40629._M_impl._M_start, _31
	movq	%rcx, %rsi	# _30,
	movq	%rax, %rdi	# _31,
.LEHB4:
	call	_ZSt8_DestroyIPssEvT_S1_RSaIT0_E	#
# /usr/include/c++/7/bits/vector.tcc:592: 	      _M_deallocate(this->_M_impl._M_start,
	.loc 6 592 0
	movq	-56(%rbp), %rax	# this, _32
# /usr/include/c++/7/bits/vector.tcc:593: 			    this->_M_impl._M_end_of_storage
	.loc 6 593 0
	movq	-56(%rbp), %rdx	# this, tmp159
	movq	16(%rdx), %rdx	# this_54(D)->D.40629._M_impl._M_end_of_storage, _33
# /usr/include/c++/7/bits/vector.tcc:594: 			    - this->_M_impl._M_start);
	.loc 6 594 0
	movq	%rdx, %rcx	# _33, _34
	movq	-56(%rbp), %rdx	# this, tmp160
	movq	(%rdx), %rdx	# this_54(D)->D.40629._M_impl._M_start, _35
	subq	%rdx, %rcx	# _36, _34
	movq	%rcx, %rdx	# _34, _37
	sarq	%rdx	# tmp161
# /usr/include/c++/7/bits/vector.tcc:592: 	      _M_deallocate(this->_M_impl._M_start,
	.loc 6 592 0
	movq	%rdx, %rsi	# _38, _39
	movq	-56(%rbp), %rdx	# this, tmp162
	movq	(%rdx), %rcx	# this_54(D)->D.40629._M_impl._M_start, _40
	movq	%rsi, %rdx	# _39,
	movq	%rcx, %rsi	# _40,
	movq	%rax, %rdi	# _32,
	call	_ZNSt12_Vector_baseIsSaIsEE13_M_deallocateEPsm	#
.LEHE4:
# /usr/include/c++/7/bits/vector.tcc:595: 	      this->_M_impl._M_start = __new_start;
	.loc 6 595 0
	movq	-56(%rbp), %rax	# this, tmp163
	movq	-24(%rbp), %rdx	# __new_start, tmp164
	movq	%rdx, (%rax)	# tmp164, this_54(D)->D.40629._M_impl._M_start
# /usr/include/c++/7/bits/vector.tcc:596: 	      this->_M_impl._M_finish = __new_start + __size + __n;
	.loc 6 596 0
	movq	-32(%rbp), %rdx	# __size, tmp165
	movq	-64(%rbp), %rax	# __n, tmp166
	addq	%rdx, %rax	# tmp165, _41
	leaq	(%rax,%rax), %rdx	#, _42
	movq	-24(%rbp), %rax	# __new_start, tmp167
	addq	%rax, %rdx	# tmp167, _43
	movq	-56(%rbp), %rax	# this, tmp168
	movq	%rdx, 8(%rax)	# _43, this_54(D)->D.40629._M_impl._M_finish
# /usr/include/c++/7/bits/vector.tcc:597: 	      this->_M_impl._M_end_of_storage = __new_start + __len;
	.loc 6 597 0
	movq	-40(%rbp), %rax	# __len, tmp169
	leaq	(%rax,%rax), %rdx	#, _44
	movq	-24(%rbp), %rax	# __new_start, tmp170
	addq	%rax, %rdx	# tmp170, _45
	movq	-56(%rbp), %rax	# this, tmp171
	movq	%rdx, 16(%rax)	# _45, this_54(D)->D.40629._M_impl._M_end_of_storage
.LBE14:
.LBE16:
.LBE18:
.LBE20:
# /usr/include/c++/7/bits/vector.tcc:600:     }
	.loc 6 600 0
	jmp	.L50	#
.L48:
.LBB21:
.LBB19:
.LBB17:
.LBB15:
# /usr/include/c++/7/bits/vector.tcc:582: 	      __catch(...)
	.loc 6 582 0
	movq	%rax, %rdi	# _22,
	call	__cxa_begin_catch@PLT	#
# /usr/include/c++/7/bits/vector.tcc:584: 		  if (__destroy_from)
	.loc 6 584 0
	cmpq	$0, -48(%rbp)	#, __destroy_from
	je	.L46	#,
# /usr/include/c++/7/bits/vector.tcc:586: 				  _M_get_Tp_allocator());
	.loc 6 586 0
	movq	-56(%rbp), %rax	# this, _23
	movq	%rax, %rdi	# _23,
	call	_ZNSt12_Vector_baseIsSaIsEE19_M_get_Tp_allocatorEv	#
	movq	%rax, %rsi	#, _24
# /usr/include/c++/7/bits/vector.tcc:585: 		    std::_Destroy(__destroy_from, __destroy_from + __n,
	.loc 6 585 0
	movq	-64(%rbp), %rax	# __n, tmp173
	leaq	(%rax,%rax), %rdx	#, _25
	movq	-48(%rbp), %rax	# __destroy_from, tmp174
	leaq	(%rdx,%rax), %rcx	#, _26
	movq	-48(%rbp), %rax	# __destroy_from, tmp175
	movq	%rsi, %rdx	# _24,
	movq	%rcx, %rsi	# _26,
	movq	%rax, %rdi	# tmp175,
.LEHB5:
	call	_ZSt8_DestroyIPssEvT_S1_RSaIT0_E	#
.L46:
# /usr/include/c++/7/bits/vector.tcc:587: 		  _M_deallocate(__new_start, __len);
	.loc 6 587 0
	movq	-56(%rbp), %rax	# this, _27
	movq	-40(%rbp), %rdx	# __len, tmp176
	movq	-24(%rbp), %rcx	# __new_start, tmp177
	movq	%rcx, %rsi	# tmp177,
	movq	%rax, %rdi	# _27,
	call	_ZNSt12_Vector_baseIsSaIsEE13_M_deallocateEPsm	#
# /usr/include/c++/7/bits/vector.tcc:588: 		  __throw_exception_again;
	.loc 6 588 0
	call	__cxa_rethrow@PLT	#
.LEHE5:
.L49:
	movq	%rax, %rbx	#, tmp178
# /usr/include/c++/7/bits/vector.tcc:582: 	      __catch(...)
	.loc 6 582 0
	call	__cxa_end_catch@PLT	#
	movq	%rbx, %rax	# tmp178, D.46036
	movq	%rax, %rdi	# D.46036,
.LEHB6:
	call	_Unwind_Resume@PLT	#
.LEHE6:
.L50:
.LBE15:
.LBE17:
.LBE19:
.LBE21:
# /usr/include/c++/7/bits/vector.tcc:600:     }
	.loc 6 600 0
	nop
	addq	$56, %rsp	#,
	popq	%rbx	#
	popq	%rbp	#
	.cfi_def_cfa 7, 8
	ret
	.cfi_endproc
.LFE2224:
	.section	.gcc_except_table
	.align 4
.LLSDA2224:
	.byte	0xff
	.byte	0x9b
	.uleb128 .LLSDATT2224-.LLSDATTD2224
.LLSDATTD2224:
	.byte	0x1
	.uleb128 .LLSDACSE2224-.LLSDACSB2224
.LLSDACSB2224:
	.uleb128 .LEHB2-.LFB2224
	.uleb128 .LEHE2-.LEHB2
	.uleb128 0
	.uleb128 0
	.uleb128 .LEHB3-.LFB2224
	.uleb128 .LEHE3-.LEHB3
	.uleb128 .L48-.LFB2224
	.uleb128 0x1
	.uleb128 .LEHB4-.LFB2224
	.uleb128 .LEHE4-.LEHB4
	.uleb128 0
	.uleb128 0
	.uleb128 .LEHB5-.LFB2224
	.uleb128 .LEHE5-.LEHB5
	.uleb128 .L49-.LFB2224
	.uleb128 0
	.uleb128 .LEHB6-.LFB2224
	.uleb128 .LEHE6-.LEHB6
	.uleb128 0
	.uleb128 0
.LLSDACSE2224:
	.byte	0x1
	.byte	0
	.align 4
	.long	0

.LLSDATT2224:
	.section	.text._ZNSt6vectorIsSaIsEE17_M_default_appendEm,"axG",@progbits,_ZNSt6vectorIsSaIsEE17_M_default_appendEm,comdat
	.size	_ZNSt6vectorIsSaIsEE17_M_default_appendEm, .-_ZNSt6vectorIsSaIsEE17_M_default_appendEm
	.section	.text._ZNSt6vectorIsSaIsEE15_M_erase_at_endEPs,"axG",@progbits,_ZNSt6vectorIsSaIsEE15_M_erase_at_endEPs,comdat
	.align 2
	.weak	_ZNSt6vectorIsSaIsEE15_M_erase_at_endEPs
	.type	_ZNSt6vectorIsSaIsEE15_M_erase_at_endEPs, @function
_ZNSt6vectorIsSaIsEE15_M_erase_at_endEPs:
.LFB2225:
	.loc 3 1516 0
	.cfi_startproc
	.cfi_personality 0x9b,DW.ref.__gxx_personality_v0
	.cfi_lsda 0x1b,.LLSDA2225
	pushq	%rbp	#
	.cfi_def_cfa_offset 16
	.cfi_offset 6, -16
	movq	%rsp, %rbp	#,
	.cfi_def_cfa_register 6
	subq	$16, %rsp	#,
	movq	%rdi, -8(%rbp)	# this, this
	movq	%rsi, -16(%rbp)	# __pos, __pos
# /usr/include/c++/7/bits/stl_vector.h:1518: 	std::_Destroy(__pos, this->_M_impl._M_finish, _M_get_Tp_allocator());
	.loc 3 1518 0
	movq	-8(%rbp), %rax	# this, _1
	movq	%rax, %rdi	# _1,
	call	_ZNSt12_Vector_baseIsSaIsEE19_M_get_Tp_allocatorEv	#
	movq	%rax, %rdx	#, _2
	movq	-8(%rbp), %rax	# this, tmp90
	movq	8(%rax), %rcx	# this_4(D)->D.40629._M_impl._M_finish, _3
	movq	-16(%rbp), %rax	# __pos, tmp91
	movq	%rcx, %rsi	# _3,
	movq	%rax, %rdi	# tmp91,
	call	_ZSt8_DestroyIPssEvT_S1_RSaIT0_E	#
# /usr/include/c++/7/bits/stl_vector.h:1519: 	this->_M_impl._M_finish = __pos;
	.loc 3 1519 0
	movq	-8(%rbp), %rax	# this, tmp92
	movq	-16(%rbp), %rdx	# __pos, tmp93
	movq	%rdx, 8(%rax)	# tmp93, this_4(D)->D.40629._M_impl._M_finish
# /usr/include/c++/7/bits/stl_vector.h:1520:       }
	.loc 3 1520 0
	nop
	leave
	.cfi_def_cfa 7, 8
	ret
	.cfi_endproc
.LFE2225:
	.section	.gcc_except_table
.LLSDA2225:
	.byte	0xff
	.byte	0xff
	.byte	0x1
	.uleb128 .LLSDACSE2225-.LLSDACSB2225
.LLSDACSB2225:
.LLSDACSE2225:
	.section	.text._ZNSt6vectorIsSaIsEE15_M_erase_at_endEPs,"axG",@progbits,_ZNSt6vectorIsSaIsEE15_M_erase_at_endEPs,comdat
	.size	_ZNSt6vectorIsSaIsEE15_M_erase_at_endEPs, .-_ZNSt6vectorIsSaIsEE15_M_erase_at_endEPs
	.section	.text._ZNSt12_Vector_baseIsSaIsEE12_Vector_implC2Ev,"axG",@progbits,_ZNSt12_Vector_baseIsSaIsEE12_Vector_implC5Ev,comdat
	.align 2
	.weak	_ZNSt12_Vector_baseIsSaIsEE12_Vector_implC2Ev
	.type	_ZNSt12_Vector_baseIsSaIsEE12_Vector_implC2Ev, @function
_ZNSt12_Vector_baseIsSaIsEE12_Vector_implC2Ev:
.LFB2262:
	.loc 3 88 0
	.cfi_startproc
	pushq	%rbp	#
	.cfi_def_cfa_offset 16
	.cfi_offset 6, -16
	movq	%rsp, %rbp	#,
	.cfi_def_cfa_register 6
	subq	$16, %rsp	#,
	movq	%rdi, -8(%rbp)	# this, this
.LBB22:
# /usr/include/c++/7/bits/stl_vector.h:89: 	: _Tp_alloc_type(), _M_start(), _M_finish(), _M_end_of_storage()
	.loc 3 89 0
	movq	-8(%rbp), %rax	# this, tmp87
	movq	%rax, %rdi	# tmp87,
	call	_ZNSaIsEC2Ev	#
	movq	-8(%rbp), %rax	# this, tmp88
	movq	$0, (%rax)	#, this_2(D)->_M_start
	movq	-8(%rbp), %rax	# this, tmp89
	movq	$0, 8(%rax)	#, this_2(D)->_M_finish
	movq	-8(%rbp), %rax	# this, tmp90
	movq	$0, 16(%rax)	#, this_2(D)->_M_end_of_storage
.LBE22:
# /usr/include/c++/7/bits/stl_vector.h:90: 	{ }
	.loc 3 90 0
	nop
	leave
	.cfi_def_cfa 7, 8
	ret
	.cfi_endproc
.LFE2262:
	.size	_ZNSt12_Vector_baseIsSaIsEE12_Vector_implC2Ev, .-_ZNSt12_Vector_baseIsSaIsEE12_Vector_implC2Ev
	.weak	_ZNSt12_Vector_baseIsSaIsEE12_Vector_implC1Ev
	.set	_ZNSt12_Vector_baseIsSaIsEE12_Vector_implC1Ev,_ZNSt12_Vector_baseIsSaIsEE12_Vector_implC2Ev
	.section	.text._ZNSaIsED2Ev,"axG",@progbits,_ZNSaIsED5Ev,comdat
	.align 2
	.weak	_ZNSaIsED2Ev
	.type	_ZNSaIsED2Ev, @function
_ZNSaIsED2Ev:
.LFB2265:
	.file 7 "/usr/include/c++/7/bits/allocator.h"
	.loc 7 139 0
	.cfi_startproc
	pushq	%rbp	#
	.cfi_def_cfa_offset 16
	.cfi_offset 6, -16
	movq	%rsp, %rbp	#,
	.cfi_def_cfa_register 6
	subq	$16, %rsp	#,
	movq	%rdi, -8(%rbp)	# this, this
.LBB23:
# /usr/include/c++/7/bits/allocator.h:139:       ~allocator() throw() { }
	.loc 7 139 0
	movq	-8(%rbp), %rax	# this, tmp88
	movq	%rax, %rdi	# tmp88,
	call	_ZN9__gnu_cxx13new_allocatorIsED2Ev	#
.LBE23:
	nop
	leave
	.cfi_def_cfa 7, 8
	ret
	.cfi_endproc
.LFE2265:
	.size	_ZNSaIsED2Ev, .-_ZNSaIsED2Ev
	.weak	_ZNSaIsED1Ev
	.set	_ZNSaIsED1Ev,_ZNSaIsED2Ev
	.section	.text._ZNSt12_Vector_baseIsSaIsEE13_M_deallocateEPsm,"axG",@progbits,_ZNSt12_Vector_baseIsSaIsEE13_M_deallocateEPsm,comdat
	.align 2
	.weak	_ZNSt12_Vector_baseIsSaIsEE13_M_deallocateEPsm
	.type	_ZNSt12_Vector_baseIsSaIsEE13_M_deallocateEPsm, @function
_ZNSt12_Vector_baseIsSaIsEE13_M_deallocateEPsm:
.LFB2267:
	.loc 3 176 0
	.cfi_startproc
	pushq	%rbp	#
	.cfi_def_cfa_offset 16
	.cfi_offset 6, -16
	movq	%rsp, %rbp	#,
	.cfi_def_cfa_register 6
	subq	$32, %rsp	#,
	movq	%rdi, -8(%rbp)	# this, this
	movq	%rsi, -16(%rbp)	# __p, __p
	movq	%rdx, -24(%rbp)	# __n, __n
# /usr/include/c++/7/bits/stl_vector.h:179: 	if (__p)
	.loc 3 179 0
	cmpq	$0, -16(%rbp)	#, __p
	je	.L56	#,
# /usr/include/c++/7/bits/stl_vector.h:180: 	  _Tr::deallocate(_M_impl, __p, __n);
	.loc 3 180 0
	movq	-8(%rbp), %rax	# this, _1
	movq	-24(%rbp), %rdx	# __n, tmp88
	movq	-16(%rbp), %rcx	# __p, tmp89
	movq	%rcx, %rsi	# tmp89,
	movq	%rax, %rdi	# _1,
	call	_ZNSt16allocator_traitsISaIsEE10deallocateERS0_Psm	#
.L56:
# /usr/include/c++/7/bits/stl_vector.h:181:       }
	.loc 3 181 0
	nop
	leave
	.cfi_def_cfa 7, 8
	ret
	.cfi_endproc
.LFE2267:
	.size	_ZNSt12_Vector_baseIsSaIsEE13_M_deallocateEPsm, .-_ZNSt12_Vector_baseIsSaIsEE13_M_deallocateEPsm
	.section	.text._ZSt8_DestroyIPsEvT_S1_,"axG",@progbits,_ZSt8_DestroyIPsEvT_S1_,comdat
	.weak	_ZSt8_DestroyIPsEvT_S1_
	.type	_ZSt8_DestroyIPsEvT_S1_, @function
_ZSt8_DestroyIPsEvT_S1_:
.LFB2268:
	.loc 5 127 0
	.cfi_startproc
	pushq	%rbp	#
	.cfi_def_cfa_offset 16
	.cfi_offset 6, -16
	movq	%rsp, %rbp	#,
	.cfi_def_cfa_register 6
	subq	$16, %rsp	#,
	movq	%rdi, -8(%rbp)	# __first, __first
	movq	%rsi, -16(%rbp)	# __last, __last
# /usr/include/c++/7/bits/stl_construct.h:137: 	__destroy(__first, __last);
	.loc 5 137 0
	movq	-16(%rbp), %rdx	# __last, tmp87
	movq	-8(%rbp), %rax	# __first, tmp88
	movq	%rdx, %rsi	# tmp87,
	movq	%rax, %rdi	# tmp88,
	call	_ZNSt12_Destroy_auxILb1EE9__destroyIPsEEvT_S3_	#
# /usr/include/c++/7/bits/stl_construct.h:138:     }
	.loc 5 138 0
	nop
	leave
	.cfi_def_cfa 7, 8
	ret
	.cfi_endproc
.LFE2268:
	.size	_ZSt8_DestroyIPsEvT_S1_, .-_ZSt8_DestroyIPsEvT_S1_
	.section	.text._ZNSt16allocator_traitsISaIsEE9constructIsJsEEEvRS0_PT_DpOT0_,"axG",@progbits,_ZNSt16allocator_traitsISaIsEE9constructIsJsEEEvRS0_PT_DpOT0_,comdat
	.weak	_ZNSt16allocator_traitsISaIsEE9constructIsJsEEEvRS0_PT_DpOT0_
	.type	_ZNSt16allocator_traitsISaIsEE9constructIsJsEEEvRS0_PT_DpOT0_, @function
_ZNSt16allocator_traitsISaIsEE9constructIsJsEEEvRS0_PT_DpOT0_:
.LFB2269:
	.file 8 "/usr/include/c++/7/bits/alloc_traits.h"
	.loc 8 474 0
	.cfi_startproc
	pushq	%rbp	#
	.cfi_def_cfa_offset 16
	.cfi_offset 6, -16
	movq	%rsp, %rbp	#,
	.cfi_def_cfa_register 6
	subq	$32, %rsp	#,
	movq	%rdi, -8(%rbp)	# __a, __a
	movq	%rsi, -16(%rbp)	# __p, __p
	movq	%rdx, -24(%rbp)	# __args#0, __args#0
# /usr/include/c++/7/bits/alloc_traits.h:475: 	{ __a.construct(__p, std::forward<_Args>(__args)...); }
	.loc 8 475 0
	movq	-24(%rbp), %rax	# __args#0, tmp88
	movq	%rax, %rdi	# tmp88,
	call	_ZSt7forwardIsEOT_RNSt16remove_referenceIS0_E4typeE	#
	movq	%rax, %rdx	#, _1
	movq	-16(%rbp), %rcx	# __p, tmp89
	movq	-8(%rbp), %rax	# __a, tmp90
	movq	%rcx, %rsi	# tmp89,
	movq	%rax, %rdi	# tmp90,
	call	_ZN9__gnu_cxx13new_allocatorIsE9constructIsJsEEEvPT_DpOT0_	#
	nop
	leave
	.cfi_def_cfa 7, 8
	ret
	.cfi_endproc
.LFE2269:
	.size	_ZNSt16allocator_traitsISaIsEE9constructIsJsEEEvRS0_PT_DpOT0_, .-_ZNSt16allocator_traitsISaIsEE9constructIsJsEEEvRS0_PT_DpOT0_
	.section	.text._ZNSt6vectorIsSaIsEE3endEv,"axG",@progbits,_ZNSt6vectorIsSaIsEE3endEv,comdat
	.align 2
	.weak	_ZNSt6vectorIsSaIsEE3endEv
	.type	_ZNSt6vectorIsSaIsEE3endEv, @function
_ZNSt6vectorIsSaIsEE3endEv:
.LFB2270:
	.loc 3 581 0
	.cfi_startproc
	pushq	%rbp	#
	.cfi_def_cfa_offset 16
	.cfi_offset 6, -16
	movq	%rsp, %rbp	#,
	.cfi_def_cfa_register 6
	subq	$32, %rsp	#,
	movq	%rdi, -24(%rbp)	# this, this
# /usr/include/c++/7/bits/stl_vector.h:581:       end() _GLIBCXX_NOEXCEPT
	.loc 3 581 0
	movq	%fs:40, %rax	#, tmp93
	movq	%rax, -8(%rbp)	# tmp93, D.46038
	xorl	%eax, %eax	# tmp93
# /usr/include/c++/7/bits/stl_vector.h:582:       { return iterator(this->_M_impl._M_finish); }
	.loc 3 582 0
	movq	-24(%rbp), %rax	# this, tmp90
	leaq	8(%rax), %rdx	#, _1
	leaq	-16(%rbp), %rax	#, tmp91
	movq	%rdx, %rsi	# _1,
	movq	%rax, %rdi	# tmp91,
	call	_ZN9__gnu_cxx17__normal_iteratorIPsSt6vectorIsSaIsEEEC1ERKS1_	#
	movq	-16(%rbp), %rax	# D.44121, D.45801
	movq	-8(%rbp), %rcx	# D.46038, tmp94
	xorq	%fs:40, %rcx	#, tmp94
	je	.L61	#,
	call	__stack_chk_fail@PLT	#
.L61:
	leave
	.cfi_def_cfa 7, 8
	ret
	.cfi_endproc
.LFE2270:
	.size	_ZNSt6vectorIsSaIsEE3endEv, .-_ZNSt6vectorIsSaIsEE3endEv
	.section	.rodata
.LC8:
	.string	"vector::_M_realloc_insert"
	.section	.text._ZNSt6vectorIsSaIsEE17_M_realloc_insertIJsEEEvN9__gnu_cxx17__normal_iteratorIPsS1_EEDpOT_,"axG",@progbits,_ZNSt6vectorIsSaIsEE17_M_realloc_insertIJsEEEvN9__gnu_cxx17__normal_iteratorIPsS1_EEDpOT_,comdat
	.align 2
	.weak	_ZNSt6vectorIsSaIsEE17_M_realloc_insertIJsEEEvN9__gnu_cxx17__normal_iteratorIPsS1_EEDpOT_
	.type	_ZNSt6vectorIsSaIsEE17_M_realloc_insertIJsEEEvN9__gnu_cxx17__normal_iteratorIPsS1_EEDpOT_, @function
_ZNSt6vectorIsSaIsEE17_M_realloc_insertIJsEEEvN9__gnu_cxx17__normal_iteratorIPsS1_EEDpOT_:
.LFB2271:
	.loc 6 394 0
	.cfi_startproc
	.cfi_personality 0x9b,DW.ref.__gxx_personality_v0
	.cfi_lsda 0x1b,.LLSDA2271
	pushq	%rbp	#
	.cfi_def_cfa_offset 16
	.cfi_offset 6, -16
	movq	%rsp, %rbp	#,
	.cfi_def_cfa_register 6
	pushq	%r12	#
	pushq	%rbx	#
	subq	$80, %rsp	#,
	.cfi_offset 12, -24
	.cfi_offset 3, -32
	movq	%rdi, -72(%rbp)	# this, this
	movq	%rsi, -80(%rbp)	# __position, __position
	movq	%rdx, -88(%rbp)	# __args#0, __args#0
# /usr/include/c++/7/bits/vector.tcc:394:       vector<_Tp, _Alloc>::
	.loc 6 394 0
	movq	%fs:40, %rax	#, tmp168
	movq	%rax, -24(%rbp)	# tmp168, D.46040
	xorl	%eax, %eax	# tmp168
# /usr/include/c++/7/bits/vector.tcc:403:       const size_type __len =
	.loc 6 403 0
	movq	-72(%rbp), %rax	# this, tmp130
	leaq	.LC8(%rip), %rdx	#,
	movl	$1, %esi	#,
	movq	%rax, %rdi	# tmp130,
.LEHB7:
	call	_ZNKSt6vectorIsSaIsEE12_M_check_lenEmPKc	#
	movq	%rax, -48(%rbp)	# _46, __len
# /usr/include/c++/7/bits/vector.tcc:405:       const size_type __elems_before = __position - begin();
	.loc 6 405 0
	movq	-72(%rbp), %rax	# this, tmp131
	movq	%rax, %rdi	# tmp131,
	call	_ZNSt6vectorIsSaIsEE5beginEv	#
	movq	%rax, -64(%rbp)	# tmp133, D.44125
	leaq	-64(%rbp), %rdx	#, tmp134
	leaq	-80(%rbp), %rax	#, tmp135
	movq	%rdx, %rsi	# tmp134,
	movq	%rax, %rdi	# tmp135,
	call	_ZN9__gnu_cxxmiIPsSt6vectorIsSaIsEEEENS_17__normal_iteratorIT_T0_E15difference_typeERKS8_SB_	#
	movq	%rax, -40(%rbp)	# _1, __elems_before
# /usr/include/c++/7/bits/vector.tcc:406:       pointer __new_start(this->_M_allocate(__len));
	.loc 6 406 0
	movq	-72(%rbp), %rax	# this, _2
	movq	-48(%rbp), %rdx	# __len, tmp136
	movq	%rdx, %rsi	# tmp136,
	movq	%rax, %rdi	# _2,
	call	_ZNSt12_Vector_baseIsSaIsEE11_M_allocateEm	#
.LEHE7:
	movq	%rax, -32(%rbp)	# _53, __new_start
# /usr/include/c++/7/bits/vector.tcc:407:       pointer __new_finish(__new_start);
	.loc 6 407 0
	movq	-32(%rbp), %rax	# __new_start, tmp137
	movq	%rax, -56(%rbp)	# tmp137, __new_finish
# /usr/include/c++/7/bits/vector.tcc:415: 	  _Alloc_traits::construct(this->_M_impl,
	.loc 6 415 0
	movq	-88(%rbp), %rax	# __args#0, tmp138
	movq	%rax, %rdi	# tmp138,
	call	_ZSt7forwardIsEOT_RNSt16remove_referenceIS0_E4typeE	#
	movq	%rax, %rsi	#, _3
# /usr/include/c++/7/bits/vector.tcc:416: 				   __new_start + __elems_before,
	.loc 6 416 0
	movq	-40(%rbp), %rax	# __elems_before, tmp139
	leaq	(%rax,%rax), %rdx	#, _4
# /usr/include/c++/7/bits/vector.tcc:415: 	  _Alloc_traits::construct(this->_M_impl,
	.loc 6 415 0
	movq	-32(%rbp), %rax	# __new_start, tmp140
	leaq	(%rdx,%rax), %rcx	#, _5
	movq	-72(%rbp), %rax	# this, _6
	movq	%rsi, %rdx	# _3,
	movq	%rcx, %rsi	# _5,
	movq	%rax, %rdi	# _6,
	call	_ZNSt16allocator_traitsISaIsEE9constructIsJsEEEvRS0_PT_DpOT0_	#
# /usr/include/c++/7/bits/vector.tcc:422: 	  __new_finish = pointer();
	.loc 6 422 0
	movq	$0, -56(%rbp)	#, __new_finish
# /usr/include/c++/7/bits/vector.tcc:427: 	     __new_start, _M_get_Tp_allocator());
	.loc 6 427 0
	movq	-72(%rbp), %rax	# this, _7
	movq	%rax, %rdi	# _7,
	call	_ZNSt12_Vector_baseIsSaIsEE19_M_get_Tp_allocatorEv	#
	movq	%rax, %rbx	#, _8
# /usr/include/c++/7/bits/vector.tcc:426: 	    (this->_M_impl._M_start, __position.base(),
	.loc 6 426 0
	leaq	-80(%rbp), %rax	#, tmp141
	movq	%rax, %rdi	# tmp141,
	call	_ZNK9__gnu_cxx17__normal_iteratorIPsSt6vectorIsSaIsEEE4baseEv	#
	movq	(%rax), %rsi	# *_9, _10
	movq	-72(%rbp), %rax	# this, tmp142
	movq	(%rax), %rax	# this_44(D)->D.40629._M_impl._M_start, _11
# /usr/include/c++/7/bits/vector.tcc:424: 	  __new_finish
	.loc 6 424 0
	movq	-32(%rbp), %rdx	# __new_start, tmp143
	movq	%rbx, %rcx	# _8,
	movq	%rax, %rdi	# _11,
.LEHB8:
	call	_ZSt34__uninitialized_move_if_noexcept_aIPsS0_SaIsEET0_T_S3_S2_RT1_	#
	movq	%rax, -56(%rbp)	# _63, __new_finish
# /usr/include/c++/7/bits/vector.tcc:429: 	  ++__new_finish;
	.loc 6 429 0
	addq	$2, -56(%rbp)	#, __new_finish
# /usr/include/c++/7/bits/vector.tcc:434: 	     __new_finish, _M_get_Tp_allocator());
	.loc 6 434 0
	movq	-72(%rbp), %rax	# this, _12
	movq	%rax, %rdi	# _12,
	call	_ZNSt12_Vector_baseIsSaIsEE19_M_get_Tp_allocatorEv	#
	movq	%rax, %r12	#, _13
# /usr/include/c++/7/bits/vector.tcc:433: 	    (__position.base(), this->_M_impl._M_finish,
	.loc 6 433 0
	movq	-72(%rbp), %rax	# this, tmp144
	movq	8(%rax), %rbx	# this_44(D)->D.40629._M_impl._M_finish, _14
	leaq	-80(%rbp), %rax	#, tmp145
	movq	%rax, %rdi	# tmp145,
	call	_ZNK9__gnu_cxx17__normal_iteratorIPsSt6vectorIsSaIsEEE4baseEv	#
	movq	(%rax), %rax	# *_15, _16
# /usr/include/c++/7/bits/vector.tcc:431: 	  __new_finish
	.loc 6 431 0
	movq	-56(%rbp), %rdx	# __new_finish, tmp146
	movq	%r12, %rcx	# _13,
	movq	%rbx, %rsi	# _14,
	movq	%rax, %rdi	# _16,
	call	_ZSt34__uninitialized_move_if_noexcept_aIPsS0_SaIsEET0_T_S3_S2_RT1_	#
.LEHE8:
# /usr/include/c++/7/bits/vector.tcc:431: 	  __new_finish
	.loc 6 431 0 is_stmt 0 discriminator 1
	movq	%rax, -56(%rbp)	# _69, __new_finish
# /usr/include/c++/7/bits/vector.tcc:447: 		    _M_get_Tp_allocator());
	.loc 6 447 0 is_stmt 1 discriminator 1
	movq	-72(%rbp), %rax	# this, _24
	movq	%rax, %rdi	# _24,
	call	_ZNSt12_Vector_baseIsSaIsEE19_M_get_Tp_allocatorEv	#
	movq	%rax, %rdx	#, _25
# /usr/include/c++/7/bits/vector.tcc:446:       std::_Destroy(this->_M_impl._M_start, this->_M_impl._M_finish,
	.loc 6 446 0 discriminator 1
	movq	-72(%rbp), %rax	# this, tmp147
	movq	8(%rax), %rcx	# this_44(D)->D.40629._M_impl._M_finish, _26
	movq	-72(%rbp), %rax	# this, tmp148
	movq	(%rax), %rax	# this_44(D)->D.40629._M_impl._M_start, _27
	movq	%rcx, %rsi	# _26,
	movq	%rax, %rdi	# _27,
.LEHB9:
	call	_ZSt8_DestroyIPssEvT_S1_RSaIT0_E	#
# /usr/include/c++/7/bits/vector.tcc:448:       _M_deallocate(this->_M_impl._M_start,
	.loc 6 448 0 discriminator 1
	movq	-72(%rbp), %rax	# this, _28
# /usr/include/c++/7/bits/vector.tcc:449: 		    this->_M_impl._M_end_of_storage
	.loc 6 449 0 discriminator 1
	movq	-72(%rbp), %rdx	# this, tmp149
	movq	16(%rdx), %rdx	# this_44(D)->D.40629._M_impl._M_end_of_storage, _29
# /usr/include/c++/7/bits/vector.tcc:450: 		    - this->_M_impl._M_start);
	.loc 6 450 0 discriminator 1
	movq	%rdx, %rcx	# _29, _30
	movq	-72(%rbp), %rdx	# this, tmp150
	movq	(%rdx), %rdx	# this_44(D)->D.40629._M_impl._M_start, _31
	subq	%rdx, %rcx	# _32, _30
	movq	%rcx, %rdx	# _30, _33
	sarq	%rdx	# tmp151
# /usr/include/c++/7/bits/vector.tcc:448:       _M_deallocate(this->_M_impl._M_start,
	.loc 6 448 0 discriminator 1
	movq	%rdx, %rsi	# _34, _35
	movq	-72(%rbp), %rdx	# this, tmp152
	movq	(%rdx), %rcx	# this_44(D)->D.40629._M_impl._M_start, _36
	movq	%rsi, %rdx	# _35,
	movq	%rcx, %rsi	# _36,
	movq	%rax, %rdi	# _28,
	call	_ZNSt12_Vector_baseIsSaIsEE13_M_deallocateEPsm	#
.LEHE9:
# /usr/include/c++/7/bits/vector.tcc:451:       this->_M_impl._M_start = __new_start;
	.loc 6 451 0 discriminator 1
	movq	-72(%rbp), %rax	# this, tmp153
	movq	-32(%rbp), %rdx	# __new_start, tmp154
	movq	%rdx, (%rax)	# tmp154, this_44(D)->D.40629._M_impl._M_start
# /usr/include/c++/7/bits/vector.tcc:452:       this->_M_impl._M_finish = __new_finish;
	.loc 6 452 0 discriminator 1
	movq	-72(%rbp), %rax	# this, tmp155
	movq	-56(%rbp), %rdx	# __new_finish, tmp156
	movq	%rdx, 8(%rax)	# tmp156, this_44(D)->D.40629._M_impl._M_finish
# /usr/include/c++/7/bits/vector.tcc:453:       this->_M_impl._M_end_of_storage = __new_start + __len;
	.loc 6 453 0 discriminator 1
	movq	-48(%rbp), %rax	# __len, tmp157
	leaq	(%rax,%rax), %rdx	#, _37
	movq	-32(%rbp), %rax	# __new_start, tmp158
	addq	%rax, %rdx	# tmp158, _38
	movq	-72(%rbp), %rax	# this, tmp159
	movq	%rdx, 16(%rax)	# _38, this_44(D)->D.40629._M_impl._M_end_of_storage
# /usr/include/c++/7/bits/vector.tcc:454:     }
	.loc 6 454 0 discriminator 1
	nop
	movq	-24(%rbp), %rax	# D.46040, tmp169
	xorq	%fs:40, %rax	#, tmp169
	je	.L67	#,
	jmp	.L70	#
.L68:
# /usr/include/c++/7/bits/vector.tcc:436:       __catch(...)
	.loc 6 436 0
	movq	%rax, %rdi	# _17,
	call	__cxa_begin_catch@PLT	#
# /usr/include/c++/7/bits/vector.tcc:438: 	  if (!__new_finish)
	.loc 6 438 0
	cmpq	$0, -56(%rbp)	#, __new_finish
	jne	.L64	#,
# /usr/include/c++/7/bits/vector.tcc:440: 				   __new_start + __elems_before);
	.loc 6 440 0
	movq	-40(%rbp), %rax	# __elems_before, tmp161
	leaq	(%rax,%rax), %rdx	#, _18
# /usr/include/c++/7/bits/vector.tcc:439: 	    _Alloc_traits::destroy(this->_M_impl,
	.loc 6 439 0
	movq	-32(%rbp), %rax	# __new_start, tmp162
	addq	%rax, %rdx	# tmp162, _19
	movq	-72(%rbp), %rax	# this, _20
	movq	%rdx, %rsi	# _19,
	movq	%rax, %rdi	# _20,
.LEHB10:
	call	_ZNSt16allocator_traitsISaIsEE7destroyIsEEvRS0_PT_	#
	jmp	.L65	#
.L64:
# /usr/include/c++/7/bits/vector.tcc:442: 	    std::_Destroy(__new_start, __new_finish, _M_get_Tp_allocator());
	.loc 6 442 0
	movq	-72(%rbp), %rax	# this, _21
	movq	%rax, %rdi	# _21,
	call	_ZNSt12_Vector_baseIsSaIsEE19_M_get_Tp_allocatorEv	#
	movq	%rax, %rdx	#, _22
	movq	-56(%rbp), %rcx	# __new_finish, tmp163
	movq	-32(%rbp), %rax	# __new_start, tmp164
	movq	%rcx, %rsi	# tmp163,
	movq	%rax, %rdi	# tmp164,
	call	_ZSt8_DestroyIPssEvT_S1_RSaIT0_E	#
.L65:
# /usr/include/c++/7/bits/vector.tcc:443: 	  _M_deallocate(__new_start, __len);
	.loc 6 443 0
	movq	-72(%rbp), %rax	# this, _23
	movq	-48(%rbp), %rdx	# __len, tmp165
	movq	-32(%rbp), %rcx	# __new_start, tmp166
	movq	%rcx, %rsi	# tmp166,
	movq	%rax, %rdi	# _23,
	call	_ZNSt12_Vector_baseIsSaIsEE13_M_deallocateEPsm	#
# /usr/include/c++/7/bits/vector.tcc:444: 	  __throw_exception_again;
	.loc 6 444 0
	call	__cxa_rethrow@PLT	#
.LEHE10:
.L69:
	movq	%rax, %rbx	#, tmp167
# /usr/include/c++/7/bits/vector.tcc:436:       __catch(...)
	.loc 6 436 0
	call	__cxa_end_catch@PLT	#
	movq	%rbx, %rax	# tmp167, D.46039
	movq	%rax, %rdi	# D.46039,
.LEHB11:
	call	_Unwind_Resume@PLT	#
.LEHE11:
.L70:
# /usr/include/c++/7/bits/vector.tcc:454:     }
	.loc 6 454 0
	call	__stack_chk_fail@PLT	#
.L67:
	addq	$80, %rsp	#,
	popq	%rbx	#
	popq	%r12	#
	popq	%rbp	#
	.cfi_def_cfa 7, 8
	ret
	.cfi_endproc
.LFE2271:
	.section	.gcc_except_table
	.align 4
.LLSDA2271:
	.byte	0xff
	.byte	0x9b
	.uleb128 .LLSDATT2271-.LLSDATTD2271
.LLSDATTD2271:
	.byte	0x1
	.uleb128 .LLSDACSE2271-.LLSDACSB2271
.LLSDACSB2271:
	.uleb128 .LEHB7-.LFB2271
	.uleb128 .LEHE7-.LEHB7
	.uleb128 0
	.uleb128 0
	.uleb128 .LEHB8-.LFB2271
	.uleb128 .LEHE8-.LEHB8
	.uleb128 .L68-.LFB2271
	.uleb128 0x1
	.uleb128 .LEHB9-.LFB2271
	.uleb128 .LEHE9-.LEHB9
	.uleb128 0
	.uleb128 0
	.uleb128 .LEHB10-.LFB2271
	.uleb128 .LEHE10-.LEHB10
	.uleb128 .L69-.LFB2271
	.uleb128 0
	.uleb128 .LEHB11-.LFB2271
	.uleb128 .LEHE11-.LEHB11
	.uleb128 0
	.uleb128 0
.LLSDACSE2271:
	.byte	0x1
	.byte	0
	.align 4
	.long	0

.LLSDATT2271:
	.section	.text._ZNSt6vectorIsSaIsEE17_M_realloc_insertIJsEEEvN9__gnu_cxx17__normal_iteratorIPsS1_EEDpOT_,"axG",@progbits,_ZNSt6vectorIsSaIsEE17_M_realloc_insertIJsEEEvN9__gnu_cxx17__normal_iteratorIPsS1_EEDpOT_,comdat
	.size	_ZNSt6vectorIsSaIsEE17_M_realloc_insertIJsEEEvN9__gnu_cxx17__normal_iteratorIPsS1_EEDpOT_, .-_ZNSt6vectorIsSaIsEE17_M_realloc_insertIJsEEEvN9__gnu_cxx17__normal_iteratorIPsS1_EEDpOT_
	.section	.text._ZSt27__uninitialized_default_n_aIPsmsET_S1_T0_RSaIT1_E,"axG",@progbits,_ZSt27__uninitialized_default_n_aIPsmsET_S1_T0_RSaIT1_E,comdat
	.weak	_ZSt27__uninitialized_default_n_aIPsmsET_S1_T0_RSaIT1_E
	.type	_ZSt27__uninitialized_default_n_aIPsmsET_S1_T0_RSaIT1_E, @function
_ZSt27__uninitialized_default_n_aIPsmsET_S1_T0_RSaIT1_E:
.LFB2273:
	.file 9 "/usr/include/c++/7/bits/stl_uninitialized.h"
	.loc 9 643 0
	.cfi_startproc
	pushq	%rbp	#
	.cfi_def_cfa_offset 16
	.cfi_offset 6, -16
	movq	%rsp, %rbp	#,
	.cfi_def_cfa_register 6
	subq	$32, %rsp	#,
	movq	%rdi, -8(%rbp)	# __first, __first
	movq	%rsi, -16(%rbp)	# __n, __n
	movq	%rdx, -24(%rbp)	# D.43569, D.43569
# /usr/include/c++/7/bits/stl_uninitialized.h:645:     { return std::__uninitialized_default_n(__first, __n); }
	.loc 9 645 0
	movq	-16(%rbp), %rdx	# __n, tmp89
	movq	-8(%rbp), %rax	# __first, tmp90
	movq	%rdx, %rsi	# tmp89,
	movq	%rax, %rdi	# tmp90,
	call	_ZSt25__uninitialized_default_nIPsmET_S1_T0_	#
	leave
	.cfi_def_cfa 7, 8
	ret
	.cfi_endproc
.LFE2273:
	.size	_ZSt27__uninitialized_default_n_aIPsmsET_S1_T0_RSaIT1_E, .-_ZSt27__uninitialized_default_n_aIPsmsET_S1_T0_RSaIT1_E
	.section	.text._ZNKSt6vectorIsSaIsEE12_M_check_lenEmPKc,"axG",@progbits,_ZNKSt6vectorIsSaIsEE12_M_check_lenEmPKc,comdat
	.align 2
	.weak	_ZNKSt6vectorIsSaIsEE12_M_check_lenEmPKc
	.type	_ZNKSt6vectorIsSaIsEE12_M_check_lenEmPKc, @function
_ZNKSt6vectorIsSaIsEE12_M_check_lenEmPKc:
.LFB2274:
	.loc 3 1502 0
	.cfi_startproc
	pushq	%rbp	#
	.cfi_def_cfa_offset 16
	.cfi_offset 6, -16
	movq	%rsp, %rbp	#,
	.cfi_def_cfa_register 6
	pushq	%rbx	#
	subq	$72, %rsp	#,
	.cfi_offset 3, -24
	movq	%rdi, -56(%rbp)	# this, this
	movq	%rsi, -64(%rbp)	# __n, __n
	movq	%rdx, -72(%rbp)	# __s, __s
# /usr/include/c++/7/bits/stl_vector.h:1502:       _M_check_len(size_type __n, const char* __s) const
	.loc 3 1502 0
	movq	%fs:40, %rax	#, tmp112
	movq	%rax, -24(%rbp)	# tmp112, D.46042
	xorl	%eax, %eax	# tmp112
# /usr/include/c++/7/bits/stl_vector.h:1504: 	if (max_size() - size() < __n)
	.loc 3 1504 0
	movq	-56(%rbp), %rax	# this, tmp101
	movq	%rax, %rdi	# tmp101,
	call	_ZNKSt6vectorIsSaIsEE8max_sizeEv	#
	movq	%rax, %rbx	#, _1
	movq	-56(%rbp), %rax	# this, tmp102
	movq	%rax, %rdi	# tmp102,
	call	_ZNKSt6vectorIsSaIsEE4sizeEv	#
	subq	%rax, %rbx	# _2, _1
	movq	%rbx, %rdx	# _1, _3
	movq	-64(%rbp), %rax	# __n, __n.2_4
	cmpq	%rax, %rdx	# __n.2_4, _3
	setb	%al	#, retval.1_19
	testb	%al, %al	# retval.1_19
	je	.L74	#,
# /usr/include/c++/7/bits/stl_vector.h:1505: 	  __throw_length_error(__N(__s));
	.loc 3 1505 0
	movq	-72(%rbp), %rax	# __s, __s.3_5
	movq	%rax, %rdi	# __s.3_5,
	call	_ZSt20__throw_length_errorPKc@PLT	#
.L74:
# /usr/include/c++/7/bits/stl_vector.h:1507: 	const size_type __len = size() + std::max(size(), __n);
	.loc 3 1507 0
	movq	-56(%rbp), %rax	# this, tmp103
	movq	%rax, %rdi	# tmp103,
	call	_ZNKSt6vectorIsSaIsEE4sizeEv	#
	movq	%rax, %rbx	#, _6
	movq	-56(%rbp), %rax	# this, tmp104
	movq	%rax, %rdi	# tmp104,
	call	_ZNKSt6vectorIsSaIsEE4sizeEv	#
	movq	%rax, -40(%rbp)	# _7, D.44149
	leaq	-64(%rbp), %rdx	#, tmp105
	leaq	-40(%rbp), %rax	#, tmp106
	movq	%rdx, %rsi	# tmp105,
	movq	%rax, %rdi	# tmp106,
	call	_ZSt3maxImERKT_S2_S2_	#
	movq	(%rax), %rax	# *_8, _9
	addq	%rbx, %rax	# _6, tmp107
	movq	%rax, -32(%rbp)	# tmp107, __len
# /usr/include/c++/7/bits/stl_vector.h:1508: 	return (__len < size() || __len > max_size()) ? max_size() : __len;
	.loc 3 1508 0
	movq	-56(%rbp), %rax	# this, tmp108
	movq	%rax, %rdi	# tmp108,
	call	_ZNKSt6vectorIsSaIsEE4sizeEv	#
	cmpq	%rax, -32(%rbp)	# _10, __len
	jb	.L75	#,
# /usr/include/c++/7/bits/stl_vector.h:1508: 	return (__len < size() || __len > max_size()) ? max_size() : __len;
	.loc 3 1508 0 is_stmt 0 discriminator 2
	movq	-56(%rbp), %rax	# this, tmp109
	movq	%rax, %rdi	# tmp109,
	call	_ZNKSt6vectorIsSaIsEE8max_sizeEv	#
	cmpq	%rax, -32(%rbp)	# _11, __len
	jbe	.L76	#,
.L75:
# /usr/include/c++/7/bits/stl_vector.h:1508: 	return (__len < size() || __len > max_size()) ? max_size() : __len;
	.loc 3 1508 0 discriminator 3
	movq	-56(%rbp), %rax	# this, tmp110
	movq	%rax, %rdi	# tmp110,
	call	_ZNKSt6vectorIsSaIsEE8max_sizeEv	#
	jmp	.L77	#
.L76:
# /usr/include/c++/7/bits/stl_vector.h:1508: 	return (__len < size() || __len > max_size()) ? max_size() : __len;
	.loc 3 1508 0 discriminator 4
	movq	-32(%rbp), %rax	# __len, iftmp.4_12
.L77:
# /usr/include/c++/7/bits/stl_vector.h:1509:       }
	.loc 3 1509 0 is_stmt 1 discriminator 6
	movq	-24(%rbp), %rcx	# D.46042, tmp113
	xorq	%fs:40, %rcx	#, tmp113
	je	.L79	#,
# /usr/include/c++/7/bits/stl_vector.h:1509:       }
	.loc 3 1509 0 is_stmt 0
	call	__stack_chk_fail@PLT	#
.L79:
	addq	$72, %rsp	#,
	popq	%rbx	#
	popq	%rbp	#
	.cfi_def_cfa 7, 8
	ret
	.cfi_endproc
.LFE2274:
	.size	_ZNKSt6vectorIsSaIsEE12_M_check_lenEmPKc, .-_ZNKSt6vectorIsSaIsEE12_M_check_lenEmPKc
	.section	.text._ZNSt12_Vector_baseIsSaIsEE11_M_allocateEm,"axG",@progbits,_ZNSt12_Vector_baseIsSaIsEE11_M_allocateEm,comdat
	.align 2
	.weak	_ZNSt12_Vector_baseIsSaIsEE11_M_allocateEm
	.type	_ZNSt12_Vector_baseIsSaIsEE11_M_allocateEm, @function
_ZNSt12_Vector_baseIsSaIsEE11_M_allocateEm:
.LFB2275:
	.loc 3 169 0 is_stmt 1
	.cfi_startproc
	pushq	%rbp	#
	.cfi_def_cfa_offset 16
	.cfi_offset 6, -16
	movq	%rsp, %rbp	#,
	.cfi_def_cfa_register 6
	subq	$16, %rsp	#,
	movq	%rdi, -8(%rbp)	# this, this
	movq	%rsi, -16(%rbp)	# __n, __n
# /usr/include/c++/7/bits/stl_vector.h:172: 	return __n != 0 ? _Tr::allocate(_M_impl, __n) : pointer();
	.loc 3 172 0
	cmpq	$0, -16(%rbp)	#, __n
	je	.L81	#,
# /usr/include/c++/7/bits/stl_vector.h:172: 	return __n != 0 ? _Tr::allocate(_M_impl, __n) : pointer();
	.loc 3 172 0 is_stmt 0 discriminator 1
	movq	-8(%rbp), %rax	# this, _1
	movq	-16(%rbp), %rdx	# __n, tmp90
	movq	%rdx, %rsi	# tmp90,
	movq	%rax, %rdi	# _1,
	call	_ZNSt16allocator_traitsISaIsEE8allocateERS0_m	#
	jmp	.L83	#
.L81:
# /usr/include/c++/7/bits/stl_vector.h:172: 	return __n != 0 ? _Tr::allocate(_M_impl, __n) : pointer();
	.loc 3 172 0 discriminator 2
	movl	$0, %eax	#, iftmp.5_2
.L83:
# /usr/include/c++/7/bits/stl_vector.h:173:       }
	.loc 3 173 0 is_stmt 1 discriminator 5
	leave
	.cfi_def_cfa 7, 8
	ret
	.cfi_endproc
.LFE2275:
	.size	_ZNSt12_Vector_baseIsSaIsEE11_M_allocateEm, .-_ZNSt12_Vector_baseIsSaIsEE11_M_allocateEm
	.section	.text._ZSt34__uninitialized_move_if_noexcept_aIPsS0_SaIsEET0_T_S3_S2_RT1_,"axG",@progbits,_ZSt34__uninitialized_move_if_noexcept_aIPsS0_SaIsEET0_T_S3_S2_RT1_,comdat
	.weak	_ZSt34__uninitialized_move_if_noexcept_aIPsS0_SaIsEET0_T_S3_S2_RT1_
	.type	_ZSt34__uninitialized_move_if_noexcept_aIPsS0_SaIsEET0_T_S3_S2_RT1_, @function
_ZSt34__uninitialized_move_if_noexcept_aIPsS0_SaIsEET0_T_S3_S2_RT1_:
.LFB2276:
	.loc 9 305 0
	.cfi_startproc
	pushq	%rbp	#
	.cfi_def_cfa_offset 16
	.cfi_offset 6, -16
	movq	%rsp, %rbp	#,
	.cfi_def_cfa_register 6
	pushq	%rbx	#
	subq	$40, %rsp	#,
	.cfi_offset 3, -24
	movq	%rdi, -24(%rbp)	# __first, __first
	movq	%rsi, -32(%rbp)	# __last, __last
	movq	%rdx, -40(%rbp)	# __result, __result
	movq	%rcx, -48(%rbp)	# __alloc, __alloc
# /usr/include/c++/7/bits/stl_uninitialized.h:311: 	(_GLIBCXX_MAKE_MOVE_IF_NOEXCEPT_ITERATOR(__first),
	.loc 9 311 0
	movq	-32(%rbp), %rax	# __last, tmp91
	movq	%rax, %rdi	# tmp91,
	call	_ZSt32__make_move_if_noexcept_iteratorIsSt13move_iteratorIPsEET0_PT_	#
	movq	%rax, %rbx	#, D.45860
	movq	-24(%rbp), %rax	# __first, tmp92
	movq	%rax, %rdi	# tmp92,
	call	_ZSt32__make_move_if_noexcept_iteratorIsSt13move_iteratorIPsEET0_PT_	#
	movq	%rax, %rdi	#, D.45861
# /usr/include/c++/7/bits/stl_uninitialized.h:312: 	 _GLIBCXX_MAKE_MOVE_IF_NOEXCEPT_ITERATOR(__last), __result, __alloc);
	.loc 9 312 0
	movq	-48(%rbp), %rdx	# __alloc, tmp93
	movq	-40(%rbp), %rax	# __result, tmp94
	movq	%rdx, %rcx	# tmp93,
	movq	%rax, %rdx	# tmp94,
	movq	%rbx, %rsi	# D.45860,
	call	_ZSt22__uninitialized_copy_aISt13move_iteratorIPsES1_sET0_T_S4_S3_RSaIT1_E	#
# /usr/include/c++/7/bits/stl_uninitialized.h:313:     }
	.loc 9 313 0
	addq	$40, %rsp	#,
	popq	%rbx	#
	popq	%rbp	#
	.cfi_def_cfa 7, 8
	ret
	.cfi_endproc
.LFE2276:
	.size	_ZSt34__uninitialized_move_if_noexcept_aIPsS0_SaIsEET0_T_S3_S2_RT1_, .-_ZSt34__uninitialized_move_if_noexcept_aIPsS0_SaIsEET0_T_S3_S2_RT1_
	.section	.text._ZNSaIsEC2Ev,"axG",@progbits,_ZNSaIsEC5Ev,comdat
	.align 2
	.weak	_ZNSaIsEC2Ev
	.type	_ZNSaIsEC2Ev, @function
_ZNSaIsEC2Ev:
.LFB2312:
	.loc 7 131 0
	.cfi_startproc
	pushq	%rbp	#
	.cfi_def_cfa_offset 16
	.cfi_offset 6, -16
	movq	%rsp, %rbp	#,
	.cfi_def_cfa_register 6
	subq	$16, %rsp	#,
	movq	%rdi, -8(%rbp)	# this, this
.LBB24:
# /usr/include/c++/7/bits/allocator.h:131:       allocator() throw() { }
	.loc 7 131 0
	movq	-8(%rbp), %rax	# this, tmp88
	movq	%rax, %rdi	# tmp88,
	call	_ZN9__gnu_cxx13new_allocatorIsEC2Ev	#
.LBE24:
	nop
	leave
	.cfi_def_cfa 7, 8
	ret
	.cfi_endproc
.LFE2312:
	.size	_ZNSaIsEC2Ev, .-_ZNSaIsEC2Ev
	.weak	_ZNSaIsEC1Ev
	.set	_ZNSaIsEC1Ev,_ZNSaIsEC2Ev
	.section	.text._ZN9__gnu_cxx13new_allocatorIsED2Ev,"axG",@progbits,_ZN9__gnu_cxx13new_allocatorIsED5Ev,comdat
	.align 2
	.weak	_ZN9__gnu_cxx13new_allocatorIsED2Ev
	.type	_ZN9__gnu_cxx13new_allocatorIsED2Ev, @function
_ZN9__gnu_cxx13new_allocatorIsED2Ev:
.LFB2315:
	.file 10 "/usr/include/c++/7/ext/new_allocator.h"
	.loc 10 86 0
	.cfi_startproc
	pushq	%rbp	#
	.cfi_def_cfa_offset 16
	.cfi_offset 6, -16
	movq	%rsp, %rbp	#,
	.cfi_def_cfa_register 6
	movq	%rdi, -8(%rbp)	# this, this
# /usr/include/c++/7/ext/new_allocator.h:86:       ~new_allocator() _GLIBCXX_USE_NOEXCEPT { }
	.loc 10 86 0
	nop
	popq	%rbp	#
	.cfi_def_cfa 7, 8
	ret
	.cfi_endproc
.LFE2315:
	.size	_ZN9__gnu_cxx13new_allocatorIsED2Ev, .-_ZN9__gnu_cxx13new_allocatorIsED2Ev
	.weak	_ZN9__gnu_cxx13new_allocatorIsED1Ev
	.set	_ZN9__gnu_cxx13new_allocatorIsED1Ev,_ZN9__gnu_cxx13new_allocatorIsED2Ev
	.section	.text._ZNSt16allocator_traitsISaIsEE10deallocateERS0_Psm,"axG",@progbits,_ZNSt16allocator_traitsISaIsEE10deallocateERS0_Psm,comdat
	.weak	_ZNSt16allocator_traitsISaIsEE10deallocateERS0_Psm
	.type	_ZNSt16allocator_traitsISaIsEE10deallocateERS0_Psm, @function
_ZNSt16allocator_traitsISaIsEE10deallocateERS0_Psm:
.LFB2317:
	.loc 8 461 0
	.cfi_startproc
	pushq	%rbp	#
	.cfi_def_cfa_offset 16
	.cfi_offset 6, -16
	movq	%rsp, %rbp	#,
	.cfi_def_cfa_register 6
	subq	$32, %rsp	#,
	movq	%rdi, -8(%rbp)	# __a, __a
	movq	%rsi, -16(%rbp)	# __p, __p
	movq	%rdx, -24(%rbp)	# __n, __n
# /usr/include/c++/7/bits/alloc_traits.h:462:       { __a.deallocate(__p, __n); }
	.loc 8 462 0
	movq	-24(%rbp), %rdx	# __n, tmp87
	movq	-16(%rbp), %rcx	# __p, tmp88
	movq	-8(%rbp), %rax	# __a, tmp89
	movq	%rcx, %rsi	# tmp88,
	movq	%rax, %rdi	# tmp89,
	call	_ZN9__gnu_cxx13new_allocatorIsE10deallocateEPsm	#
	nop
	leave
	.cfi_def_cfa 7, 8
	ret
	.cfi_endproc
.LFE2317:
	.size	_ZNSt16allocator_traitsISaIsEE10deallocateERS0_Psm, .-_ZNSt16allocator_traitsISaIsEE10deallocateERS0_Psm
	.section	.text._ZNSt12_Destroy_auxILb1EE9__destroyIPsEEvT_S3_,"axG",@progbits,_ZNSt12_Destroy_auxILb1EE9__destroyIPsEEvT_S3_,comdat
	.weak	_ZNSt12_Destroy_auxILb1EE9__destroyIPsEEvT_S3_
	.type	_ZNSt12_Destroy_auxILb1EE9__destroyIPsEEvT_S3_, @function
_ZNSt12_Destroy_auxILb1EE9__destroyIPsEEvT_S3_:
.LFB2318:
	.loc 5 117 0
	.cfi_startproc
	pushq	%rbp	#
	.cfi_def_cfa_offset 16
	.cfi_offset 6, -16
	movq	%rsp, %rbp	#,
	.cfi_def_cfa_register 6
	movq	%rdi, -8(%rbp)	# D.44113, D.44113
	movq	%rsi, -16(%rbp)	# D.44114, D.44114
# /usr/include/c++/7/bits/stl_construct.h:117:         __destroy(_ForwardIterator, _ForwardIterator) { }
	.loc 5 117 0
	nop
	popq	%rbp	#
	.cfi_def_cfa 7, 8
	ret
	.cfi_endproc
.LFE2318:
	.size	_ZNSt12_Destroy_auxILb1EE9__destroyIPsEEvT_S3_, .-_ZNSt12_Destroy_auxILb1EE9__destroyIPsEEvT_S3_
	.section	.text._ZN9__gnu_cxx13new_allocatorIsE9constructIsJsEEEvPT_DpOT0_,"axG",@progbits,_ZN9__gnu_cxx13new_allocatorIsE9constructIsJsEEEvPT_DpOT0_,comdat
	.align 2
	.weak	_ZN9__gnu_cxx13new_allocatorIsE9constructIsJsEEEvPT_DpOT0_
	.type	_ZN9__gnu_cxx13new_allocatorIsE9constructIsJsEEEvPT_DpOT0_, @function
_ZN9__gnu_cxx13new_allocatorIsE9constructIsJsEEEvPT_DpOT0_:
.LFB2319:
	.loc 10 135 0
	.cfi_startproc
	pushq	%rbp	#
	.cfi_def_cfa_offset 16
	.cfi_offset 6, -16
	movq	%rsp, %rbp	#,
	.cfi_def_cfa_register 6
	pushq	%rbx	#
	subq	$40, %rsp	#,
	.cfi_offset 3, -24
	movq	%rdi, -24(%rbp)	# this, this
	movq	%rsi, -32(%rbp)	# __p, __p
	movq	%rdx, -40(%rbp)	# __args#0, __args#0
# /usr/include/c++/7/ext/new_allocator.h:136: 	{ ::new((void *)__p) _Up(std::forward<_Args>(__args)...); }
	.loc 10 136 0
	movq	-40(%rbp), %rax	# __args#0, tmp93
	movq	%rax, %rdi	# tmp93,
	call	_ZSt7forwardIsEOT_RNSt16remove_referenceIS0_E4typeE	#
	movzwl	(%rax), %ebx	# *_1, _6
	movq	-32(%rbp), %rax	# __p, _8
	movq	%rax, %rsi	# _8,
	movl	$2, %edi	#,
	call	_ZnwmPv	#
	testq	%rax, %rax	# _10
	je	.L93	#,
	movw	%bx, (%rax)	# _6, MEM[(short int *)_10]
.L93:
	nop
	addq	$40, %rsp	#,
	popq	%rbx	#
	popq	%rbp	#
	.cfi_def_cfa 7, 8
	ret
	.cfi_endproc
.LFE2319:
	.size	_ZN9__gnu_cxx13new_allocatorIsE9constructIsJsEEEvPT_DpOT0_, .-_ZN9__gnu_cxx13new_allocatorIsE9constructIsJsEEEvPT_DpOT0_
	.section	.text._ZN9__gnu_cxx17__normal_iteratorIPsSt6vectorIsSaIsEEEC2ERKS1_,"axG",@progbits,_ZN9__gnu_cxx17__normal_iteratorIPsSt6vectorIsSaIsEEEC5ERKS1_,comdat
	.align 2
	.weak	_ZN9__gnu_cxx17__normal_iteratorIPsSt6vectorIsSaIsEEEC2ERKS1_
	.type	_ZN9__gnu_cxx17__normal_iteratorIPsSt6vectorIsSaIsEEEC2ERKS1_, @function
_ZN9__gnu_cxx17__normal_iteratorIPsSt6vectorIsSaIsEEEC2ERKS1_:
.LFB2321:
	.file 11 "/usr/include/c++/7/bits/stl_iterator.h"
	.loc 11 782 0
	.cfi_startproc
	pushq	%rbp	#
	.cfi_def_cfa_offset 16
	.cfi_offset 6, -16
	movq	%rsp, %rbp	#,
	.cfi_def_cfa_register 6
	movq	%rdi, -8(%rbp)	# this, this
	movq	%rsi, -16(%rbp)	# __i, __i
.LBB25:
# /usr/include/c++/7/bits/stl_iterator.h:783:       : _M_current(__i) { }
	.loc 11 783 0
	movq	-16(%rbp), %rax	# __i, tmp88
	movq	(%rax), %rdx	# *__i_5(D), _1
	movq	-8(%rbp), %rax	# this, tmp89
	movq	%rdx, (%rax)	# _1, this_3(D)->_M_current
.LBE25:
	nop
	popq	%rbp	#
	.cfi_def_cfa 7, 8
	ret
	.cfi_endproc
.LFE2321:
	.size	_ZN9__gnu_cxx17__normal_iteratorIPsSt6vectorIsSaIsEEEC2ERKS1_, .-_ZN9__gnu_cxx17__normal_iteratorIPsSt6vectorIsSaIsEEEC2ERKS1_
	.weak	_ZN9__gnu_cxx17__normal_iteratorIPsSt6vectorIsSaIsEEEC1ERKS1_
	.set	_ZN9__gnu_cxx17__normal_iteratorIPsSt6vectorIsSaIsEEEC1ERKS1_,_ZN9__gnu_cxx17__normal_iteratorIPsSt6vectorIsSaIsEEEC2ERKS1_
	.section	.text._ZNSt6vectorIsSaIsEE5beginEv,"axG",@progbits,_ZNSt6vectorIsSaIsEE5beginEv,comdat
	.align 2
	.weak	_ZNSt6vectorIsSaIsEE5beginEv
	.type	_ZNSt6vectorIsSaIsEE5beginEv, @function
_ZNSt6vectorIsSaIsEE5beginEv:
.LFB2323:
	.loc 3 563 0
	.cfi_startproc
	pushq	%rbp	#
	.cfi_def_cfa_offset 16
	.cfi_offset 6, -16
	movq	%rsp, %rbp	#,
	.cfi_def_cfa_register 6
	subq	$32, %rsp	#,
	movq	%rdi, -24(%rbp)	# this, this
# /usr/include/c++/7/bits/stl_vector.h:563:       begin() _GLIBCXX_NOEXCEPT
	.loc 3 563 0
	movq	%fs:40, %rax	#, tmp92
	movq	%rax, -8(%rbp)	# tmp92, D.46043
	xorl	%eax, %eax	# tmp92
# /usr/include/c++/7/bits/stl_vector.h:564:       { return iterator(this->_M_impl._M_start); }
	.loc 3 564 0
	movq	-24(%rbp), %rdx	# this, _1
	leaq	-16(%rbp), %rax	#, tmp90
	movq	%rdx, %rsi	# _1,
	movq	%rax, %rdi	# tmp90,
	call	_ZN9__gnu_cxx17__normal_iteratorIPsSt6vectorIsSaIsEEEC1ERKS1_	#
	movq	-16(%rbp), %rax	# D.45221, D.45836
	movq	-8(%rbp), %rcx	# D.46043, tmp93
	xorq	%fs:40, %rcx	#, tmp93
	je	.L97	#,
	call	__stack_chk_fail@PLT	#
.L97:
	leave
	.cfi_def_cfa 7, 8
	ret
	.cfi_endproc
.LFE2323:
	.size	_ZNSt6vectorIsSaIsEE5beginEv, .-_ZNSt6vectorIsSaIsEE5beginEv
	.section	.text._ZN9__gnu_cxxmiIPsSt6vectorIsSaIsEEEENS_17__normal_iteratorIT_T0_E15difference_typeERKS8_SB_,"axG",@progbits,_ZN9__gnu_cxxmiIPsSt6vectorIsSaIsEEEENS_17__normal_iteratorIT_T0_E15difference_typeERKS8_SB_,comdat
	.weak	_ZN9__gnu_cxxmiIPsSt6vectorIsSaIsEEEENS_17__normal_iteratorIT_T0_E15difference_typeERKS8_SB_
	.type	_ZN9__gnu_cxxmiIPsSt6vectorIsSaIsEEEENS_17__normal_iteratorIT_T0_E15difference_typeERKS8_SB_, @function
_ZN9__gnu_cxxmiIPsSt6vectorIsSaIsEEEENS_17__normal_iteratorIT_T0_E15difference_typeERKS8_SB_:
.LFB2324:
	.loc 11 965 0
	.cfi_startproc
	pushq	%rbp	#
	.cfi_def_cfa_offset 16
	.cfi_offset 6, -16
	movq	%rsp, %rbp	#,
	.cfi_def_cfa_register 6
	pushq	%rbx	#
	subq	$24, %rsp	#,
	.cfi_offset 3, -24
	movq	%rdi, -24(%rbp)	# __lhs, __lhs
	movq	%rsi, -32(%rbp)	# __rhs, __rhs
# /usr/include/c++/7/bits/stl_iterator.h:968:     { return __lhs.base() - __rhs.base(); }
	.loc 11 968 0
	movq	-24(%rbp), %rax	# __lhs, tmp96
	movq	%rax, %rdi	# tmp96,
	call	_ZNK9__gnu_cxx17__normal_iteratorIPsSt6vectorIsSaIsEEE4baseEv	#
	movq	(%rax), %rax	# *_1, _2
	movq	%rax, %rbx	# _2, _3
	movq	-32(%rbp), %rax	# __rhs, tmp97
	movq	%rax, %rdi	# tmp97,
	call	_ZNK9__gnu_cxx17__normal_iteratorIPsSt6vectorIsSaIsEEE4baseEv	#
	movq	(%rax), %rax	# *_4, _5
	subq	%rax, %rbx	# _6, _3
	movq	%rbx, %rax	# _3, _7
	sarq	%rax	# tmp98
	addq	$24, %rsp	#,
	popq	%rbx	#
	popq	%rbp	#
	.cfi_def_cfa 7, 8
	ret
	.cfi_endproc
.LFE2324:
	.size	_ZN9__gnu_cxxmiIPsSt6vectorIsSaIsEEEENS_17__normal_iteratorIT_T0_E15difference_typeERKS8_SB_, .-_ZN9__gnu_cxxmiIPsSt6vectorIsSaIsEEEENS_17__normal_iteratorIT_T0_E15difference_typeERKS8_SB_
	.section	.text._ZNK9__gnu_cxx17__normal_iteratorIPsSt6vectorIsSaIsEEE4baseEv,"axG",@progbits,_ZNK9__gnu_cxx17__normal_iteratorIPsSt6vectorIsSaIsEEE4baseEv,comdat
	.align 2
	.weak	_ZNK9__gnu_cxx17__normal_iteratorIPsSt6vectorIsSaIsEEE4baseEv
	.type	_ZNK9__gnu_cxx17__normal_iteratorIPsSt6vectorIsSaIsEEE4baseEv, @function
_ZNK9__gnu_cxx17__normal_iteratorIPsSt6vectorIsSaIsEEE4baseEv:
.LFB2325:
	.loc 11 847 0
	.cfi_startproc
	pushq	%rbp	#
	.cfi_def_cfa_offset 16
	.cfi_offset 6, -16
	movq	%rsp, %rbp	#,
	.cfi_def_cfa_register 6
	movq	%rdi, -8(%rbp)	# this, this
# /usr/include/c++/7/bits/stl_iterator.h:848:       { return _M_current; }
	.loc 11 848 0
	movq	-8(%rbp), %rax	# this, _2
	popq	%rbp	#
	.cfi_def_cfa 7, 8
	ret
	.cfi_endproc
.LFE2325:
	.size	_ZNK9__gnu_cxx17__normal_iteratorIPsSt6vectorIsSaIsEEE4baseEv, .-_ZNK9__gnu_cxx17__normal_iteratorIPsSt6vectorIsSaIsEEE4baseEv
	.section	.text._ZNSt16allocator_traitsISaIsEE7destroyIsEEvRS0_PT_,"axG",@progbits,_ZNSt16allocator_traitsISaIsEE7destroyIsEEvRS0_PT_,comdat
	.weak	_ZNSt16allocator_traitsISaIsEE7destroyIsEEvRS0_PT_
	.type	_ZNSt16allocator_traitsISaIsEE7destroyIsEEvRS0_PT_, @function
_ZNSt16allocator_traitsISaIsEE7destroyIsEEvRS0_PT_:
.LFB2326:
	.loc 8 486 0
	.cfi_startproc
	pushq	%rbp	#
	.cfi_def_cfa_offset 16
	.cfi_offset 6, -16
	movq	%rsp, %rbp	#,
	.cfi_def_cfa_register 6
	subq	$16, %rsp	#,
	movq	%rdi, -8(%rbp)	# __a, __a
	movq	%rsi, -16(%rbp)	# __p, __p
# /usr/include/c++/7/bits/alloc_traits.h:487: 	{ __a.destroy(__p); }
	.loc 8 487 0
	movq	-16(%rbp), %rdx	# __p, tmp87
	movq	-8(%rbp), %rax	# __a, tmp88
	movq	%rdx, %rsi	# tmp87,
	movq	%rax, %rdi	# tmp88,
	call	_ZN9__gnu_cxx13new_allocatorIsE7destroyIsEEvPT_	#
	nop
	leave
	.cfi_def_cfa 7, 8
	ret
	.cfi_endproc
.LFE2326:
	.size	_ZNSt16allocator_traitsISaIsEE7destroyIsEEvRS0_PT_, .-_ZNSt16allocator_traitsISaIsEE7destroyIsEEvRS0_PT_
	.section	.text._ZSt25__uninitialized_default_nIPsmET_S1_T0_,"axG",@progbits,_ZSt25__uninitialized_default_nIPsmET_S1_T0_,comdat
	.weak	_ZSt25__uninitialized_default_nIPsmET_S1_T0_
	.type	_ZSt25__uninitialized_default_nIPsmET_S1_T0_, @function
_ZSt25__uninitialized_default_nIPsmET_S1_T0_:
.LFB2327:
	.loc 9 574 0
	.cfi_startproc
	pushq	%rbp	#
	.cfi_def_cfa_offset 16
	.cfi_offset 6, -16
	movq	%rsp, %rbp	#,
	.cfi_def_cfa_register 6
	subq	$32, %rsp	#,
	movq	%rdi, -24(%rbp)	# __first, __first
	movq	%rsi, -32(%rbp)	# __n, __n
# /usr/include/c++/7/bits/stl_uninitialized.h:579:       const bool __assignable = is_copy_assignable<_ValueType>::value;
	.loc 9 579 0
	movb	$1, -1(%rbp)	#, __assignable
# /usr/include/c++/7/bits/stl_uninitialized.h:583: 	__uninit_default_n(__first, __n);
	.loc 9 583 0
	movq	-32(%rbp), %rdx	# __n, tmp89
	movq	-24(%rbp), %rax	# __first, tmp90
	movq	%rdx, %rsi	# tmp89,
	movq	%rax, %rdi	# tmp90,
	call	_ZNSt27__uninitialized_default_n_1ILb1EE18__uninit_default_nIPsmEET_S3_T0_	#
# /usr/include/c++/7/bits/stl_uninitialized.h:584:     }
	.loc 9 584 0
	leave
	.cfi_def_cfa 7, 8
	ret
	.cfi_endproc
.LFE2327:
	.size	_ZSt25__uninitialized_default_nIPsmET_S1_T0_, .-_ZSt25__uninitialized_default_nIPsmET_S1_T0_
	.section	.text._ZNKSt6vectorIsSaIsEE8max_sizeEv,"axG",@progbits,_ZNKSt6vectorIsSaIsEE8max_sizeEv,comdat
	.align 2
	.weak	_ZNKSt6vectorIsSaIsEE8max_sizeEv
	.type	_ZNKSt6vectorIsSaIsEE8max_sizeEv, @function
_ZNKSt6vectorIsSaIsEE8max_sizeEv:
.LFB2328:
	.loc 3 675 0
	.cfi_startproc
	pushq	%rbp	#
	.cfi_def_cfa_offset 16
	.cfi_offset 6, -16
	movq	%rsp, %rbp	#,
	.cfi_def_cfa_register 6
	subq	$16, %rsp	#,
	movq	%rdi, -8(%rbp)	# this, this
# /usr/include/c++/7/bits/stl_vector.h:676:       { return _Alloc_traits::max_size(_M_get_Tp_allocator()); }
	.loc 3 676 0
	movq	-8(%rbp), %rax	# this, _1
	movq	%rax, %rdi	# _1,
	call	_ZNKSt12_Vector_baseIsSaIsEE19_M_get_Tp_allocatorEv	#
	movq	%rax, %rdi	# _2,
	call	_ZNSt16allocator_traitsISaIsEE8max_sizeERKS0_	#
	leave
	.cfi_def_cfa 7, 8
	ret
	.cfi_endproc
.LFE2328:
	.size	_ZNKSt6vectorIsSaIsEE8max_sizeEv, .-_ZNKSt6vectorIsSaIsEE8max_sizeEv
	.section	.text._ZSt3maxImERKT_S2_S2_,"axG",@progbits,_ZSt3maxImERKT_S2_S2_,comdat
	.weak	_ZSt3maxImERKT_S2_S2_
	.type	_ZSt3maxImERKT_S2_S2_, @function
_ZSt3maxImERKT_S2_S2_:
.LFB2329:
	.file 12 "/usr/include/c++/7/bits/stl_algobase.h"
	.loc 12 219 0
	.cfi_startproc
	pushq	%rbp	#
	.cfi_def_cfa_offset 16
	.cfi_offset 6, -16
	movq	%rsp, %rbp	#,
	.cfi_def_cfa_register 6
	movq	%rdi, -8(%rbp)	# __a, __a
	movq	%rsi, -16(%rbp)	# __b, __b
# /usr/include/c++/7/bits/stl_algobase.h:224:       if (__a < __b)
	.loc 12 224 0
	movq	-8(%rbp), %rax	# __a, tmp91
	movq	(%rax), %rdx	# *__a_5(D), _1
	movq	-16(%rbp), %rax	# __b, tmp92
	movq	(%rax), %rax	# *__b_6(D), _2
	cmpq	%rax, %rdx	# _2, _1
	jnb	.L108	#,
# /usr/include/c++/7/bits/stl_algobase.h:225: 	return __b;
	.loc 12 225 0
	movq	-16(%rbp), %rax	# __b, _3
	jmp	.L109	#
.L108:
# /usr/include/c++/7/bits/stl_algobase.h:226:       return __a;
	.loc 12 226 0
	movq	-8(%rbp), %rax	# __a, _3
.L109:
# /usr/include/c++/7/bits/stl_algobase.h:227:     }
	.loc 12 227 0
	popq	%rbp	#
	.cfi_def_cfa 7, 8
	ret
	.cfi_endproc
.LFE2329:
	.size	_ZSt3maxImERKT_S2_S2_, .-_ZSt3maxImERKT_S2_S2_
	.section	.text._ZNSt16allocator_traitsISaIsEE8allocateERS0_m,"axG",@progbits,_ZNSt16allocator_traitsISaIsEE8allocateERS0_m,comdat
	.weak	_ZNSt16allocator_traitsISaIsEE8allocateERS0_m
	.type	_ZNSt16allocator_traitsISaIsEE8allocateERS0_m, @function
_ZNSt16allocator_traitsISaIsEE8allocateERS0_m:
.LFB2330:
	.loc 8 435 0
	.cfi_startproc
	pushq	%rbp	#
	.cfi_def_cfa_offset 16
	.cfi_offset 6, -16
	movq	%rsp, %rbp	#,
	.cfi_def_cfa_register 6
	subq	$16, %rsp	#,
	movq	%rdi, -8(%rbp)	# __a, __a
	movq	%rsi, -16(%rbp)	# __n, __n
# /usr/include/c++/7/bits/alloc_traits.h:436:       { return __a.allocate(__n); }
	.loc 8 436 0
	movq	-16(%rbp), %rcx	# __n, tmp89
	movq	-8(%rbp), %rax	# __a, tmp90
	movl	$0, %edx	#,
	movq	%rcx, %rsi	# tmp89,
	movq	%rax, %rdi	# tmp90,
	call	_ZN9__gnu_cxx13new_allocatorIsE8allocateEmPKv	#
	leave
	.cfi_def_cfa 7, 8
	ret
	.cfi_endproc
.LFE2330:
	.size	_ZNSt16allocator_traitsISaIsEE8allocateERS0_m, .-_ZNSt16allocator_traitsISaIsEE8allocateERS0_m
	.section	.text._ZSt32__make_move_if_noexcept_iteratorIsSt13move_iteratorIPsEET0_PT_,"axG",@progbits,_ZSt32__make_move_if_noexcept_iteratorIsSt13move_iteratorIPsEET0_PT_,comdat
	.weak	_ZSt32__make_move_if_noexcept_iteratorIsSt13move_iteratorIPsEET0_PT_
	.type	_ZSt32__make_move_if_noexcept_iteratorIsSt13move_iteratorIPsEET0_PT_, @function
_ZSt32__make_move_if_noexcept_iteratorIsSt13move_iteratorIPsEET0_PT_:
.LFB2331:
	.loc 11 1224 0
	.cfi_startproc
	pushq	%rbp	#
	.cfi_def_cfa_offset 16
	.cfi_offset 6, -16
	movq	%rsp, %rbp	#,
	.cfi_def_cfa_register 6
	subq	$32, %rsp	#,
	movq	%rdi, -24(%rbp)	# __i, __i
# /usr/include/c++/7/bits/stl_iterator.h:1224:     __make_move_if_noexcept_iterator(_Tp* __i)
	.loc 11 1224 0
	movq	%fs:40, %rax	#, tmp92
	movq	%rax, -8(%rbp)	# tmp92, D.46044
	xorl	%eax, %eax	# tmp92
# /usr/include/c++/7/bits/stl_iterator.h:1225:     { return _ReturnType(__i); }
	.loc 11 1225 0
	movq	-24(%rbp), %rdx	# __i, tmp89
	leaq	-16(%rbp), %rax	#, tmp90
	movq	%rdx, %rsi	# tmp89,
	movq	%rax, %rdi	# tmp90,
	call	_ZNSt13move_iteratorIPsEC1ES0_	#
	movq	-16(%rbp), %rax	# D.45352, D.45864
	movq	-8(%rbp), %rcx	# D.46044, tmp93
	xorq	%fs:40, %rcx	#, tmp93
	je	.L114	#,
	call	__stack_chk_fail@PLT	#
.L114:
	leave
	.cfi_def_cfa 7, 8
	ret
	.cfi_endproc
.LFE2331:
	.size	_ZSt32__make_move_if_noexcept_iteratorIsSt13move_iteratorIPsEET0_PT_, .-_ZSt32__make_move_if_noexcept_iteratorIsSt13move_iteratorIPsEET0_PT_
	.section	.text._ZSt22__uninitialized_copy_aISt13move_iteratorIPsES1_sET0_T_S4_S3_RSaIT1_E,"axG",@progbits,_ZSt22__uninitialized_copy_aISt13move_iteratorIPsES1_sET0_T_S4_S3_RSaIT1_E,comdat
	.weak	_ZSt22__uninitialized_copy_aISt13move_iteratorIPsES1_sET0_T_S4_S3_RSaIT1_E
	.type	_ZSt22__uninitialized_copy_aISt13move_iteratorIPsES1_sET0_T_S4_S3_RSaIT1_E, @function
_ZSt22__uninitialized_copy_aISt13move_iteratorIPsES1_sET0_T_S4_S3_RSaIT1_E:
.LFB2332:
	.loc 9 287 0
	.cfi_startproc
	pushq	%rbp	#
	.cfi_def_cfa_offset 16
	.cfi_offset 6, -16
	movq	%rsp, %rbp	#,
	.cfi_def_cfa_register 6
	subq	$32, %rsp	#,
	movq	%rdi, -8(%rbp)	# __first, __first
	movq	%rsi, -16(%rbp)	# __last, __last
	movq	%rdx, -24(%rbp)	# __result, __result
	movq	%rcx, -32(%rbp)	# D.44400, D.44400
# /usr/include/c++/7/bits/stl_uninitialized.h:289:     { return std::uninitialized_copy(__first, __last, __result); }
	.loc 9 289 0
	movq	-24(%rbp), %rdx	# __result, tmp89
	movq	-16(%rbp), %rcx	# __last, tmp90
	movq	-8(%rbp), %rax	# __first, tmp91
	movq	%rcx, %rsi	# tmp90,
	movq	%rax, %rdi	# tmp91,
	call	_ZSt18uninitialized_copyISt13move_iteratorIPsES1_ET0_T_S4_S3_	#
	leave
	.cfi_def_cfa 7, 8
	ret
	.cfi_endproc
.LFE2332:
	.size	_ZSt22__uninitialized_copy_aISt13move_iteratorIPsES1_sET0_T_S4_S3_RSaIT1_E, .-_ZSt22__uninitialized_copy_aISt13move_iteratorIPsES1_sET0_T_S4_S3_RSaIT1_E
	.section	.text._ZN9__gnu_cxx13new_allocatorIsEC2Ev,"axG",@progbits,_ZN9__gnu_cxx13new_allocatorIsEC5Ev,comdat
	.align 2
	.weak	_ZN9__gnu_cxx13new_allocatorIsEC2Ev
	.type	_ZN9__gnu_cxx13new_allocatorIsEC2Ev, @function
_ZN9__gnu_cxx13new_allocatorIsEC2Ev:
.LFB2367:
	.loc 10 79 0
	.cfi_startproc
	pushq	%rbp	#
	.cfi_def_cfa_offset 16
	.cfi_offset 6, -16
	movq	%rsp, %rbp	#,
	.cfi_def_cfa_register 6
	movq	%rdi, -8(%rbp)	# this, this
# /usr/include/c++/7/ext/new_allocator.h:79:       new_allocator() _GLIBCXX_USE_NOEXCEPT { }
	.loc 10 79 0
	nop
	popq	%rbp	#
	.cfi_def_cfa 7, 8
	ret
	.cfi_endproc
.LFE2367:
	.size	_ZN9__gnu_cxx13new_allocatorIsEC2Ev, .-_ZN9__gnu_cxx13new_allocatorIsEC2Ev
	.weak	_ZN9__gnu_cxx13new_allocatorIsEC1Ev
	.set	_ZN9__gnu_cxx13new_allocatorIsEC1Ev,_ZN9__gnu_cxx13new_allocatorIsEC2Ev
	.section	.text._ZN9__gnu_cxx13new_allocatorIsE10deallocateEPsm,"axG",@progbits,_ZN9__gnu_cxx13new_allocatorIsE10deallocateEPsm,comdat
	.align 2
	.weak	_ZN9__gnu_cxx13new_allocatorIsE10deallocateEPsm
	.type	_ZN9__gnu_cxx13new_allocatorIsE10deallocateEPsm, @function
_ZN9__gnu_cxx13new_allocatorIsE10deallocateEPsm:
.LFB2369:
	.loc 10 116 0
	.cfi_startproc
	pushq	%rbp	#
	.cfi_def_cfa_offset 16
	.cfi_offset 6, -16
	movq	%rsp, %rbp	#,
	.cfi_def_cfa_register 6
	subq	$32, %rsp	#,
	movq	%rdi, -8(%rbp)	# this, this
	movq	%rsi, -16(%rbp)	# __p, __p
	movq	%rdx, -24(%rbp)	# D.39777, D.39777
# /usr/include/c++/7/ext/new_allocator.h:125: 	::operator delete(__p);
	.loc 10 125 0
	movq	-16(%rbp), %rax	# __p, tmp87
	movq	%rax, %rdi	# tmp87,
	call	_ZdlPv@PLT	#
# /usr/include/c++/7/ext/new_allocator.h:126:       }
	.loc 10 126 0
	nop
	leave
	.cfi_def_cfa 7, 8
	ret
	.cfi_endproc
.LFE2369:
	.size	_ZN9__gnu_cxx13new_allocatorIsE10deallocateEPsm, .-_ZN9__gnu_cxx13new_allocatorIsE10deallocateEPsm
	.section	.text._ZN9__gnu_cxx13new_allocatorIsE7destroyIsEEvPT_,"axG",@progbits,_ZN9__gnu_cxx13new_allocatorIsE7destroyIsEEvPT_,comdat
	.align 2
	.weak	_ZN9__gnu_cxx13new_allocatorIsE7destroyIsEEvPT_
	.type	_ZN9__gnu_cxx13new_allocatorIsE7destroyIsEEvPT_, @function
_ZN9__gnu_cxx13new_allocatorIsE7destroyIsEEvPT_:
.LFB2370:
	.loc 10 140 0
	.cfi_startproc
	pushq	%rbp	#
	.cfi_def_cfa_offset 16
	.cfi_offset 6, -16
	movq	%rsp, %rbp	#,
	.cfi_def_cfa_register 6
	movq	%rdi, -8(%rbp)	# this, this
	movq	%rsi, -16(%rbp)	# __p, __p
# /usr/include/c++/7/ext/new_allocator.h:140: 	destroy(_Up* __p) { __p->~_Up(); }
	.loc 10 140 0
	nop
	popq	%rbp	#
	.cfi_def_cfa 7, 8
	ret
	.cfi_endproc
.LFE2370:
	.size	_ZN9__gnu_cxx13new_allocatorIsE7destroyIsEEvPT_, .-_ZN9__gnu_cxx13new_allocatorIsE7destroyIsEEvPT_
	.section	.text._ZNSt27__uninitialized_default_n_1ILb1EE18__uninit_default_nIPsmEET_S3_T0_,"axG",@progbits,_ZNSt27__uninitialized_default_n_1ILb1EE18__uninit_default_nIPsmEET_S3_T0_,comdat
	.weak	_ZNSt27__uninitialized_default_n_1ILb1EE18__uninit_default_nIPsmEET_S3_T0_
	.type	_ZNSt27__uninitialized_default_n_1ILb1EE18__uninit_default_nIPsmEET_S3_T0_, @function
_ZNSt27__uninitialized_default_n_1ILb1EE18__uninit_default_nIPsmEET_S3_T0_:
.LFB2371:
	.loc 9 543 0
	.cfi_startproc
	pushq	%rbp	#
	.cfi_def_cfa_offset 16
	.cfi_offset 6, -16
	movq	%rsp, %rbp	#,
	.cfi_def_cfa_register 6
	subq	$32, %rsp	#,
	movq	%rdi, -24(%rbp)	# __first, __first
	movq	%rsi, -32(%rbp)	# __n, __n
# /usr/include/c++/7/bits/stl_uninitialized.h:543:         __uninit_default_n(_ForwardIterator __first, _Size __n)
	.loc 9 543 0
	movq	%fs:40, %rax	#, tmp93
	movq	%rax, -8(%rbp)	# tmp93, D.46045
	xorl	%eax, %eax	# tmp93
# /usr/include/c++/7/bits/stl_uninitialized.h:548: 	  return std::fill_n(__first, __n, _ValueType());
	.loc 9 548 0
	movw	$0, -10(%rbp)	#, D.45488
	leaq	-10(%rbp), %rdx	#, tmp89
	movq	-32(%rbp), %rcx	# __n, tmp90
	movq	-24(%rbp), %rax	# __first, tmp91
	movq	%rcx, %rsi	# tmp90,
	movq	%rax, %rdi	# tmp91,
	call	_ZSt6fill_nIPsmsET_S1_T0_RKT1_	#
# /usr/include/c++/7/bits/stl_uninitialized.h:549: 	}
	.loc 9 549 0
	movq	-8(%rbp), %rcx	# D.46045, tmp94
	xorq	%fs:40, %rcx	#, tmp94
	je	.L122	#,
	call	__stack_chk_fail@PLT	#
.L122:
	leave
	.cfi_def_cfa 7, 8
	ret
	.cfi_endproc
.LFE2371:
	.size	_ZNSt27__uninitialized_default_n_1ILb1EE18__uninit_default_nIPsmEET_S3_T0_, .-_ZNSt27__uninitialized_default_n_1ILb1EE18__uninit_default_nIPsmEET_S3_T0_
	.section	.text._ZNSt16allocator_traitsISaIsEE8max_sizeERKS0_,"axG",@progbits,_ZNSt16allocator_traitsISaIsEE8max_sizeERKS0_,comdat
	.weak	_ZNSt16allocator_traitsISaIsEE8max_sizeERKS0_
	.type	_ZNSt16allocator_traitsISaIsEE8max_sizeERKS0_, @function
_ZNSt16allocator_traitsISaIsEE8max_sizeERKS0_:
.LFB2372:
	.loc 8 495 0
	.cfi_startproc
	pushq	%rbp	#
	.cfi_def_cfa_offset 16
	.cfi_offset 6, -16
	movq	%rsp, %rbp	#,
	.cfi_def_cfa_register 6
	subq	$16, %rsp	#,
	movq	%rdi, -8(%rbp)	# __a, __a
# /usr/include/c++/7/bits/alloc_traits.h:496:       { return __a.max_size(); }
	.loc 8 496 0
	movq	-8(%rbp), %rax	# __a, tmp89
	movq	%rax, %rdi	# tmp89,
	call	_ZNK9__gnu_cxx13new_allocatorIsE8max_sizeEv	#
	leave
	.cfi_def_cfa 7, 8
	ret
	.cfi_endproc
.LFE2372:
	.size	_ZNSt16allocator_traitsISaIsEE8max_sizeERKS0_, .-_ZNSt16allocator_traitsISaIsEE8max_sizeERKS0_
	.section	.text._ZNKSt12_Vector_baseIsSaIsEE19_M_get_Tp_allocatorEv,"axG",@progbits,_ZNKSt12_Vector_baseIsSaIsEE19_M_get_Tp_allocatorEv,comdat
	.align 2
	.weak	_ZNKSt12_Vector_baseIsSaIsEE19_M_get_Tp_allocatorEv
	.type	_ZNKSt12_Vector_baseIsSaIsEE19_M_get_Tp_allocatorEv, @function
_ZNKSt12_Vector_baseIsSaIsEE19_M_get_Tp_allocatorEv:
.LFB2373:
	.loc 3 119 0
	.cfi_startproc
	pushq	%rbp	#
	.cfi_def_cfa_offset 16
	.cfi_offset 6, -16
	movq	%rsp, %rbp	#,
	.cfi_def_cfa_register 6
	movq	%rdi, -8(%rbp)	# this, this
# /usr/include/c++/7/bits/stl_vector.h:120:       { return *static_cast<const _Tp_alloc_type*>(&this->_M_impl); }
	.loc 3 120 0
	movq	-8(%rbp), %rax	# this, _2
	popq	%rbp	#
	.cfi_def_cfa 7, 8
	ret
	.cfi_endproc
.LFE2373:
	.size	_ZNKSt12_Vector_baseIsSaIsEE19_M_get_Tp_allocatorEv, .-_ZNKSt12_Vector_baseIsSaIsEE19_M_get_Tp_allocatorEv
	.section	.text._ZN9__gnu_cxx13new_allocatorIsE8allocateEmPKv,"axG",@progbits,_ZN9__gnu_cxx13new_allocatorIsE8allocateEmPKv,comdat
	.align 2
	.weak	_ZN9__gnu_cxx13new_allocatorIsE8allocateEmPKv
	.type	_ZN9__gnu_cxx13new_allocatorIsE8allocateEmPKv, @function
_ZN9__gnu_cxx13new_allocatorIsE8allocateEmPKv:
.LFB2374:
	.loc 10 99 0
	.cfi_startproc
	pushq	%rbp	#
	.cfi_def_cfa_offset 16
	.cfi_offset 6, -16
	movq	%rsp, %rbp	#,
	.cfi_def_cfa_register 6
	subq	$32, %rsp	#,
	movq	%rdi, -8(%rbp)	# this, this
	movq	%rsi, -16(%rbp)	# __n, __n
	movq	%rdx, -24(%rbp)	# D.39773, D.39773
# /usr/include/c++/7/ext/new_allocator.h:101: 	if (__n > this->max_size())
	.loc 10 101 0
	movq	-8(%rbp), %rax	# this, tmp92
	movq	%rax, %rdi	# tmp92,
	call	_ZNK9__gnu_cxx13new_allocatorIsE8max_sizeEv	#
	cmpq	%rax, -16(%rbp)	# _1, __n
	seta	%al	#, retval.6_7
	testb	%al, %al	# retval.6_7
	je	.L128	#,
# /usr/include/c++/7/ext/new_allocator.h:102: 	  std::__throw_bad_alloc();
	.loc 10 102 0
	call	_ZSt17__throw_bad_allocv@PLT	#
.L128:
# /usr/include/c++/7/ext/new_allocator.h:111: 	return static_cast<_Tp*>(::operator new(__n * sizeof(_Tp)));
	.loc 10 111 0
	movq	-16(%rbp), %rax	# __n, tmp93
	addq	%rax, %rax	# _2
	movq	%rax, %rdi	# _2,
	call	_Znwm@PLT	#
# /usr/include/c++/7/ext/new_allocator.h:112:       }
	.loc 10 112 0
	leave
	.cfi_def_cfa 7, 8
	ret
	.cfi_endproc
.LFE2374:
	.size	_ZN9__gnu_cxx13new_allocatorIsE8allocateEmPKv, .-_ZN9__gnu_cxx13new_allocatorIsE8allocateEmPKv
	.section	.text._ZNSt13move_iteratorIPsEC2ES0_,"axG",@progbits,_ZNSt13move_iteratorIPsEC5ES0_,comdat
	.align 2
	.weak	_ZNSt13move_iteratorIPsEC2ES0_
	.type	_ZNSt13move_iteratorIPsEC2ES0_, @function
_ZNSt13move_iteratorIPsEC2ES0_:
.LFB2376:
	.loc 11 1039 0
	.cfi_startproc
	pushq	%rbp	#
	.cfi_def_cfa_offset 16
	.cfi_offset 6, -16
	movq	%rsp, %rbp	#,
	.cfi_def_cfa_register 6
	movq	%rdi, -8(%rbp)	# this, this
	movq	%rsi, -16(%rbp)	# __i, __i
.LBB26:
# /usr/include/c++/7/bits/stl_iterator.h:1040:       : _M_current(__i) { }
	.loc 11 1040 0
	movq	-8(%rbp), %rax	# this, tmp87
	movq	-16(%rbp), %rdx	# __i, tmp88
	movq	%rdx, (%rax)	# tmp88, this_2(D)->_M_current
.LBE26:
	nop
	popq	%rbp	#
	.cfi_def_cfa 7, 8
	ret
	.cfi_endproc
.LFE2376:
	.size	_ZNSt13move_iteratorIPsEC2ES0_, .-_ZNSt13move_iteratorIPsEC2ES0_
	.weak	_ZNSt13move_iteratorIPsEC1ES0_
	.set	_ZNSt13move_iteratorIPsEC1ES0_,_ZNSt13move_iteratorIPsEC2ES0_
	.section	.text._ZSt18uninitialized_copyISt13move_iteratorIPsES1_ET0_T_S4_S3_,"axG",@progbits,_ZSt18uninitialized_copyISt13move_iteratorIPsES1_ET0_T_S4_S3_,comdat
	.weak	_ZSt18uninitialized_copyISt13move_iteratorIPsES1_ET0_T_S4_S3_
	.type	_ZSt18uninitialized_copyISt13move_iteratorIPsES1_ET0_T_S4_S3_, @function
_ZSt18uninitialized_copyISt13move_iteratorIPsES1_ET0_T_S4_S3_:
.LFB2378:
	.loc 9 115 0
	.cfi_startproc
	pushq	%rbp	#
	.cfi_def_cfa_offset 16
	.cfi_offset 6, -16
	movq	%rsp, %rbp	#,
	.cfi_def_cfa_register 6
	subq	$48, %rsp	#,
	movq	%rdi, -24(%rbp)	# __first, __first
	movq	%rsi, -32(%rbp)	# __last, __last
	movq	%rdx, -40(%rbp)	# __result, __result
# /usr/include/c++/7/bits/stl_uninitialized.h:128:       const bool __assignable = is_assignable<_RefType2, _RefType1>::value;
	.loc 9 128 0
	movb	$1, -1(%rbp)	#, __assignable
# /usr/include/c++/7/bits/stl_uninitialized.h:134: 	__uninit_copy(__first, __last, __result);
	.loc 9 134 0
	movq	-40(%rbp), %rdx	# __result, tmp89
	movq	-32(%rbp), %rcx	# __last, tmp90
	movq	-24(%rbp), %rax	# __first, tmp91
	movq	%rcx, %rsi	# tmp90,
	movq	%rax, %rdi	# tmp91,
	call	_ZNSt20__uninitialized_copyILb1EE13__uninit_copyISt13move_iteratorIPsES3_EET0_T_S6_S5_	#
# /usr/include/c++/7/bits/stl_uninitialized.h:135:     }
	.loc 9 135 0
	leave
	.cfi_def_cfa 7, 8
	ret
	.cfi_endproc
.LFE2378:
	.size	_ZSt18uninitialized_copyISt13move_iteratorIPsES1_ET0_T_S4_S3_, .-_ZSt18uninitialized_copyISt13move_iteratorIPsES1_ET0_T_S4_S3_
	.section	.text._ZSt6fill_nIPsmsET_S1_T0_RKT1_,"axG",@progbits,_ZSt6fill_nIPsmsET_S1_T0_RKT1_,comdat
	.weak	_ZSt6fill_nIPsmsET_S1_T0_RKT1_
	.type	_ZSt6fill_nIPsmsET_S1_T0_RKT1_, @function
_ZSt6fill_nIPsmsET_S1_T0_RKT1_:
.LFB2404:
	.loc 12 784 0
	.cfi_startproc
	pushq	%rbp	#
	.cfi_def_cfa_offset 16
	.cfi_offset 6, -16
	movq	%rsp, %rbp	#,
	.cfi_def_cfa_register 6
	subq	$32, %rsp	#,
	movq	%rdi, -8(%rbp)	# __first, __first
	movq	%rsi, -16(%rbp)	# __n, __n
	movq	%rdx, -24(%rbp)	# __value, __value
# /usr/include/c++/7/bits/stl_algobase.h:789:       return _OI(std::__fill_n_a(std::__niter_base(__first), __n, __value));
	.loc 12 789 0
	movq	-8(%rbp), %rax	# __first, tmp90
	movq	%rax, %rdi	# tmp90,
	call	_ZSt12__niter_baseIPsET_S1_	#
	movq	%rax, %rcx	#, _1
	movq	-24(%rbp), %rdx	# __value, tmp91
	movq	-16(%rbp), %rax	# __n, tmp92
	movq	%rax, %rsi	# tmp92,
	movq	%rcx, %rdi	# _1,
	call	_ZSt10__fill_n_aIPsmsEN9__gnu_cxx11__enable_ifIXsrSt11__is_scalarIT1_E7__valueET_E6__typeES6_T0_RKS4_	#
# /usr/include/c++/7/bits/stl_algobase.h:790:     }
	.loc 12 790 0
	leave
	.cfi_def_cfa 7, 8
	ret
	.cfi_endproc
.LFE2404:
	.size	_ZSt6fill_nIPsmsET_S1_T0_RKT1_, .-_ZSt6fill_nIPsmsET_S1_T0_RKT1_
	.section	.text._ZNK9__gnu_cxx13new_allocatorIsE8max_sizeEv,"axG",@progbits,_ZNK9__gnu_cxx13new_allocatorIsE8max_sizeEv,comdat
	.align 2
	.weak	_ZNK9__gnu_cxx13new_allocatorIsE8max_sizeEv
	.type	_ZNK9__gnu_cxx13new_allocatorIsE8max_sizeEv, @function
_ZNK9__gnu_cxx13new_allocatorIsE8max_sizeEv:
.LFB2405:
	.loc 10 129 0
	.cfi_startproc
	pushq	%rbp	#
	.cfi_def_cfa_offset 16
	.cfi_offset 6, -16
	movq	%rsp, %rbp	#,
	.cfi_def_cfa_register 6
	movq	%rdi, -8(%rbp)	# this, this
# /usr/include/c++/7/ext/new_allocator.h:130:       { return size_t(-1) / sizeof(_Tp); }
	.loc 10 130 0
	movabsq	$9223372036854775807, %rax	#, _1
	popq	%rbp	#
	.cfi_def_cfa 7, 8
	ret
	.cfi_endproc
.LFE2405:
	.size	_ZNK9__gnu_cxx13new_allocatorIsE8max_sizeEv, .-_ZNK9__gnu_cxx13new_allocatorIsE8max_sizeEv
	.section	.text._ZNSt20__uninitialized_copyILb1EE13__uninit_copyISt13move_iteratorIPsES3_EET0_T_S6_S5_,"axG",@progbits,_ZNSt20__uninitialized_copyILb1EE13__uninit_copyISt13move_iteratorIPsES3_EET0_T_S6_S5_,comdat
	.weak	_ZNSt20__uninitialized_copyILb1EE13__uninit_copyISt13move_iteratorIPsES3_EET0_T_S6_S5_
	.type	_ZNSt20__uninitialized_copyILb1EE13__uninit_copyISt13move_iteratorIPsES3_EET0_T_S6_S5_, @function
_ZNSt20__uninitialized_copyILb1EE13__uninit_copyISt13move_iteratorIPsES3_EET0_T_S6_S5_:
.LFB2406:
	.loc 9 99 0
	.cfi_startproc
	pushq	%rbp	#
	.cfi_def_cfa_offset 16
	.cfi_offset 6, -16
	movq	%rsp, %rbp	#,
	.cfi_def_cfa_register 6
	subq	$32, %rsp	#,
	movq	%rdi, -8(%rbp)	# __first, __first
	movq	%rsi, -16(%rbp)	# __last, __last
	movq	%rdx, -24(%rbp)	# __result, __result
# /usr/include/c++/7/bits/stl_uninitialized.h:101:         { return std::copy(__first, __last, __result); }
	.loc 9 101 0
	movq	-24(%rbp), %rdx	# __result, tmp89
	movq	-16(%rbp), %rcx	# __last, tmp90
	movq	-8(%rbp), %rax	# __first, tmp91
	movq	%rcx, %rsi	# tmp90,
	movq	%rax, %rdi	# tmp91,
	call	_ZSt4copyISt13move_iteratorIPsES1_ET0_T_S4_S3_	#
	leave
	.cfi_def_cfa 7, 8
	ret
	.cfi_endproc
.LFE2406:
	.size	_ZNSt20__uninitialized_copyILb1EE13__uninit_copyISt13move_iteratorIPsES3_EET0_T_S6_S5_, .-_ZNSt20__uninitialized_copyILb1EE13__uninit_copyISt13move_iteratorIPsES3_EET0_T_S6_S5_
	.section	.text._ZSt12__niter_baseIPsET_S1_,"axG",@progbits,_ZSt12__niter_baseIPsET_S1_,comdat
	.weak	_ZSt12__niter_baseIPsET_S1_
	.type	_ZSt12__niter_baseIPsET_S1_, @function
_ZSt12__niter_baseIPsET_S1_:
.LFB2415:
	.loc 12 277 0
	.cfi_startproc
	pushq	%rbp	#
	.cfi_def_cfa_offset 16
	.cfi_offset 6, -16
	movq	%rsp, %rbp	#,
	.cfi_def_cfa_register 6
	movq	%rdi, -8(%rbp)	# __it, __it
# /usr/include/c++/7/bits/stl_algobase.h:278:     { return __it; }
	.loc 12 278 0
	movq	-8(%rbp), %rax	# __it, _2
	popq	%rbp	#
	.cfi_def_cfa 7, 8
	ret
	.cfi_endproc
.LFE2415:
	.size	_ZSt12__niter_baseIPsET_S1_, .-_ZSt12__niter_baseIPsET_S1_
	.section	.text._ZSt10__fill_n_aIPsmsEN9__gnu_cxx11__enable_ifIXsrSt11__is_scalarIT1_E7__valueET_E6__typeES6_T0_RKS4_,"axG",@progbits,_ZSt10__fill_n_aIPsmsEN9__gnu_cxx11__enable_ifIXsrSt11__is_scalarIT1_E7__valueET_E6__typeES6_T0_RKS4_,comdat
	.weak	_ZSt10__fill_n_aIPsmsEN9__gnu_cxx11__enable_ifIXsrSt11__is_scalarIT1_E7__valueET_E6__typeES6_T0_RKS4_
	.type	_ZSt10__fill_n_aIPsmsEN9__gnu_cxx11__enable_ifIXsrSt11__is_scalarIT1_E7__valueET_E6__typeES6_T0_RKS4_, @function
_ZSt10__fill_n_aIPsmsEN9__gnu_cxx11__enable_ifIXsrSt11__is_scalarIT1_E7__valueET_E6__typeES6_T0_RKS4_:
.LFB2416:
	.loc 12 749 0
	.cfi_startproc
	pushq	%rbp	#
	.cfi_def_cfa_offset 16
	.cfi_offset 6, -16
	movq	%rsp, %rbp	#,
	.cfi_def_cfa_register 6
	movq	%rdi, -24(%rbp)	# __first, __first
	movq	%rsi, -32(%rbp)	# __n, __n
	movq	%rdx, -40(%rbp)	# __value, __value
# /usr/include/c++/7/bits/stl_algobase.h:751:       const _Tp __tmp = __value;
	.loc 12 751 0
	movq	-40(%rbp), %rax	# __value, tmp89
	movzwl	(%rax), %eax	# *__value_5(D), tmp90
	movw	%ax, -10(%rbp)	# tmp90, __tmp
.LBB27:
# /usr/include/c++/7/bits/stl_algobase.h:752:       for (__decltype(__n + 0) __niter = __n;
	.loc 12 752 0
	movq	-32(%rbp), %rax	# __n, tmp91
	movq	%rax, -8(%rbp)	# tmp91, __niter
.L143:
# /usr/include/c++/7/bits/stl_algobase.h:753: 	   __niter > 0; --__niter, ++__first)
	.loc 12 753 0
	cmpq	$0, -8(%rbp)	#, __niter
	je	.L142	#,
# /usr/include/c++/7/bits/stl_algobase.h:754: 	*__first = __tmp;
	.loc 12 754 0
	movq	-24(%rbp), %rax	# __first, tmp92
	movzwl	-10(%rbp), %edx	# __tmp, tmp93
	movw	%dx, (%rax)	# tmp93, *__first_1
# /usr/include/c++/7/bits/stl_algobase.h:752:       for (__decltype(__n + 0) __niter = __n;
	.loc 12 752 0
	subq	$1, -8(%rbp)	#, __niter
	addq	$2, -24(%rbp)	#, __first
	jmp	.L143	#
.L142:
.LBE27:
# /usr/include/c++/7/bits/stl_algobase.h:755:       return __first;
	.loc 12 755 0
	movq	-24(%rbp), %rax	# __first, _13
# /usr/include/c++/7/bits/stl_algobase.h:756:     }
	.loc 12 756 0
	popq	%rbp	#
	.cfi_def_cfa 7, 8
	ret
	.cfi_endproc
.LFE2416:
	.size	_ZSt10__fill_n_aIPsmsEN9__gnu_cxx11__enable_ifIXsrSt11__is_scalarIT1_E7__valueET_E6__typeES6_T0_RKS4_, .-_ZSt10__fill_n_aIPsmsEN9__gnu_cxx11__enable_ifIXsrSt11__is_scalarIT1_E7__valueET_E6__typeES6_T0_RKS4_
	.section	.text._ZSt4copyISt13move_iteratorIPsES1_ET0_T_S4_S3_,"axG",@progbits,_ZSt4copyISt13move_iteratorIPsES1_ET0_T_S4_S3_,comdat
	.weak	_ZSt4copyISt13move_iteratorIPsES1_ET0_T_S4_S3_
	.type	_ZSt4copyISt13move_iteratorIPsES1_ET0_T_S4_S3_, @function
_ZSt4copyISt13move_iteratorIPsES1_ET0_T_S4_S3_:
.LFB2417:
	.loc 12 446 0
	.cfi_startproc
	pushq	%rbp	#
	.cfi_def_cfa_offset 16
	.cfi_offset 6, -16
	movq	%rsp, %rbp	#,
	.cfi_def_cfa_register 6
	pushq	%rbx	#
	subq	$40, %rsp	#,
	.cfi_offset 3, -24
	movq	%rdi, -24(%rbp)	# __first, __first
	movq	%rsi, -32(%rbp)	# __last, __last
	movq	%rdx, -40(%rbp)	# __result, __result
# /usr/include/c++/7/bits/stl_algobase.h:455: 	      (std::__miter_base(__first), std::__miter_base(__last),
	.loc 12 455 0
	movq	-32(%rbp), %rax	# __last, tmp91
	movq	%rax, %rdi	# tmp91,
	call	_ZSt12__miter_baseIPsEDTcl12__miter_basecldtfp_4baseEEESt13move_iteratorIT_E	#
	movq	%rax, %rbx	#, _1
	movq	-24(%rbp), %rax	# __first, tmp92
	movq	%rax, %rdi	# tmp92,
	call	_ZSt12__miter_baseIPsEDTcl12__miter_basecldtfp_4baseEEESt13move_iteratorIT_E	#
	movq	%rax, %rcx	#, _2
# /usr/include/c++/7/bits/stl_algobase.h:456: 	       __result));
	.loc 12 456 0
	movq	-40(%rbp), %rax	# __result, tmp93
	movq	%rax, %rdx	# tmp93,
	movq	%rbx, %rsi	# _1,
	movq	%rcx, %rdi	# _2,
	call	_ZSt14__copy_move_a2ILb1EPsS0_ET1_T0_S2_S1_	#
# /usr/include/c++/7/bits/stl_algobase.h:457:     }
	.loc 12 457 0
	addq	$40, %rsp	#,
	popq	%rbx	#
	popq	%rbp	#
	.cfi_def_cfa 7, 8
	ret
	.cfi_endproc
.LFE2417:
	.size	_ZSt4copyISt13move_iteratorIPsES1_ET0_T_S4_S3_, .-_ZSt4copyISt13move_iteratorIPsES1_ET0_T_S4_S3_
	.section	.text._ZSt12__miter_baseIPsEDTcl12__miter_basecldtfp_4baseEEESt13move_iteratorIT_E,"axG",@progbits,_ZSt12__miter_baseIPsEDTcl12__miter_basecldtfp_4baseEEESt13move_iteratorIT_E,comdat
	.weak	_ZSt12__miter_baseIPsEDTcl12__miter_basecldtfp_4baseEEESt13move_iteratorIT_E
	.type	_ZSt12__miter_baseIPsEDTcl12__miter_basecldtfp_4baseEEESt13move_iteratorIT_E, @function
_ZSt12__miter_baseIPsEDTcl12__miter_basecldtfp_4baseEEESt13move_iteratorIT_E:
.LFB2420:
	.loc 11 1244 0
	.cfi_startproc
	pushq	%rbp	#
	.cfi_def_cfa_offset 16
	.cfi_offset 6, -16
	movq	%rsp, %rbp	#,
	.cfi_def_cfa_register 6
	subq	$16, %rsp	#,
	movq	%rdi, -8(%rbp)	# __it, __it
# /usr/include/c++/7/bits/stl_iterator.h:1246:     { return __miter_base(__it.base()); }
	.loc 11 1246 0
	leaq	-8(%rbp), %rax	#, tmp90
	movq	%rax, %rdi	# tmp90,
	call	_ZNKSt13move_iteratorIPsE4baseEv	#
	movq	%rax, %rdi	# _1,
	call	_ZSt12__miter_baseIPsET_S1_	#
	leave
	.cfi_def_cfa 7, 8
	ret
	.cfi_endproc
.LFE2420:
	.size	_ZSt12__miter_baseIPsEDTcl12__miter_basecldtfp_4baseEEESt13move_iteratorIT_E, .-_ZSt12__miter_baseIPsEDTcl12__miter_basecldtfp_4baseEEESt13move_iteratorIT_E
	.section	.text._ZSt14__copy_move_a2ILb1EPsS0_ET1_T0_S2_S1_,"axG",@progbits,_ZSt14__copy_move_a2ILb1EPsS0_ET1_T0_S2_S1_,comdat
	.weak	_ZSt14__copy_move_a2ILb1EPsS0_ET1_T0_S2_S1_
	.type	_ZSt14__copy_move_a2ILb1EPsS0_ET1_T0_S2_S1_, @function
_ZSt14__copy_move_a2ILb1EPsS0_ET1_T0_S2_S1_:
.LFB2421:
	.loc 12 420 0
	.cfi_startproc
	pushq	%rbp	#
	.cfi_def_cfa_offset 16
	.cfi_offset 6, -16
	movq	%rsp, %rbp	#,
	.cfi_def_cfa_register 6
	pushq	%r12	#
	pushq	%rbx	#
	subq	$32, %rsp	#,
	.cfi_offset 12, -24
	.cfi_offset 3, -32
	movq	%rdi, -24(%rbp)	# __first, __first
	movq	%rsi, -32(%rbp)	# __last, __last
	movq	%rdx, -40(%rbp)	# __result, __result
# /usr/include/c++/7/bits/stl_algobase.h:422:       return _OI(std::__copy_move_a<_IsMove>(std::__niter_base(__first),
	.loc 12 422 0
	movq	-40(%rbp), %rax	# __result, tmp92
	movq	%rax, %rdi	# tmp92,
	call	_ZSt12__niter_baseIPsET_S1_	#
	movq	%rax, %r12	#, _1
	movq	-32(%rbp), %rax	# __last, tmp93
	movq	%rax, %rdi	# tmp93,
	call	_ZSt12__niter_baseIPsET_S1_	#
	movq	%rax, %rbx	#, _2
	movq	-24(%rbp), %rax	# __first, tmp94
	movq	%rax, %rdi	# tmp94,
	call	_ZSt12__niter_baseIPsET_S1_	#
# /usr/include/c++/7/bits/stl_algobase.h:424: 					     std::__niter_base(__result)));
	.loc 12 424 0
	movq	%r12, %rdx	# _1,
	movq	%rbx, %rsi	# _2,
	movq	%rax, %rdi	# _3,
	call	_ZSt13__copy_move_aILb1EPsS0_ET1_T0_S2_S1_	#
# /usr/include/c++/7/bits/stl_algobase.h:425:     }
	.loc 12 425 0
	addq	$32, %rsp	#,
	popq	%rbx	#
	popq	%r12	#
	popq	%rbp	#
	.cfi_def_cfa 7, 8
	ret
	.cfi_endproc
.LFE2421:
	.size	_ZSt14__copy_move_a2ILb1EPsS0_ET1_T0_S2_S1_, .-_ZSt14__copy_move_a2ILb1EPsS0_ET1_T0_S2_S1_
	.section	.text._ZNKSt13move_iteratorIPsE4baseEv,"axG",@progbits,_ZNKSt13move_iteratorIPsE4baseEv,comdat
	.align 2
	.weak	_ZNKSt13move_iteratorIPsE4baseEv
	.type	_ZNKSt13move_iteratorIPsE4baseEv, @function
_ZNKSt13move_iteratorIPsE4baseEv:
.LFB2422:
	.loc 11 1048 0
	.cfi_startproc
	pushq	%rbp	#
	.cfi_def_cfa_offset 16
	.cfi_offset 6, -16
	movq	%rsp, %rbp	#,
	.cfi_def_cfa_register 6
	movq	%rdi, -8(%rbp)	# this, this
# /usr/include/c++/7/bits/stl_iterator.h:1049:       { return _M_current; }
	.loc 11 1049 0
	movq	-8(%rbp), %rax	# this, tmp89
	movq	(%rax), %rax	# this_2(D)->_M_current, _3
	popq	%rbp	#
	.cfi_def_cfa 7, 8
	ret
	.cfi_endproc
.LFE2422:
	.size	_ZNKSt13move_iteratorIPsE4baseEv, .-_ZNKSt13move_iteratorIPsE4baseEv
	.section	.text._ZSt12__miter_baseIPsET_S1_,"axG",@progbits,_ZSt12__miter_baseIPsET_S1_,comdat
	.weak	_ZSt12__miter_baseIPsET_S1_
	.type	_ZSt12__miter_baseIPsET_S1_, @function
_ZSt12__miter_baseIPsET_S1_:
.LFB2423:
	.file 13 "/usr/include/c++/7/bits/cpp_type_traits.h"
	.loc 13 408 0
	.cfi_startproc
	pushq	%rbp	#
	.cfi_def_cfa_offset 16
	.cfi_offset 6, -16
	movq	%rsp, %rbp	#,
	.cfi_def_cfa_register 6
	movq	%rdi, -8(%rbp)	# __it, __it
# /usr/include/c++/7/bits/cpp_type_traits.h:409:     { return __it; }
	.loc 13 409 0
	movq	-8(%rbp), %rax	# __it, _2
	popq	%rbp	#
	.cfi_def_cfa 7, 8
	ret
	.cfi_endproc
.LFE2423:
	.size	_ZSt12__miter_baseIPsET_S1_, .-_ZSt12__miter_baseIPsET_S1_
	.section	.text._ZSt13__copy_move_aILb1EPsS0_ET1_T0_S2_S1_,"axG",@progbits,_ZSt13__copy_move_aILb1EPsS0_ET1_T0_S2_S1_,comdat
	.weak	_ZSt13__copy_move_aILb1EPsS0_ET1_T0_S2_S1_
	.type	_ZSt13__copy_move_aILb1EPsS0_ET1_T0_S2_S1_, @function
_ZSt13__copy_move_aILb1EPsS0_ET1_T0_S2_S1_:
.LFB2424:
	.loc 12 375 0
	.cfi_startproc
	pushq	%rbp	#
	.cfi_def_cfa_offset 16
	.cfi_offset 6, -16
	movq	%rsp, %rbp	#,
	.cfi_def_cfa_register 6
	subq	$48, %rsp	#,
	movq	%rdi, -24(%rbp)	# __first, __first
	movq	%rsi, -32(%rbp)	# __last, __last
	movq	%rdx, -40(%rbp)	# __result, __result
# /usr/include/c++/7/bits/stl_algobase.h:380:       const bool __simple = (__is_trivial(_ValueTypeI)
	.loc 12 380 0
	movb	$1, -1(%rbp)	#, __simple
# /usr/include/c++/7/bits/stl_algobase.h:386: 	                      _Category>::__copy_m(__first, __last, __result);
	.loc 12 386 0
	movq	-40(%rbp), %rdx	# __result, tmp89
	movq	-32(%rbp), %rcx	# __last, tmp90
	movq	-24(%rbp), %rax	# __first, tmp91
	movq	%rcx, %rsi	# tmp90,
	movq	%rax, %rdi	# tmp91,
	call	_ZNSt11__copy_moveILb1ELb1ESt26random_access_iterator_tagE8__copy_mIsEEPT_PKS3_S6_S4_	#
# /usr/include/c++/7/bits/stl_algobase.h:387:     }
	.loc 12 387 0
	leave
	.cfi_def_cfa 7, 8
	ret
	.cfi_endproc
.LFE2424:
	.size	_ZSt13__copy_move_aILb1EPsS0_ET1_T0_S2_S1_, .-_ZSt13__copy_move_aILb1EPsS0_ET1_T0_S2_S1_
	.section	.text._ZNSt11__copy_moveILb1ELb1ESt26random_access_iterator_tagE8__copy_mIsEEPT_PKS3_S6_S4_,"axG",@progbits,_ZNSt11__copy_moveILb1ELb1ESt26random_access_iterator_tagE8__copy_mIsEEPT_PKS3_S6_S4_,comdat
	.weak	_ZNSt11__copy_moveILb1ELb1ESt26random_access_iterator_tagE8__copy_mIsEEPT_PKS3_S6_S4_
	.type	_ZNSt11__copy_moveILb1ELb1ESt26random_access_iterator_tagE8__copy_mIsEEPT_PKS3_S6_S4_, @function
_ZNSt11__copy_moveILb1ELb1ESt26random_access_iterator_tagE8__copy_mIsEEPT_PKS3_S6_S4_:
.LFB2425:
	.loc 12 357 0
	.cfi_startproc
	pushq	%rbp	#
	.cfi_def_cfa_offset 16
	.cfi_offset 6, -16
	movq	%rsp, %rbp	#,
	.cfi_def_cfa_register 6
	subq	$48, %rsp	#,
	movq	%rdi, -24(%rbp)	# __first, __first
	movq	%rsi, -32(%rbp)	# __last, __last
	movq	%rdx, -40(%rbp)	# __result, __result
# /usr/include/c++/7/bits/stl_algobase.h:366: 	  const ptrdiff_t _Num = __last - __first;
	.loc 12 366 0
	movq	-32(%rbp), %rdx	# __last, __last.7_1
	movq	-24(%rbp), %rax	# __first, __first.8_2
	subq	%rax, %rdx	# __first.8_2, __last.7_1
	movq	%rdx, %rax	# __last.7_1, _3
	sarq	%rax	# tmp96
	movq	%rax, -8(%rbp)	# tmp96, _Num
# /usr/include/c++/7/bits/stl_algobase.h:367: 	  if (_Num)
	.loc 12 367 0
	cmpq	$0, -8(%rbp)	#, _Num
	je	.L158	#,
# /usr/include/c++/7/bits/stl_algobase.h:368: 	    __builtin_memmove(__result, __first, sizeof(_Tp) * _Num);
	.loc 12 368 0
	movq	-8(%rbp), %rax	# _Num, _Num.9_4
	leaq	(%rax,%rax), %rdx	#, _5
	movq	-24(%rbp), %rcx	# __first, tmp97
	movq	-40(%rbp), %rax	# __result, tmp98
	movq	%rcx, %rsi	# tmp97,
	movq	%rax, %rdi	# tmp98,
	call	memmove@PLT	#
.L158:
# /usr/include/c++/7/bits/stl_algobase.h:369: 	  return __result + _Num;
	.loc 12 369 0
	movq	-8(%rbp), %rax	# _Num, _Num.10_6
	leaq	(%rax,%rax), %rdx	#, _7
	movq	-40(%rbp), %rax	# __result, tmp99
	addq	%rdx, %rax	# _7, _15
# /usr/include/c++/7/bits/stl_algobase.h:370: 	}
	.loc 12 370 0
	leave
	.cfi_def_cfa 7, 8
	ret
	.cfi_endproc
.LFE2425:
	.size	_ZNSt11__copy_moveILb1ELb1ESt26random_access_iterator_tagE8__copy_mIsEEPT_PKS3_S6_S4_, .-_ZNSt11__copy_moveILb1ELb1ESt26random_access_iterator_tagE8__copy_mIsEEPT_PKS3_S6_S4_
	.text
	.type	_Z41__static_initialization_and_destruction_0ii, @function
_Z41__static_initialization_and_destruction_0ii:
.LFB2426:
	.loc 2 62 0
	.cfi_startproc
	pushq	%rbp	#
	.cfi_def_cfa_offset 16
	.cfi_offset 6, -16
	movq	%rsp, %rbp	#,
	.cfi_def_cfa_register 6
	subq	$16, %rsp	#,
	movl	%edi, -4(%rbp)	# __initialize_p, __initialize_p
	movl	%esi, -8(%rbp)	# __priority, __priority
# main.cpp:62: }
	.loc 2 62 0
	cmpl	$1, -4(%rbp)	#, __initialize_p
	jne	.L162	#,
# main.cpp:62: }
	.loc 2 62 0 is_stmt 0 discriminator 1
	cmpl	$65535, -8(%rbp)	#, __priority
	jne	.L162	#,
# /usr/include/c++/7/iostream:74:   static ios_base::Init __ioinit;
	.file 14 "/usr/include/c++/7/iostream"
	.loc 14 74 0 is_stmt 1
	leaq	_ZStL8__ioinit(%rip), %rdi	#,
	call	_ZNSt8ios_base4InitC1Ev@PLT	#
	leaq	__dso_handle(%rip), %rdx	#,
	leaq	_ZStL8__ioinit(%rip), %rsi	#,
	movq	_ZNSt8ios_base4InitD1Ev@GOTPCREL(%rip), %rax	#, tmp87
	movq	%rax, %rdi	# tmp87,
	call	__cxa_atexit@PLT	#
.L162:
# main.cpp:62: }
	.loc 2 62 0
	nop
	leave
	.cfi_def_cfa 7, 8
	ret
	.cfi_endproc
.LFE2426:
	.size	_Z41__static_initialization_and_destruction_0ii, .-_Z41__static_initialization_and_destruction_0ii
	.type	_GLOBAL__sub_I__Z5printi, @function
_GLOBAL__sub_I__Z5printi:
.LFB2427:
	.loc 2 62 0
	.cfi_startproc
	pushq	%rbp	#
	.cfi_def_cfa_offset 16
	.cfi_offset 6, -16
	movq	%rsp, %rbp	#,
	.cfi_def_cfa_register 6
# main.cpp:62: }
	.loc 2 62 0
	movl	$65535, %esi	#,
	movl	$1, %edi	#,
	call	_Z41__static_initialization_and_destruction_0ii	#
	popq	%rbp	#
	.cfi_def_cfa 7, 8
	ret
	.cfi_endproc
.LFE2427:
	.size	_GLOBAL__sub_I__Z5printi, .-_GLOBAL__sub_I__Z5printi
	.section	.init_array,"aw"
	.align 8
	.quad	_GLOBAL__sub_I__Z5printi
	.text
.Letext0:
	.file 15 "/usr/include/c++/7/cwchar"
	.file 16 "/usr/include/c++/7/bits/exception_ptr.h"
	.file 17 "/usr/include/c++/7/type_traits"
	.file 18 "/usr/include/x86_64-linux-gnu/c++/7/bits/c++config.h"
	.file 19 "/usr/include/c++/7/bits/stl_pair.h"
	.file 20 "/usr/include/c++/7/debug/debug.h"
	.file 21 "/usr/include/c++/7/bits/char_traits.h"
	.file 22 "/usr/include/c++/7/cstdint"
	.file 23 "/usr/include/c++/7/clocale"
	.file 24 "/usr/include/c++/7/cstdlib"
	.file 25 "/usr/include/c++/7/cstdio"
	.file 26 "/usr/include/c++/7/bits/basic_string.h"
	.file 27 "/usr/include/c++/7/system_error"
	.file 28 "/usr/include/c++/7/bits/ios_base.h"
	.file 29 "/usr/include/c++/7/cwctype"
	.file 30 "/usr/include/c++/7/iosfwd"
	.file 31 "/usr/include/c++/7/bits/stl_iterator_base_types.h"
	.file 32 "/usr/include/c++/7/bits/predefined_ops.h"
	.file 33 "/usr/include/c++/7/ext/numeric_traits.h"
	.file 34 "/usr/include/c++/7/ext/alloc_traits.h"
	.file 35 "/usr/include/c++/7/ext/type_traits.h"
	.file 36 "/usr/lib/gcc/x86_64-linux-gnu/7/include/stddef.h"
	.file 37 "<built-in>"
	.file 38 "/usr/include/x86_64-linux-gnu/bits/types/wint_t.h"
	.file 39 "/usr/include/x86_64-linux-gnu/bits/types/__mbstate_t.h"
	.file 40 "/usr/include/x86_64-linux-gnu/bits/types/mbstate_t.h"
	.file 41 "/usr/include/x86_64-linux-gnu/bits/types/__FILE.h"
	.file 42 "/usr/include/x86_64-linux-gnu/bits/libio.h"
	.file 43 "/usr/include/x86_64-linux-gnu/bits/types/FILE.h"
	.file 44 "/usr/include/wchar.h"
	.file 45 "/usr/include/x86_64-linux-gnu/bits/types/struct_tm.h"
	.file 46 "/usr/include/x86_64-linux-gnu/bits/types.h"
	.file 47 "/usr/include/x86_64-linux-gnu/bits/stdint-intn.h"
	.file 48 "/usr/include/x86_64-linux-gnu/bits/stdint-uintn.h"
	.file 49 "/usr/include/stdint.h"
	.file 50 "/usr/include/locale.h"
	.file 51 "/usr/include/time.h"
	.file 52 "/usr/include/x86_64-linux-gnu/c++/7/bits/atomic_word.h"
	.file 53 "/usr/include/stdlib.h"
	.file 54 "/usr/include/x86_64-linux-gnu/bits/_G_config.h"
	.file 55 "/usr/include/stdio.h"
	.file 56 "/usr/include/x86_64-linux-gnu/bits/sys_errlist.h"
	.file 57 "/usr/include/errno.h"
	.file 58 "/usr/include/x86_64-linux-gnu/bits/wctype-wchar.h"
	.file 59 "/usr/include/wctype.h"
	.section	.debug_info,"",@progbits
.Ldebug_info0:
	.long	0x5af4
	.value	0x4
	.long	.Ldebug_abbrev0
	.byte	0x8
	.uleb128 0x65
	.long	.LASF848
	.byte	0x4
	.long	.LASF849
	.long	.LASF850
	.long	.Ldebug_ranges0+0x30
	.quad	0
	.long	.Ldebug_line0
	.uleb128 0x66
	.string	"std"
	.byte	0x25
	.byte	0
	.long	0x24c8
	.uleb128 0x47
	.long	.LASF39
	.byte	0x12
	.byte	0xfd
	.uleb128 0x48
	.byte	0x12
	.byte	0xfd
	.long	0x34
	.uleb128 0x2
	.byte	0xf
	.byte	0x40
	.long	0x2dab
	.uleb128 0x2
	.byte	0xf
	.byte	0x8b
	.long	0x2d29
	.uleb128 0x2
	.byte	0xf
	.byte	0x8d
	.long	0x2f63
	.uleb128 0x2
	.byte	0xf
	.byte	0x8e
	.long	0x2f79
	.uleb128 0x2
	.byte	0xf
	.byte	0x8f
	.long	0x2f95
	.uleb128 0x2
	.byte	0xf
	.byte	0x90
	.long	0x2fc7
	.uleb128 0x2
	.byte	0xf
	.byte	0x91
	.long	0x2fe2
	.uleb128 0x2
	.byte	0xf
	.byte	0x92
	.long	0x3003
	.uleb128 0x2
	.byte	0xf
	.byte	0x93
	.long	0x301e
	.uleb128 0x2
	.byte	0xf
	.byte	0x94
	.long	0x303a
	.uleb128 0x2
	.byte	0xf
	.byte	0x95
	.long	0x3056
	.uleb128 0x2
	.byte	0xf
	.byte	0x96
	.long	0x306c
	.uleb128 0x2
	.byte	0xf
	.byte	0x97
	.long	0x3078
	.uleb128 0x2
	.byte	0xf
	.byte	0x98
	.long	0x309e
	.uleb128 0x2
	.byte	0xf
	.byte	0x99
	.long	0x30c3
	.uleb128 0x2
	.byte	0xf
	.byte	0x9a
	.long	0x30df
	.uleb128 0x2
	.byte	0xf
	.byte	0x9b
	.long	0x310a
	.uleb128 0x2
	.byte	0xf
	.byte	0x9c
	.long	0x3125
	.uleb128 0x2
	.byte	0xf
	.byte	0x9e
	.long	0x313b
	.uleb128 0x2
	.byte	0xf
	.byte	0xa0
	.long	0x315c
	.uleb128 0x2
	.byte	0xf
	.byte	0xa1
	.long	0x3178
	.uleb128 0x2
	.byte	0xf
	.byte	0xa2
	.long	0x3193
	.uleb128 0x2
	.byte	0xf
	.byte	0xa4
	.long	0x31b9
	.uleb128 0x2
	.byte	0xf
	.byte	0xa7
	.long	0x31d9
	.uleb128 0x2
	.byte	0xf
	.byte	0xaa
	.long	0x31fe
	.uleb128 0x2
	.byte	0xf
	.byte	0xac
	.long	0x321e
	.uleb128 0x2
	.byte	0xf
	.byte	0xae
	.long	0x3239
	.uleb128 0x2
	.byte	0xf
	.byte	0xb0
	.long	0x3254
	.uleb128 0x2
	.byte	0xf
	.byte	0xb1
	.long	0x327a
	.uleb128 0x2
	.byte	0xf
	.byte	0xb2
	.long	0x3294
	.uleb128 0x2
	.byte	0xf
	.byte	0xb3
	.long	0x32ae
	.uleb128 0x2
	.byte	0xf
	.byte	0xb4
	.long	0x32c8
	.uleb128 0x2
	.byte	0xf
	.byte	0xb5
	.long	0x32e2
	.uleb128 0x2
	.byte	0xf
	.byte	0xb6
	.long	0x32fc
	.uleb128 0x2
	.byte	0xf
	.byte	0xb7
	.long	0x33bc
	.uleb128 0x2
	.byte	0xf
	.byte	0xb8
	.long	0x33d1
	.uleb128 0x2
	.byte	0xf
	.byte	0xb9
	.long	0x33f0
	.uleb128 0x2
	.byte	0xf
	.byte	0xba
	.long	0x340f
	.uleb128 0x2
	.byte	0xf
	.byte	0xbb
	.long	0x342e
	.uleb128 0x2
	.byte	0xf
	.byte	0xbc
	.long	0x3459
	.uleb128 0x2
	.byte	0xf
	.byte	0xbd
	.long	0x3473
	.uleb128 0x2
	.byte	0xf
	.byte	0xbf
	.long	0x3494
	.uleb128 0x2
	.byte	0xf
	.byte	0xc1
	.long	0x34af
	.uleb128 0x2
	.byte	0xf
	.byte	0xc2
	.long	0x34ce
	.uleb128 0x2
	.byte	0xf
	.byte	0xc3
	.long	0x34fa
	.uleb128 0x2
	.byte	0xf
	.byte	0xc4
	.long	0x351a
	.uleb128 0x2
	.byte	0xf
	.byte	0xc5
	.long	0x3539
	.uleb128 0x2
	.byte	0xf
	.byte	0xc6
	.long	0x354f
	.uleb128 0x2
	.byte	0xf
	.byte	0xc7
	.long	0x356f
	.uleb128 0x2
	.byte	0xf
	.byte	0xc8
	.long	0x358f
	.uleb128 0x2
	.byte	0xf
	.byte	0xc9
	.long	0x35af
	.uleb128 0x2
	.byte	0xf
	.byte	0xca
	.long	0x35cf
	.uleb128 0x2
	.byte	0xf
	.byte	0xcb
	.long	0x35e6
	.uleb128 0x2
	.byte	0xf
	.byte	0xcc
	.long	0x35fd
	.uleb128 0x2
	.byte	0xf
	.byte	0xcd
	.long	0x361b
	.uleb128 0x2
	.byte	0xf
	.byte	0xce
	.long	0x3639
	.uleb128 0x2
	.byte	0xf
	.byte	0xcf
	.long	0x3657
	.uleb128 0x2
	.byte	0xf
	.byte	0xd0
	.long	0x3675
	.uleb128 0x22
	.byte	0xf
	.value	0x108
	.long	0x3698
	.uleb128 0x22
	.byte	0xf
	.value	0x109
	.long	0x36b3
	.uleb128 0x22
	.byte	0xf
	.value	0x10a
	.long	0x36da
	.uleb128 0x22
	.byte	0xf
	.value	0x118
	.long	0x3494
	.uleb128 0x22
	.byte	0xf
	.value	0x11b
	.long	0x31b9
	.uleb128 0x22
	.byte	0xf
	.value	0x11e
	.long	0x31fe
	.uleb128 0x22
	.byte	0xf
	.value	0x121
	.long	0x3239
	.uleb128 0x22
	.byte	0xf
	.value	0x125
	.long	0x3698
	.uleb128 0x22
	.byte	0xf
	.value	0x126
	.long	0x36b3
	.uleb128 0x22
	.byte	0xf
	.value	0x127
	.long	0x36da
	.uleb128 0x11
	.long	.LASF1
	.byte	0x1
	.byte	0x1
	.byte	0x56
	.long	0x24b
	.uleb128 0x53
	.long	.LASF1
	.byte	0x1
	.byte	0x59
	.long	.LASF3
	.byte	0x1
	.long	0x244
	.uleb128 0x3
	.long	0x3706
	.byte	0
	.byte	0
	.uleb128 0x9
	.long	0x228
	.uleb128 0x2a
	.long	.LASF48
	.byte	0x1
	.byte	0x5d
	.long	.LASF113
	.long	0x24b
	.uleb128 0x49
	.long	.LASF0
	.byte	0x10
	.byte	0x34
	.long	0x430
	.uleb128 0x3f
	.long	.LASF2
	.byte	0x8
	.byte	0x10
	.byte	0x4f
	.long	0x423
	.uleb128 0x6
	.long	.LASF166
	.byte	0x10
	.byte	0x51
	.long	0x2d27
	.byte	0
	.uleb128 0x67
	.long	.LASF2
	.byte	0x10
	.byte	0x53
	.long	.LASF4
	.long	0x295
	.long	0x2a0
	.uleb128 0x3
	.long	0x370c
	.uleb128 0x1
	.long	0x2d27
	.byte	0
	.uleb128 0x1b
	.long	.LASF5
	.byte	0x10
	.byte	0x55
	.long	.LASF7
	.long	0x2b3
	.long	0x2b9
	.uleb128 0x3
	.long	0x370c
	.byte	0
	.uleb128 0x1b
	.long	.LASF6
	.byte	0x10
	.byte	0x56
	.long	.LASF8
	.long	0x2cc
	.long	0x2d2
	.uleb128 0x3
	.long	0x370c
	.byte	0
	.uleb128 0x28
	.long	.LASF9
	.byte	0x10
	.byte	0x58
	.long	.LASF10
	.long	0x2d27
	.long	0x2e9
	.long	0x2ef
	.uleb128 0x3
	.long	0x3712
	.byte	0
	.uleb128 0x19
	.long	.LASF2
	.byte	0x10
	.byte	0x60
	.long	.LASF11
	.byte	0x1
	.long	0x303
	.long	0x309
	.uleb128 0x3
	.long	0x370c
	.byte	0
	.uleb128 0x19
	.long	.LASF2
	.byte	0x10
	.byte	0x62
	.long	.LASF12
	.byte	0x1
	.long	0x31d
	.long	0x328
	.uleb128 0x3
	.long	0x370c
	.uleb128 0x1
	.long	0x3718
	.byte	0
	.uleb128 0x19
	.long	.LASF2
	.byte	0x10
	.byte	0x65
	.long	.LASF13
	.byte	0x1
	.long	0x33c
	.long	0x347
	.uleb128 0x3
	.long	0x370c
	.uleb128 0x1
	.long	0x44c
	.byte	0
	.uleb128 0x19
	.long	.LASF2
	.byte	0x10
	.byte	0x69
	.long	.LASF14
	.byte	0x1
	.long	0x35b
	.long	0x366
	.uleb128 0x3
	.long	0x370c
	.uleb128 0x1
	.long	0x371e
	.byte	0
	.uleb128 0x26
	.long	.LASF15
	.byte	0x10
	.byte	0x76
	.long	.LASF16
	.long	0x3724
	.byte	0x1
	.long	0x37e
	.long	0x389
	.uleb128 0x3
	.long	0x370c
	.uleb128 0x1
	.long	0x3718
	.byte	0
	.uleb128 0x26
	.long	.LASF15
	.byte	0x10
	.byte	0x7a
	.long	.LASF17
	.long	0x3724
	.byte	0x1
	.long	0x3a1
	.long	0x3ac
	.uleb128 0x3
	.long	0x370c
	.uleb128 0x1
	.long	0x371e
	.byte	0
	.uleb128 0x19
	.long	.LASF18
	.byte	0x10
	.byte	0x81
	.long	.LASF19
	.byte	0x1
	.long	0x3c0
	.long	0x3cb
	.uleb128 0x3
	.long	0x370c
	.uleb128 0x3
	.long	0x2d94
	.byte	0
	.uleb128 0x19
	.long	.LASF20
	.byte	0x10
	.byte	0x84
	.long	.LASF21
	.byte	0x1
	.long	0x3df
	.long	0x3ea
	.uleb128 0x3
	.long	0x370c
	.uleb128 0x1
	.long	0x3724
	.byte	0
	.uleb128 0x68
	.long	.LASF851
	.byte	0x10
	.byte	0x90
	.long	.LASF852
	.long	0x372a
	.byte	0x1
	.long	0x402
	.long	0x408
	.uleb128 0x3
	.long	0x3712
	.byte	0
	.uleb128 0x69
	.long	.LASF22
	.byte	0x10
	.byte	0x99
	.long	.LASF23
	.long	0x3736
	.byte	0x1
	.long	0x41c
	.uleb128 0x3
	.long	0x3712
	.byte	0
	.byte	0
	.uleb128 0x9
	.long	0x26a
	.uleb128 0x2
	.byte	0x10
	.byte	0x49
	.long	0x437
	.byte	0
	.uleb128 0x2
	.byte	0x10
	.byte	0x39
	.long	0x26a
	.uleb128 0x6a
	.long	.LASF24
	.byte	0x10
	.byte	0x45
	.long	.LASF25
	.long	0x44c
	.uleb128 0x1
	.long	0x26a
	.byte	0
	.uleb128 0x4
	.long	.LASF27
	.byte	0x12
	.byte	0xeb
	.long	0x3701
	.uleb128 0x37
	.long	.LASF321
	.uleb128 0x9
	.long	0x457
	.uleb128 0x11
	.long	.LASF26
	.byte	0x1
	.byte	0x11
	.byte	0x45
	.long	0x4d2
	.uleb128 0x54
	.long	.LASF34
	.byte	0x11
	.byte	0x47
	.long	0x3731
	.uleb128 0x4
	.long	.LASF28
	.byte	0x11
	.byte	0x48
	.long	0x372a
	.uleb128 0x28
	.long	.LASF29
	.byte	0x11
	.byte	0x4a
	.long	.LASF30
	.long	0x478
	.long	0x49a
	.long	0x4a0
	.uleb128 0x3
	.long	0x373c
	.byte	0
	.uleb128 0x28
	.long	.LASF31
	.byte	0x11
	.byte	0x4f
	.long	.LASF32
	.long	0x478
	.long	0x4b7
	.long	0x4bd
	.uleb128 0x3
	.long	0x373c
	.byte	0
	.uleb128 0xa
	.string	"_Tp"
	.long	0x372a
	.uleb128 0x55
	.string	"__v"
	.long	0x372a
	.byte	0x1
	.byte	0
	.byte	0
	.uleb128 0x9
	.long	0x461
	.uleb128 0x11
	.long	.LASF33
	.byte	0x1
	.byte	0x11
	.byte	0x45
	.long	0x548
	.uleb128 0x54
	.long	.LASF34
	.byte	0x11
	.byte	0x47
	.long	0x3731
	.uleb128 0x4
	.long	.LASF28
	.byte	0x11
	.byte	0x48
	.long	0x372a
	.uleb128 0x28
	.long	.LASF35
	.byte	0x11
	.byte	0x4a
	.long	.LASF36
	.long	0x4ee
	.long	0x510
	.long	0x516
	.uleb128 0x3
	.long	0x3742
	.byte	0
	.uleb128 0x28
	.long	.LASF31
	.byte	0x11
	.byte	0x4f
	.long	.LASF37
	.long	0x4ee
	.long	0x52d
	.long	0x533
	.uleb128 0x3
	.long	0x3742
	.byte	0
	.uleb128 0xa
	.string	"_Tp"
	.long	0x372a
	.uleb128 0x55
	.string	"__v"
	.long	0x372a
	.byte	0x1
	.byte	0x1
	.byte	0
	.uleb128 0x9
	.long	0x4d7
	.uleb128 0x4
	.long	.LASF38
	.byte	0x11
	.byte	0x5a
	.long	0x461
	.uleb128 0x40
	.long	.LASF40
	.byte	0x11
	.value	0xa20
	.uleb128 0x40
	.long	.LASF41
	.byte	0x11
	.value	0xa6e
	.uleb128 0x11
	.long	.LASF42
	.byte	0x1
	.byte	0xd
	.byte	0x7f
	.long	0x592
	.uleb128 0x4a
	.byte	0x7
	.byte	0x4
	.long	0x2d20
	.byte	0xd
	.byte	0x81
	.long	0x588
	.uleb128 0x4b
	.long	.LASF44
	.byte	0
	.byte	0
	.uleb128 0xa
	.string	"_Tp"
	.long	0x2cc5
	.byte	0
	.uleb128 0x11
	.long	.LASF43
	.byte	0x1
	.byte	0xd
	.byte	0x7f
	.long	0x5bc
	.uleb128 0x4a
	.byte	0x7
	.byte	0x4
	.long	0x2d20
	.byte	0xd
	.byte	0x81
	.long	0x5b2
	.uleb128 0x4b
	.long	.LASF44
	.byte	0
	.byte	0
	.uleb128 0xa
	.string	"_Tp"
	.long	0x2cbe
	.byte	0
	.uleb128 0x11
	.long	.LASF45
	.byte	0x1
	.byte	0xd
	.byte	0x7f
	.long	0x5e6
	.uleb128 0x4a
	.byte	0x7
	.byte	0x4
	.long	0x2d20
	.byte	0xd
	.byte	0x81
	.long	0x5dc
	.uleb128 0x4b
	.long	.LASF44
	.byte	0
	.byte	0
	.uleb128 0xa
	.string	"_Tp"
	.long	0x2cb7
	.byte	0
	.uleb128 0x11
	.long	.LASF46
	.byte	0x1
	.byte	0x13
	.byte	0x4c
	.long	0x609
	.uleb128 0x53
	.long	.LASF46
	.byte	0x13
	.byte	0x4c
	.long	.LASF47
	.byte	0x1
	.long	0x602
	.uleb128 0x3
	.long	0x3770
	.byte	0
	.byte	0
	.uleb128 0x9
	.long	0x5e6
	.uleb128 0x6b
	.long	.LASF49
	.byte	0x13
	.byte	0x4f
	.long	0x609
	.byte	0x1
	.byte	0
	.uleb128 0x47
	.long	.LASF50
	.byte	0x14
	.byte	0x32
	.uleb128 0x2b
	.long	.LASF51
	.byte	0x1
	.byte	0x15
	.value	0x113
	.long	0x7f0
	.uleb128 0x1f
	.long	.LASF52
	.byte	0x15
	.value	0x115
	.long	0x2d88
	.uleb128 0x9
	.long	0x62f
	.uleb128 0x1f
	.long	.LASF53
	.byte	0x15
	.value	0x116
	.long	0x2d94
	.uleb128 0x9
	.long	0x640
	.uleb128 0x38
	.long	.LASF66
	.byte	0x15
	.value	0x11c
	.long	.LASF75
	.long	0x66c
	.uleb128 0x1
	.long	0x378e
	.uleb128 0x1
	.long	0x3794
	.byte	0
	.uleb128 0x41
	.string	"eq"
	.byte	0x15
	.value	0x120
	.long	.LASF54
	.long	0x372a
	.long	0x68a
	.uleb128 0x1
	.long	0x3794
	.uleb128 0x1
	.long	0x3794
	.byte	0
	.uleb128 0x41
	.string	"lt"
	.byte	0x15
	.value	0x124
	.long	.LASF55
	.long	0x372a
	.long	0x6a8
	.uleb128 0x1
	.long	0x3794
	.uleb128 0x1
	.long	0x3794
	.byte	0
	.uleb128 0xc
	.long	.LASF56
	.byte	0x15
	.value	0x12c
	.long	.LASF58
	.long	0x2d94
	.long	0x6cc
	.uleb128 0x1
	.long	0x379a
	.uleb128 0x1
	.long	0x379a
	.uleb128 0x1
	.long	0x7f0
	.byte	0
	.uleb128 0xc
	.long	.LASF57
	.byte	0x15
	.value	0x13a
	.long	.LASF59
	.long	0x7f0
	.long	0x6e6
	.uleb128 0x1
	.long	0x379a
	.byte	0
	.uleb128 0xc
	.long	.LASF60
	.byte	0x15
	.value	0x144
	.long	.LASF61
	.long	0x379a
	.long	0x70a
	.uleb128 0x1
	.long	0x379a
	.uleb128 0x1
	.long	0x7f0
	.uleb128 0x1
	.long	0x3794
	.byte	0
	.uleb128 0xc
	.long	.LASF62
	.byte	0x15
	.value	0x152
	.long	.LASF63
	.long	0x37a0
	.long	0x72e
	.uleb128 0x1
	.long	0x37a0
	.uleb128 0x1
	.long	0x379a
	.uleb128 0x1
	.long	0x7f0
	.byte	0
	.uleb128 0xc
	.long	.LASF64
	.byte	0x15
	.value	0x15a
	.long	.LASF65
	.long	0x37a0
	.long	0x752
	.uleb128 0x1
	.long	0x37a0
	.uleb128 0x1
	.long	0x379a
	.uleb128 0x1
	.long	0x7f0
	.byte	0
	.uleb128 0xc
	.long	.LASF66
	.byte	0x15
	.value	0x162
	.long	.LASF67
	.long	0x37a0
	.long	0x776
	.uleb128 0x1
	.long	0x37a0
	.uleb128 0x1
	.long	0x7f0
	.uleb128 0x1
	.long	0x62f
	.byte	0
	.uleb128 0xc
	.long	.LASF68
	.byte	0x15
	.value	0x16a
	.long	.LASF69
	.long	0x62f
	.long	0x790
	.uleb128 0x1
	.long	0x37a6
	.byte	0
	.uleb128 0xc
	.long	.LASF70
	.byte	0x15
	.value	0x170
	.long	.LASF71
	.long	0x640
	.long	0x7aa
	.uleb128 0x1
	.long	0x3794
	.byte	0
	.uleb128 0xc
	.long	.LASF72
	.byte	0x15
	.value	0x174
	.long	.LASF73
	.long	0x372a
	.long	0x7c9
	.uleb128 0x1
	.long	0x37a6
	.uleb128 0x1
	.long	0x37a6
	.byte	0
	.uleb128 0x56
	.string	"eof"
	.byte	0x15
	.value	0x178
	.long	.LASF91
	.long	0x640
	.uleb128 0x39
	.long	.LASF74
	.byte	0x15
	.value	0x17c
	.long	.LASF76
	.long	0x640
	.uleb128 0x1
	.long	0x37a6
	.byte	0
	.byte	0
	.uleb128 0x4
	.long	.LASF77
	.byte	0x12
	.byte	0xe7
	.long	0x2cd7
	.uleb128 0x2b
	.long	.LASF78
	.byte	0x1
	.byte	0x15
	.value	0x184
	.long	0x9c9
	.uleb128 0x1f
	.long	.LASF52
	.byte	0x15
	.value	0x186
	.long	0x2fbb
	.uleb128 0x9
	.long	0x808
	.uleb128 0x1f
	.long	.LASF53
	.byte	0x15
	.value	0x187
	.long	0x2d29
	.uleb128 0x9
	.long	0x819
	.uleb128 0x38
	.long	.LASF66
	.byte	0x15
	.value	0x18d
	.long	.LASF79
	.long	0x845
	.uleb128 0x1
	.long	0x37ac
	.uleb128 0x1
	.long	0x37b2
	.byte	0
	.uleb128 0x41
	.string	"eq"
	.byte	0x15
	.value	0x191
	.long	.LASF80
	.long	0x372a
	.long	0x863
	.uleb128 0x1
	.long	0x37b2
	.uleb128 0x1
	.long	0x37b2
	.byte	0
	.uleb128 0x41
	.string	"lt"
	.byte	0x15
	.value	0x195
	.long	.LASF81
	.long	0x372a
	.long	0x881
	.uleb128 0x1
	.long	0x37b2
	.uleb128 0x1
	.long	0x37b2
	.byte	0
	.uleb128 0xc
	.long	.LASF56
	.byte	0x15
	.value	0x199
	.long	.LASF82
	.long	0x2d94
	.long	0x8a5
	.uleb128 0x1
	.long	0x37b8
	.uleb128 0x1
	.long	0x37b8
	.uleb128 0x1
	.long	0x7f0
	.byte	0
	.uleb128 0xc
	.long	.LASF57
	.byte	0x15
	.value	0x1a8
	.long	.LASF83
	.long	0x7f0
	.long	0x8bf
	.uleb128 0x1
	.long	0x37b8
	.byte	0
	.uleb128 0xc
	.long	.LASF60
	.byte	0x15
	.value	0x1b3
	.long	.LASF84
	.long	0x37b8
	.long	0x8e3
	.uleb128 0x1
	.long	0x37b8
	.uleb128 0x1
	.long	0x7f0
	.uleb128 0x1
	.long	0x37b2
	.byte	0
	.uleb128 0xc
	.long	.LASF62
	.byte	0x15
	.value	0x1c2
	.long	.LASF85
	.long	0x37be
	.long	0x907
	.uleb128 0x1
	.long	0x37be
	.uleb128 0x1
	.long	0x37b8
	.uleb128 0x1
	.long	0x7f0
	.byte	0
	.uleb128 0xc
	.long	.LASF64
	.byte	0x15
	.value	0x1ca
	.long	.LASF86
	.long	0x37be
	.long	0x92b
	.uleb128 0x1
	.long	0x37be
	.uleb128 0x1
	.long	0x37b8
	.uleb128 0x1
	.long	0x7f0
	.byte	0
	.uleb128 0xc
	.long	.LASF66
	.byte	0x15
	.value	0x1d2
	.long	.LASF87
	.long	0x37be
	.long	0x94f
	.uleb128 0x1
	.long	0x37be
	.uleb128 0x1
	.long	0x7f0
	.uleb128 0x1
	.long	0x808
	.byte	0
	.uleb128 0xc
	.long	.LASF68
	.byte	0x15
	.value	0x1da
	.long	.LASF88
	.long	0x808
	.long	0x969
	.uleb128 0x1
	.long	0x37c4
	.byte	0
	.uleb128 0xc
	.long	.LASF70
	.byte	0x15
	.value	0x1de
	.long	.LASF89
	.long	0x819
	.long	0x983
	.uleb128 0x1
	.long	0x37b2
	.byte	0
	.uleb128 0xc
	.long	.LASF72
	.byte	0x15
	.value	0x1e2
	.long	.LASF90
	.long	0x372a
	.long	0x9a2
	.uleb128 0x1
	.long	0x37c4
	.uleb128 0x1
	.long	0x37c4
	.byte	0
	.uleb128 0x56
	.string	"eof"
	.byte	0x15
	.value	0x1e6
	.long	.LASF92
	.long	0x819
	.uleb128 0x39
	.long	.LASF74
	.byte	0x15
	.value	0x1ea
	.long	.LASF93
	.long	0x819
	.uleb128 0x1
	.long	0x37c4
	.byte	0
	.byte	0
	.uleb128 0x2
	.byte	0x16
	.byte	0x30
	.long	0x3853
	.uleb128 0x2
	.byte	0x16
	.byte	0x31
	.long	0x385e
	.uleb128 0x2
	.byte	0x16
	.byte	0x32
	.long	0x386e
	.uleb128 0x2
	.byte	0x16
	.byte	0x33
	.long	0x3879
	.uleb128 0x2
	.byte	0x16
	.byte	0x35
	.long	0x3908
	.uleb128 0x2
	.byte	0x16
	.byte	0x36
	.long	0x3913
	.uleb128 0x2
	.byte	0x16
	.byte	0x37
	.long	0x391e
	.uleb128 0x2
	.byte	0x16
	.byte	0x38
	.long	0x3929
	.uleb128 0x2
	.byte	0x16
	.byte	0x3a
	.long	0x38b0
	.uleb128 0x2
	.byte	0x16
	.byte	0x3b
	.long	0x38bb
	.uleb128 0x2
	.byte	0x16
	.byte	0x3c
	.long	0x38c6
	.uleb128 0x2
	.byte	0x16
	.byte	0x3d
	.long	0x38d1
	.uleb128 0x2
	.byte	0x16
	.byte	0x3f
	.long	0x3976
	.uleb128 0x2
	.byte	0x16
	.byte	0x40
	.long	0x3960
	.uleb128 0x2
	.byte	0x16
	.byte	0x42
	.long	0x3884
	.uleb128 0x2
	.byte	0x16
	.byte	0x43
	.long	0x388f
	.uleb128 0x2
	.byte	0x16
	.byte	0x44
	.long	0x389a
	.uleb128 0x2
	.byte	0x16
	.byte	0x45
	.long	0x38a5
	.uleb128 0x2
	.byte	0x16
	.byte	0x47
	.long	0x3934
	.uleb128 0x2
	.byte	0x16
	.byte	0x48
	.long	0x393f
	.uleb128 0x2
	.byte	0x16
	.byte	0x49
	.long	0x394a
	.uleb128 0x2
	.byte	0x16
	.byte	0x4a
	.long	0x3955
	.uleb128 0x2
	.byte	0x16
	.byte	0x4c
	.long	0x38dc
	.uleb128 0x2
	.byte	0x16
	.byte	0x4d
	.long	0x38e7
	.uleb128 0x2
	.byte	0x16
	.byte	0x4e
	.long	0x38f2
	.uleb128 0x2
	.byte	0x16
	.byte	0x4f
	.long	0x38fd
	.uleb128 0x2
	.byte	0x16
	.byte	0x51
	.long	0x3981
	.uleb128 0x2
	.byte	0x16
	.byte	0x52
	.long	0x396b
	.uleb128 0x2
	.byte	0x17
	.byte	0x35
	.long	0x399a
	.uleb128 0x2
	.byte	0x17
	.byte	0x36
	.long	0x3ac7
	.uleb128 0x2
	.byte	0x17
	.byte	0x37
	.long	0x3ae1
	.uleb128 0x4
	.long	.LASF94
	.byte	0x12
	.byte	0xe8
	.long	0x34ee
	.uleb128 0x9
	.long	0xaa2
	.uleb128 0x4
	.long	.LASF95
	.byte	0x11
	.byte	0x57
	.long	0x4d7
	.uleb128 0x2
	.byte	0x18
	.byte	0x7f
	.long	0x3b87
	.uleb128 0x2
	.byte	0x18
	.byte	0x80
	.long	0x3bb7
	.uleb128 0x2
	.byte	0x18
	.byte	0x86
	.long	0x3c18
	.uleb128 0x2
	.byte	0x18
	.byte	0x89
	.long	0x3c35
	.uleb128 0x2
	.byte	0x18
	.byte	0x8c
	.long	0x3c4f
	.uleb128 0x2
	.byte	0x18
	.byte	0x8d
	.long	0x3c64
	.uleb128 0x2
	.byte	0x18
	.byte	0x8e
	.long	0x3c79
	.uleb128 0x2
	.byte	0x18
	.byte	0x8f
	.long	0x3c8e
	.uleb128 0x2
	.byte	0x18
	.byte	0x91
	.long	0x3cb8
	.uleb128 0x2
	.byte	0x18
	.byte	0x94
	.long	0x3cd3
	.uleb128 0x2
	.byte	0x18
	.byte	0x96
	.long	0x3ce9
	.uleb128 0x2
	.byte	0x18
	.byte	0x99
	.long	0x3d04
	.uleb128 0x2
	.byte	0x18
	.byte	0x9a
	.long	0x3d1f
	.uleb128 0x2
	.byte	0x18
	.byte	0x9b
	.long	0x3d3f
	.uleb128 0x2
	.byte	0x18
	.byte	0x9d
	.long	0x3d5f
	.uleb128 0x2
	.byte	0x18
	.byte	0xa0
	.long	0x3d80
	.uleb128 0x2
	.byte	0x18
	.byte	0xa3
	.long	0x3d92
	.uleb128 0x2
	.byte	0x18
	.byte	0xa5
	.long	0x3d9e
	.uleb128 0x2
	.byte	0x18
	.byte	0xa6
	.long	0x3db0
	.uleb128 0x2
	.byte	0x18
	.byte	0xa7
	.long	0x3dd0
	.uleb128 0x2
	.byte	0x18
	.byte	0xa8
	.long	0x3def
	.uleb128 0x2
	.byte	0x18
	.byte	0xa9
	.long	0x3e0e
	.uleb128 0x2
	.byte	0x18
	.byte	0xab
	.long	0x3e24
	.uleb128 0x2
	.byte	0x18
	.byte	0xac
	.long	0x3e44
	.uleb128 0x2
	.byte	0x18
	.byte	0xf0
	.long	0x3be7
	.uleb128 0x2
	.byte	0x18
	.byte	0xf5
	.long	0x2582
	.uleb128 0x2
	.byte	0x18
	.byte	0xf6
	.long	0x3e5f
	.uleb128 0x2
	.byte	0x18
	.byte	0xf8
	.long	0x3e7a
	.uleb128 0x2
	.byte	0x18
	.byte	0xf9
	.long	0x3ecd
	.uleb128 0x2
	.byte	0x18
	.byte	0xfa
	.long	0x3e8f
	.uleb128 0x2
	.byte	0x18
	.byte	0xfb
	.long	0x3eae
	.uleb128 0x2
	.byte	0x18
	.byte	0xfc
	.long	0x3ee7
	.uleb128 0x2
	.byte	0x19
	.byte	0x62
	.long	0x2f46
	.uleb128 0x2
	.byte	0x19
	.byte	0x63
	.long	0x3fc6
	.uleb128 0x2
	.byte	0x19
	.byte	0x65
	.long	0x402f
	.uleb128 0x2
	.byte	0x19
	.byte	0x66
	.long	0x4047
	.uleb128 0x2
	.byte	0x19
	.byte	0x67
	.long	0x405c
	.uleb128 0x2
	.byte	0x19
	.byte	0x68
	.long	0x4072
	.uleb128 0x2
	.byte	0x19
	.byte	0x69
	.long	0x4088
	.uleb128 0x2
	.byte	0x19
	.byte	0x6a
	.long	0x409d
	.uleb128 0x2
	.byte	0x19
	.byte	0x6b
	.long	0x40b3
	.uleb128 0x2
	.byte	0x19
	.byte	0x6c
	.long	0x40d4
	.uleb128 0x2
	.byte	0x19
	.byte	0x6d
	.long	0x40f4
	.uleb128 0x2
	.byte	0x19
	.byte	0x71
	.long	0x410e
	.uleb128 0x2
	.byte	0x19
	.byte	0x72
	.long	0x4133
	.uleb128 0x2
	.byte	0x19
	.byte	0x74
	.long	0x4152
	.uleb128 0x2
	.byte	0x19
	.byte	0x75
	.long	0x4172
	.uleb128 0x2
	.byte	0x19
	.byte	0x76
	.long	0x4193
	.uleb128 0x2
	.byte	0x19
	.byte	0x78
	.long	0x41a9
	.uleb128 0x2
	.byte	0x19
	.byte	0x79
	.long	0x41bf
	.uleb128 0x2
	.byte	0x19
	.byte	0x7e
	.long	0x41cb
	.uleb128 0x2
	.byte	0x19
	.byte	0x83
	.long	0x41dd
	.uleb128 0x2
	.byte	0x19
	.byte	0x84
	.long	0x41f2
	.uleb128 0x2
	.byte	0x19
	.byte	0x85
	.long	0x420c
	.uleb128 0x2
	.byte	0x19
	.byte	0x87
	.long	0x421e
	.uleb128 0x2
	.byte	0x19
	.byte	0x88
	.long	0x4235
	.uleb128 0x2
	.byte	0x19
	.byte	0x8b
	.long	0x425a
	.uleb128 0x2
	.byte	0x19
	.byte	0x8d
	.long	0x4265
	.uleb128 0x2
	.byte	0x19
	.byte	0x8f
	.long	0x427a
	.uleb128 0x6c
	.long	.LASF96
	.byte	0x1a
	.value	0x1a0a
	.long	0xc77
	.uleb128 0x40
	.long	.LASF97
	.byte	0x1a
	.value	0x1a0c
	.uleb128 0x4c
	.byte	0x1a
	.value	0x1a0d
	.long	0xc66
	.byte	0
	.uleb128 0x4c
	.byte	0x1a
	.value	0x1a0b
	.long	0xc5a
	.uleb128 0x6d
	.string	"_V2"
	.byte	0x1b
	.byte	0x47
	.uleb128 0x48
	.byte	0x1b
	.byte	0x47
	.long	0xc7f
	.uleb128 0x3a
	.long	.LASF103
	.long	0xcf1
	.uleb128 0x6e
	.long	.LASF98
	.byte	0x1
	.byte	0x1c
	.value	0x259
	.byte	0x1
	.uleb128 0x57
	.long	.LASF99
	.byte	0x1c
	.value	0x261
	.long	0x3b50
	.uleb128 0x57
	.long	.LASF100
	.byte	0x1c
	.value	0x262
	.long	0x372a
	.uleb128 0x12
	.long	.LASF98
	.byte	0x1c
	.value	0x25d
	.long	.LASF208
	.byte	0x1
	.long	0xccd
	.long	0xcd3
	.uleb128 0x3
	.long	0x42ab
	.byte	0
	.uleb128 0x6f
	.long	.LASF101
	.byte	0x1c
	.value	0x25e
	.long	.LASF102
	.byte	0x1
	.long	0xce4
	.uleb128 0x3
	.long	0x42ab
	.uleb128 0x3
	.long	0x2d94
	.byte	0
	.byte	0
	.byte	0
	.uleb128 0x2
	.byte	0x1d
	.byte	0x52
	.long	0x42bc
	.uleb128 0x2
	.byte	0x1d
	.byte	0x53
	.long	0x42b1
	.uleb128 0x2
	.byte	0x1d
	.byte	0x54
	.long	0x2d29
	.uleb128 0x2
	.byte	0x1d
	.byte	0x5c
	.long	0x42cd
	.uleb128 0x2
	.byte	0x1d
	.byte	0x65
	.long	0x42e7
	.uleb128 0x2
	.byte	0x1d
	.byte	0x68
	.long	0x4301
	.uleb128 0x2
	.byte	0x1d
	.byte	0x69
	.long	0x4316
	.uleb128 0x3a
	.long	.LASF104
	.long	0xd3e
	.uleb128 0x5
	.long	.LASF105
	.long	0x2d88
	.uleb128 0x2f
	.long	.LASF107
	.long	0x622
	.byte	0
	.uleb128 0x3a
	.long	.LASF106
	.long	0xd5a
	.uleb128 0x5
	.long	.LASF105
	.long	0x2fbb
	.uleb128 0x2f
	.long	.LASF107
	.long	0x7fb
	.byte	0
	.uleb128 0x3a
	.long	.LASF108
	.long	0xd76
	.uleb128 0x5
	.long	.LASF105
	.long	0x2d88
	.uleb128 0x2f
	.long	.LASF107
	.long	0x622
	.byte	0
	.uleb128 0x3a
	.long	.LASF109
	.long	0xd92
	.uleb128 0x5
	.long	.LASF105
	.long	0x2fbb
	.uleb128 0x2f
	.long	.LASF107
	.long	0x7fb
	.byte	0
	.uleb128 0x4
	.long	.LASF110
	.byte	0x1e
	.byte	0x8a
	.long	0xd5a
	.uleb128 0x70
	.string	"cin"
	.byte	0xe
	.byte	0x3c
	.long	.LASF853
	.long	0xd92
	.uleb128 0x4
	.long	.LASF111
	.byte	0x1e
	.byte	0x8d
	.long	0xd22
	.uleb128 0x2a
	.long	.LASF112
	.byte	0xe
	.byte	0x3d
	.long	.LASF114
	.long	0xdac
	.uleb128 0x2a
	.long	.LASF115
	.byte	0xe
	.byte	0x3e
	.long	.LASF116
	.long	0xdac
	.uleb128 0x2a
	.long	.LASF117
	.byte	0xe
	.byte	0x3f
	.long	.LASF118
	.long	0xdac
	.uleb128 0x4
	.long	.LASF119
	.byte	0x1e
	.byte	0xb2
	.long	0xd76
	.uleb128 0x2a
	.long	.LASF120
	.byte	0xe
	.byte	0x42
	.long	.LASF121
	.long	0xde4
	.uleb128 0x4
	.long	.LASF122
	.byte	0x1e
	.byte	0xb5
	.long	0xd3e
	.uleb128 0x2a
	.long	.LASF123
	.byte	0xe
	.byte	0x43
	.long	.LASF124
	.long	0xdfe
	.uleb128 0x2a
	.long	.LASF125
	.byte	0xe
	.byte	0x44
	.long	.LASF126
	.long	0xdfe
	.uleb128 0x2a
	.long	.LASF127
	.byte	0xe
	.byte	0x45
	.long	.LASF128
	.long	0xdfe
	.uleb128 0x71
	.long	.LASF774
	.byte	0xe
	.byte	0x4a
	.long	0xc96
	.uleb128 0x11
	.long	.LASF129
	.byte	0x1
	.byte	0x5
	.byte	0x71
	.long	0xe6d
	.uleb128 0x72
	.long	.LASF175
	.byte	0x5
	.byte	0x75
	.long	.LASF854
	.uleb128 0x5
	.long	.LASF130
	.long	0x4350
	.uleb128 0x1
	.long	0x4350
	.uleb128 0x1
	.long	0x4350
	.byte	0
	.byte	0
	.uleb128 0x11
	.long	.LASF131
	.byte	0x1
	.byte	0x9
	.byte	0x5f
	.long	0xeab
	.uleb128 0x58
	.long	.LASF132
	.byte	0x9
	.byte	0x63
	.long	.LASF396
	.long	0x4350
	.uleb128 0x5
	.long	.LASF133
	.long	0x1e93
	.uleb128 0x5
	.long	.LASF130
	.long	0x4350
	.uleb128 0x1
	.long	0x1e93
	.uleb128 0x1
	.long	0x1e93
	.uleb128 0x1
	.long	0x4350
	.byte	0
	.byte	0
	.uleb128 0x2b
	.long	.LASF134
	.byte	0x1
	.byte	0x9
	.value	0x21b
	.long	0xee6
	.uleb128 0x39
	.long	.LASF135
	.byte	0x9
	.value	0x21f
	.long	.LASF136
	.long	0x4350
	.uleb128 0x5
	.long	.LASF130
	.long	0x4350
	.uleb128 0x5
	.long	.LASF137
	.long	0x2cd7
	.uleb128 0x1
	.long	0x4350
	.uleb128 0x1
	.long	0x2cd7
	.byte	0
	.byte	0
	.uleb128 0x2b
	.long	.LASF138
	.byte	0x1
	.byte	0x8
	.value	0x180
	.long	0x103d
	.uleb128 0x1f
	.long	.LASF139
	.byte	0x8
	.value	0x183
	.long	0x103d
	.uleb128 0x9
	.long	0xef3
	.uleb128 0x1f
	.long	.LASF28
	.byte	0x8
	.value	0x185
	.long	0x375d
	.uleb128 0x1f
	.long	.LASF140
	.byte	0x8
	.value	0x188
	.long	0x4350
	.uleb128 0x1f
	.long	.LASF141
	.byte	0x8
	.value	0x191
	.long	0x3b5b
	.uleb128 0x1f
	.long	.LASF142
	.byte	0x8
	.value	0x197
	.long	0x7f0
	.uleb128 0xc
	.long	.LASF143
	.byte	0x8
	.value	0x1b3
	.long	.LASF144
	.long	0xf10
	.long	0xf53
	.uleb128 0x1
	.long	0x4361
	.uleb128 0x1
	.long	0xf28
	.byte	0
	.uleb128 0xc
	.long	.LASF143
	.byte	0x8
	.value	0x1c1
	.long	.LASF145
	.long	0xf10
	.long	0xf77
	.uleb128 0x1
	.long	0x4361
	.uleb128 0x1
	.long	0xf28
	.uleb128 0x1
	.long	0xf1c
	.byte	0
	.uleb128 0x38
	.long	.LASF146
	.byte	0x8
	.value	0x1cd
	.long	.LASF147
	.long	0xf97
	.uleb128 0x1
	.long	0x4361
	.uleb128 0x1
	.long	0xf10
	.uleb128 0x1
	.long	0xf28
	.byte	0
	.uleb128 0xc
	.long	.LASF148
	.byte	0x8
	.value	0x1ef
	.long	.LASF149
	.long	0xf28
	.long	0xfb1
	.uleb128 0x1
	.long	0x4367
	.byte	0
	.uleb128 0xc
	.long	.LASF150
	.byte	0x8
	.value	0x1f8
	.long	.LASF151
	.long	0xef3
	.long	0xfcb
	.uleb128 0x1
	.long	0x4367
	.byte	0
	.uleb128 0x1f
	.long	.LASF152
	.byte	0x8
	.value	0x1a6
	.long	0x103d
	.uleb128 0x38
	.long	.LASF153
	.byte	0x8
	.value	0x1e6
	.long	.LASF154
	.long	0xffb
	.uleb128 0xa
	.string	"_Up"
	.long	0x375d
	.uleb128 0x1
	.long	0x4361
	.uleb128 0x1
	.long	0x4350
	.byte	0
	.uleb128 0x38
	.long	.LASF155
	.byte	0x8
	.value	0x1da
	.long	.LASF156
	.long	0x1033
	.uleb128 0xa
	.string	"_Up"
	.long	0x375d
	.uleb128 0x2c
	.long	.LASF318
	.long	0x1023
	.uleb128 0x2d
	.long	0x375d
	.byte	0
	.uleb128 0x1
	.long	0x4361
	.uleb128 0x1
	.long	0x4350
	.uleb128 0x1
	.long	0x4524
	.byte	0
	.uleb128 0x5
	.long	.LASF157
	.long	0x103d
	.byte	0
	.uleb128 0x3f
	.long	.LASF158
	.byte	0x1
	.byte	0x7
	.byte	0x6c
	.long	0x10a5
	.uleb128 0x59
	.long	0x286f
	.byte	0
	.byte	0x1
	.uleb128 0x19
	.long	.LASF159
	.byte	0x7
	.byte	0x83
	.long	.LASF160
	.byte	0x1
	.long	0x1064
	.long	0x106a
	.uleb128 0x3
	.long	0x43ad
	.byte	0
	.uleb128 0x19
	.long	.LASF159
	.byte	0x7
	.byte	0x85
	.long	.LASF161
	.byte	0x1
	.long	0x107e
	.long	0x1089
	.uleb128 0x3
	.long	0x43ad
	.uleb128 0x1
	.long	0x4379
	.byte	0
	.uleb128 0x73
	.long	.LASF162
	.byte	0x7
	.byte	0x8b
	.long	.LASF163
	.byte	0x1
	.long	0x1099
	.uleb128 0x3
	.long	0x43ad
	.uleb128 0x3
	.long	0x2d94
	.byte	0
	.byte	0
	.uleb128 0x9
	.long	0x103d
	.uleb128 0x11
	.long	.LASF164
	.byte	0x18
	.byte	0x3
	.byte	0x4a
	.long	0x1372
	.uleb128 0x11
	.long	.LASF165
	.byte	0x18
	.byte	0x3
	.byte	0x51
	.long	0x1178
	.uleb128 0x5a
	.long	0x103d
	.byte	0
	.uleb128 0x6
	.long	.LASF167
	.byte	0x3
	.byte	0x54
	.long	0x1178
	.byte	0
	.uleb128 0x6
	.long	.LASF168
	.byte	0x3
	.byte	0x55
	.long	0x1178
	.byte	0x8
	.uleb128 0x6
	.long	.LASF169
	.byte	0x3
	.byte	0x56
	.long	0x1178
	.byte	0x10
	.uleb128 0x1b
	.long	.LASF165
	.byte	0x3
	.byte	0x58
	.long	.LASF170
	.long	0x10ff
	.long	0x1105
	.uleb128 0x3
	.long	0x43b8
	.byte	0
	.uleb128 0x1b
	.long	.LASF165
	.byte	0x3
	.byte	0x5c
	.long	.LASF171
	.long	0x1118
	.long	0x1123
	.uleb128 0x3
	.long	0x43b8
	.uleb128 0x1
	.long	0x43c3
	.byte	0
	.uleb128 0x1b
	.long	.LASF165
	.byte	0x3
	.byte	0x61
	.long	.LASF172
	.long	0x1136
	.long	0x1141
	.uleb128 0x3
	.long	0x43b8
	.uleb128 0x1
	.long	0x43c9
	.byte	0
	.uleb128 0x1b
	.long	.LASF173
	.byte	0x3
	.byte	0x67
	.long	.LASF174
	.long	0x1154
	.long	0x115f
	.uleb128 0x3
	.long	0x43b8
	.uleb128 0x1
	.long	0x43cf
	.byte	0
	.uleb128 0x5b
	.long	.LASF176
	.long	.LASF781
	.long	0x116c
	.uleb128 0x3
	.long	0x43b8
	.uleb128 0x3
	.long	0x2d94
	.byte	0
	.byte	0
	.uleb128 0x4
	.long	.LASF140
	.byte	0x3
	.byte	0x4f
	.long	0x27a5
	.uleb128 0x4
	.long	.LASF177
	.byte	0x3
	.byte	0x4d
	.long	0x2850
	.uleb128 0x9
	.long	0x1183
	.uleb128 0x6
	.long	.LASF178
	.byte	0x3
	.byte	0xa6
	.long	0x10b6
	.byte	0
	.uleb128 0x4
	.long	.LASF139
	.byte	0x3
	.byte	0x70
	.long	0x103d
	.uleb128 0x9
	.long	0x119f
	.uleb128 0x28
	.long	.LASF179
	.byte	0x3
	.byte	0x73
	.long	.LASF180
	.long	0x43d5
	.long	0x11c6
	.long	0x11cc
	.uleb128 0x3
	.long	0x43db
	.byte	0
	.uleb128 0x28
	.long	.LASF179
	.byte	0x3
	.byte	0x77
	.long	.LASF181
	.long	0x43c3
	.long	0x11e3
	.long	0x11e9
	.uleb128 0x3
	.long	0x43e6
	.byte	0
	.uleb128 0x28
	.long	.LASF182
	.byte	0x3
	.byte	0x7b
	.long	.LASF183
	.long	0x119f
	.long	0x1200
	.long	0x1206
	.uleb128 0x3
	.long	0x43e6
	.byte	0
	.uleb128 0x1b
	.long	.LASF184
	.byte	0x3
	.byte	0x7e
	.long	.LASF185
	.long	0x1219
	.long	0x121f
	.uleb128 0x3
	.long	0x43db
	.byte	0
	.uleb128 0x1b
	.long	.LASF184
	.byte	0x3
	.byte	0x81
	.long	.LASF186
	.long	0x1232
	.long	0x123d
	.uleb128 0x3
	.long	0x43db
	.uleb128 0x1
	.long	0x43f1
	.byte	0
	.uleb128 0x1b
	.long	.LASF184
	.byte	0x3
	.byte	0x84
	.long	.LASF187
	.long	0x1250
	.long	0x125b
	.uleb128 0x3
	.long	0x43db
	.uleb128 0x1
	.long	0x7f0
	.byte	0
	.uleb128 0x1b
	.long	.LASF184
	.byte	0x3
	.byte	0x88
	.long	.LASF188
	.long	0x126e
	.long	0x127e
	.uleb128 0x3
	.long	0x43db
	.uleb128 0x1
	.long	0x7f0
	.uleb128 0x1
	.long	0x43f1
	.byte	0
	.uleb128 0x1b
	.long	.LASF184
	.byte	0x3
	.byte	0x8d
	.long	.LASF189
	.long	0x1291
	.long	0x129c
	.uleb128 0x3
	.long	0x43db
	.uleb128 0x1
	.long	0x43c9
	.byte	0
	.uleb128 0x1b
	.long	.LASF184
	.byte	0x3
	.byte	0x90
	.long	.LASF190
	.long	0x12af
	.long	0x12ba
	.uleb128 0x3
	.long	0x43db
	.uleb128 0x1
	.long	0x43f7
	.byte	0
	.uleb128 0x1b
	.long	.LASF184
	.byte	0x3
	.byte	0x94
	.long	.LASF191
	.long	0x12cd
	.long	0x12dd
	.uleb128 0x3
	.long	0x43db
	.uleb128 0x1
	.long	0x43f7
	.uleb128 0x1
	.long	0x43f1
	.byte	0
	.uleb128 0x1b
	.long	.LASF192
	.byte	0x3
	.byte	0xa1
	.long	.LASF193
	.long	0x12f0
	.long	0x12fb
	.uleb128 0x3
	.long	0x43db
	.uleb128 0x3
	.long	0x2d94
	.byte	0
	.uleb128 0x28
	.long	.LASF194
	.byte	0x3
	.byte	0xa9
	.long	.LASF195
	.long	0x1178
	.long	0x1312
	.long	0x131d
	.uleb128 0x3
	.long	0x43db
	.uleb128 0x1
	.long	0x7f0
	.byte	0
	.uleb128 0x1b
	.long	.LASF196
	.byte	0x3
	.byte	0xb0
	.long	.LASF197
	.long	0x1330
	.long	0x1340
	.uleb128 0x3
	.long	0x43db
	.uleb128 0x1
	.long	0x1178
	.uleb128 0x1
	.long	0x7f0
	.byte	0
	.uleb128 0x19
	.long	.LASF198
	.byte	0x3
	.byte	0xb9
	.long	.LASF199
	.byte	0x3
	.long	0x1354
	.long	0x135f
	.uleb128 0x3
	.long	0x43db
	.uleb128 0x1
	.long	0x7f0
	.byte	0
	.uleb128 0xa
	.string	"_Tp"
	.long	0x375d
	.uleb128 0x5
	.long	.LASF157
	.long	0x103d
	.byte	0
	.uleb128 0x9
	.long	0x10aa
	.uleb128 0x3f
	.long	.LASF200
	.byte	0x18
	.byte	0x3
	.byte	0xd8
	.long	0x1e14
	.uleb128 0x2
	.byte	0x3
	.byte	0xd8
	.long	0x12fb
	.uleb128 0x2
	.byte	0x3
	.byte	0xd8
	.long	0x131d
	.uleb128 0x2
	.byte	0x3
	.byte	0xd8
	.long	0x1193
	.uleb128 0x2
	.byte	0x3
	.byte	0xd8
	.long	0x11cc
	.uleb128 0x2
	.byte	0x3
	.byte	0xd8
	.long	0x11e9
	.uleb128 0x59
	.long	0x10aa
	.byte	0
	.byte	0x2
	.uleb128 0x1c
	.long	.LASF28
	.byte	0x3
	.byte	0xe8
	.long	0x375d
	.byte	0x1
	.uleb128 0x9
	.long	0x13ad
	.uleb128 0x1c
	.long	.LASF140
	.byte	0x3
	.byte	0xe9
	.long	0x1178
	.byte	0x1
	.uleb128 0x1c
	.long	.LASF201
	.byte	0x3
	.byte	0xeb
	.long	0x27b0
	.byte	0x1
	.uleb128 0x1c
	.long	.LASF202
	.byte	0x3
	.byte	0xec
	.long	0x27bb
	.byte	0x1
	.uleb128 0x1c
	.long	.LASF203
	.byte	0x3
	.byte	0xed
	.long	0x2a32
	.byte	0x1
	.uleb128 0x1c
	.long	.LASF204
	.byte	0x3
	.byte	0xef
	.long	0x2c5e
	.byte	0x1
	.uleb128 0x1c
	.long	.LASF205
	.byte	0x3
	.byte	0xf0
	.long	0x1e19
	.byte	0x1
	.uleb128 0x1c
	.long	.LASF206
	.byte	0x3
	.byte	0xf1
	.long	0x1e1e
	.byte	0x1
	.uleb128 0x1c
	.long	.LASF142
	.byte	0x3
	.byte	0xf2
	.long	0x7f0
	.byte	0x1
	.uleb128 0x9
	.long	0x1412
	.uleb128 0x1c
	.long	.LASF139
	.byte	0x3
	.byte	0xf4
	.long	0x103d
	.byte	0x1
	.uleb128 0x9
	.long	0x1423
	.uleb128 0x12
	.long	.LASF207
	.byte	0x3
	.value	0x103
	.long	.LASF209
	.byte	0x1
	.long	0x1449
	.long	0x144f
	.uleb128 0x3
	.long	0x43fd
	.byte	0
	.uleb128 0x42
	.long	.LASF207
	.byte	0x3
	.value	0x10e
	.long	.LASF210
	.byte	0x1
	.long	0x1464
	.long	0x146f
	.uleb128 0x3
	.long	0x43fd
	.uleb128 0x1
	.long	0x4408
	.byte	0
	.uleb128 0x42
	.long	.LASF207
	.byte	0x3
	.value	0x11b
	.long	.LASF211
	.byte	0x1
	.long	0x1484
	.long	0x1494
	.uleb128 0x3
	.long	0x43fd
	.uleb128 0x1
	.long	0x1412
	.uleb128 0x1
	.long	0x4408
	.byte	0
	.uleb128 0x12
	.long	.LASF207
	.byte	0x3
	.value	0x127
	.long	.LASF212
	.byte	0x1
	.long	0x14a9
	.long	0x14be
	.uleb128 0x3
	.long	0x43fd
	.uleb128 0x1
	.long	0x1412
	.uleb128 0x1
	.long	0x440e
	.uleb128 0x1
	.long	0x4408
	.byte	0
	.uleb128 0x12
	.long	.LASF207
	.byte	0x3
	.value	0x146
	.long	.LASF213
	.byte	0x1
	.long	0x14d3
	.long	0x14de
	.uleb128 0x3
	.long	0x43fd
	.uleb128 0x1
	.long	0x4414
	.byte	0
	.uleb128 0x12
	.long	.LASF207
	.byte	0x3
	.value	0x158
	.long	.LASF214
	.byte	0x1
	.long	0x14f3
	.long	0x14fe
	.uleb128 0x3
	.long	0x43fd
	.uleb128 0x1
	.long	0x441a
	.byte	0
	.uleb128 0x12
	.long	.LASF207
	.byte	0x3
	.value	0x15c
	.long	.LASF215
	.byte	0x1
	.long	0x1513
	.long	0x1523
	.uleb128 0x3
	.long	0x43fd
	.uleb128 0x1
	.long	0x4414
	.uleb128 0x1
	.long	0x4408
	.byte	0
	.uleb128 0x12
	.long	.LASF207
	.byte	0x3
	.value	0x166
	.long	.LASF216
	.byte	0x1
	.long	0x1538
	.long	0x1548
	.uleb128 0x3
	.long	0x43fd
	.uleb128 0x1
	.long	0x441a
	.uleb128 0x1
	.long	0x4408
	.byte	0
	.uleb128 0x12
	.long	.LASF207
	.byte	0x3
	.value	0x17f
	.long	.LASF217
	.byte	0x1
	.long	0x155d
	.long	0x156d
	.uleb128 0x3
	.long	0x43fd
	.uleb128 0x1
	.long	0x1e23
	.uleb128 0x1
	.long	0x4408
	.byte	0
	.uleb128 0x12
	.long	.LASF218
	.byte	0x3
	.value	0x1b1
	.long	.LASF219
	.byte	0x1
	.long	0x1582
	.long	0x158d
	.uleb128 0x3
	.long	0x43fd
	.uleb128 0x3
	.long	0x2d94
	.byte	0
	.uleb128 0x26
	.long	.LASF15
	.byte	0x6
	.byte	0xb3
	.long	.LASF220
	.long	0x4420
	.byte	0x1
	.long	0x15a5
	.long	0x15b0
	.uleb128 0x3
	.long	0x43fd
	.uleb128 0x1
	.long	0x4414
	.byte	0
	.uleb128 0x8
	.long	.LASF15
	.byte	0x3
	.value	0x1cd
	.long	.LASF221
	.long	0x4420
	.byte	0x1
	.long	0x15c9
	.long	0x15d4
	.uleb128 0x3
	.long	0x43fd
	.uleb128 0x1
	.long	0x441a
	.byte	0
	.uleb128 0x8
	.long	.LASF15
	.byte	0x3
	.value	0x1e2
	.long	.LASF222
	.long	0x4420
	.byte	0x1
	.long	0x15ed
	.long	0x15f8
	.uleb128 0x3
	.long	0x43fd
	.uleb128 0x1
	.long	0x1e23
	.byte	0
	.uleb128 0x12
	.long	.LASF66
	.byte	0x3
	.value	0x1f5
	.long	.LASF223
	.byte	0x1
	.long	0x160d
	.long	0x161d
	.uleb128 0x3
	.long	0x43fd
	.uleb128 0x1
	.long	0x1412
	.uleb128 0x1
	.long	0x440e
	.byte	0
	.uleb128 0x12
	.long	.LASF66
	.byte	0x3
	.value	0x222
	.long	.LASF224
	.byte	0x1
	.long	0x1632
	.long	0x163d
	.uleb128 0x3
	.long	0x43fd
	.uleb128 0x1
	.long	0x1e23
	.byte	0
	.uleb128 0x8
	.long	.LASF225
	.byte	0x3
	.value	0x233
	.long	.LASF226
	.long	0x13e2
	.byte	0x1
	.long	0x1656
	.long	0x165c
	.uleb128 0x3
	.long	0x43fd
	.byte	0
	.uleb128 0x8
	.long	.LASF225
	.byte	0x3
	.value	0x23c
	.long	.LASF227
	.long	0x13ee
	.byte	0x1
	.long	0x1675
	.long	0x167b
	.uleb128 0x3
	.long	0x4426
	.byte	0
	.uleb128 0x43
	.string	"end"
	.byte	0x3
	.value	0x245
	.long	.LASF228
	.long	0x13e2
	.byte	0x1
	.long	0x1694
	.long	0x169a
	.uleb128 0x3
	.long	0x43fd
	.byte	0
	.uleb128 0x43
	.string	"end"
	.byte	0x3
	.value	0x24e
	.long	.LASF229
	.long	0x13ee
	.byte	0x1
	.long	0x16b3
	.long	0x16b9
	.uleb128 0x3
	.long	0x4426
	.byte	0
	.uleb128 0x8
	.long	.LASF230
	.byte	0x3
	.value	0x257
	.long	.LASF231
	.long	0x1406
	.byte	0x1
	.long	0x16d2
	.long	0x16d8
	.uleb128 0x3
	.long	0x43fd
	.byte	0
	.uleb128 0x8
	.long	.LASF230
	.byte	0x3
	.value	0x260
	.long	.LASF232
	.long	0x13fa
	.byte	0x1
	.long	0x16f1
	.long	0x16f7
	.uleb128 0x3
	.long	0x4426
	.byte	0
	.uleb128 0x8
	.long	.LASF233
	.byte	0x3
	.value	0x269
	.long	.LASF234
	.long	0x1406
	.byte	0x1
	.long	0x1710
	.long	0x1716
	.uleb128 0x3
	.long	0x43fd
	.byte	0
	.uleb128 0x8
	.long	.LASF233
	.byte	0x3
	.value	0x272
	.long	.LASF235
	.long	0x13fa
	.byte	0x1
	.long	0x172f
	.long	0x1735
	.uleb128 0x3
	.long	0x4426
	.byte	0
	.uleb128 0x8
	.long	.LASF236
	.byte	0x3
	.value	0x27c
	.long	.LASF237
	.long	0x13ee
	.byte	0x1
	.long	0x174e
	.long	0x1754
	.uleb128 0x3
	.long	0x4426
	.byte	0
	.uleb128 0x8
	.long	.LASF238
	.byte	0x3
	.value	0x285
	.long	.LASF239
	.long	0x13ee
	.byte	0x1
	.long	0x176d
	.long	0x1773
	.uleb128 0x3
	.long	0x4426
	.byte	0
	.uleb128 0x8
	.long	.LASF240
	.byte	0x3
	.value	0x28e
	.long	.LASF241
	.long	0x13fa
	.byte	0x1
	.long	0x178c
	.long	0x1792
	.uleb128 0x3
	.long	0x4426
	.byte	0
	.uleb128 0x8
	.long	.LASF242
	.byte	0x3
	.value	0x297
	.long	.LASF243
	.long	0x13fa
	.byte	0x1
	.long	0x17ab
	.long	0x17b1
	.uleb128 0x3
	.long	0x4426
	.byte	0
	.uleb128 0x8
	.long	.LASF244
	.byte	0x3
	.value	0x29e
	.long	.LASF245
	.long	0x1412
	.byte	0x1
	.long	0x17ca
	.long	0x17d0
	.uleb128 0x3
	.long	0x4426
	.byte	0
	.uleb128 0x8
	.long	.LASF148
	.byte	0x3
	.value	0x2a3
	.long	.LASF246
	.long	0x1412
	.byte	0x1
	.long	0x17e9
	.long	0x17ef
	.uleb128 0x3
	.long	0x4426
	.byte	0
	.uleb128 0x12
	.long	.LASF247
	.byte	0x3
	.value	0x2b1
	.long	.LASF248
	.byte	0x1
	.long	0x1804
	.long	0x180f
	.uleb128 0x3
	.long	0x43fd
	.uleb128 0x1
	.long	0x1412
	.byte	0
	.uleb128 0x12
	.long	.LASF247
	.byte	0x3
	.value	0x2c5
	.long	.LASF249
	.byte	0x1
	.long	0x1824
	.long	0x1834
	.uleb128 0x3
	.long	0x43fd
	.uleb128 0x1
	.long	0x1412
	.uleb128 0x1
	.long	0x440e
	.byte	0
	.uleb128 0x12
	.long	.LASF250
	.byte	0x3
	.value	0x2e5
	.long	.LASF251
	.byte	0x1
	.long	0x1849
	.long	0x184f
	.uleb128 0x3
	.long	0x43fd
	.byte	0
	.uleb128 0x8
	.long	.LASF252
	.byte	0x3
	.value	0x2ee
	.long	.LASF253
	.long	0x1412
	.byte	0x1
	.long	0x1868
	.long	0x186e
	.uleb128 0x3
	.long	0x4426
	.byte	0
	.uleb128 0x8
	.long	.LASF254
	.byte	0x3
	.value	0x2f7
	.long	.LASF255
	.long	0x372a
	.byte	0x1
	.long	0x1887
	.long	0x188d
	.uleb128 0x3
	.long	0x4426
	.byte	0
	.uleb128 0x19
	.long	.LASF256
	.byte	0x6
	.byte	0x41
	.long	.LASF257
	.byte	0x1
	.long	0x18a1
	.long	0x18ac
	.uleb128 0x3
	.long	0x43fd
	.uleb128 0x1
	.long	0x1412
	.byte	0
	.uleb128 0x8
	.long	.LASF258
	.byte	0x3
	.value	0x31b
	.long	.LASF259
	.long	0x13ca
	.byte	0x1
	.long	0x18c5
	.long	0x18d0
	.uleb128 0x3
	.long	0x43fd
	.uleb128 0x1
	.long	0x1412
	.byte	0
	.uleb128 0x8
	.long	.LASF258
	.byte	0x3
	.value	0x32d
	.long	.LASF260
	.long	0x13d6
	.byte	0x1
	.long	0x18e9
	.long	0x18f4
	.uleb128 0x3
	.long	0x4426
	.uleb128 0x1
	.long	0x1412
	.byte	0
	.uleb128 0x12
	.long	.LASF261
	.byte	0x3
	.value	0x336
	.long	.LASF262
	.byte	0x2
	.long	0x1909
	.long	0x1914
	.uleb128 0x3
	.long	0x4426
	.uleb128 0x1
	.long	0x1412
	.byte	0
	.uleb128 0x43
	.string	"at"
	.byte	0x3
	.value	0x34c
	.long	.LASF263
	.long	0x13ca
	.byte	0x1
	.long	0x192c
	.long	0x1937
	.uleb128 0x3
	.long	0x43fd
	.uleb128 0x1
	.long	0x1412
	.byte	0
	.uleb128 0x43
	.string	"at"
	.byte	0x3
	.value	0x35e
	.long	.LASF264
	.long	0x13d6
	.byte	0x1
	.long	0x194f
	.long	0x195a
	.uleb128 0x3
	.long	0x4426
	.uleb128 0x1
	.long	0x1412
	.byte	0
	.uleb128 0x8
	.long	.LASF265
	.byte	0x3
	.value	0x369
	.long	.LASF266
	.long	0x13ca
	.byte	0x1
	.long	0x1973
	.long	0x1979
	.uleb128 0x3
	.long	0x43fd
	.byte	0
	.uleb128 0x8
	.long	.LASF265
	.byte	0x3
	.value	0x374
	.long	.LASF267
	.long	0x13d6
	.byte	0x1
	.long	0x1992
	.long	0x1998
	.uleb128 0x3
	.long	0x4426
	.byte	0
	.uleb128 0x8
	.long	.LASF268
	.byte	0x3
	.value	0x37f
	.long	.LASF269
	.long	0x13ca
	.byte	0x1
	.long	0x19b1
	.long	0x19b7
	.uleb128 0x3
	.long	0x43fd
	.byte	0
	.uleb128 0x8
	.long	.LASF268
	.byte	0x3
	.value	0x38a
	.long	.LASF270
	.long	0x13d6
	.byte	0x1
	.long	0x19d0
	.long	0x19d6
	.uleb128 0x3
	.long	0x4426
	.byte	0
	.uleb128 0x8
	.long	.LASF271
	.byte	0x3
	.value	0x398
	.long	.LASF272
	.long	0x4350
	.byte	0x1
	.long	0x19ef
	.long	0x19f5
	.uleb128 0x3
	.long	0x43fd
	.byte	0
	.uleb128 0x8
	.long	.LASF271
	.byte	0x3
	.value	0x39c
	.long	.LASF273
	.long	0x435b
	.byte	0x1
	.long	0x1a0e
	.long	0x1a14
	.uleb128 0x3
	.long	0x4426
	.byte	0
	.uleb128 0x12
	.long	.LASF274
	.byte	0x3
	.value	0x3ab
	.long	.LASF275
	.byte	0x1
	.long	0x1a29
	.long	0x1a34
	.uleb128 0x3
	.long	0x43fd
	.uleb128 0x1
	.long	0x440e
	.byte	0
	.uleb128 0x12
	.long	.LASF274
	.byte	0x3
	.value	0x3b9
	.long	.LASF276
	.byte	0x1
	.long	0x1a49
	.long	0x1a54
	.uleb128 0x3
	.long	0x43fd
	.uleb128 0x1
	.long	0x4431
	.byte	0
	.uleb128 0x12
	.long	.LASF277
	.byte	0x3
	.value	0x3cf
	.long	.LASF278
	.byte	0x1
	.long	0x1a69
	.long	0x1a6f
	.uleb128 0x3
	.long	0x43fd
	.byte	0
	.uleb128 0x26
	.long	.LASF279
	.byte	0x6
	.byte	0x72
	.long	.LASF280
	.long	0x13e2
	.byte	0x1
	.long	0x1a87
	.long	0x1a97
	.uleb128 0x3
	.long	0x43fd
	.uleb128 0x1
	.long	0x13ee
	.uleb128 0x1
	.long	0x440e
	.byte	0
	.uleb128 0x8
	.long	.LASF279
	.byte	0x3
	.value	0x412
	.long	.LASF281
	.long	0x13e2
	.byte	0x1
	.long	0x1ab0
	.long	0x1ac0
	.uleb128 0x3
	.long	0x43fd
	.uleb128 0x1
	.long	0x13ee
	.uleb128 0x1
	.long	0x4431
	.byte	0
	.uleb128 0x8
	.long	.LASF279
	.byte	0x3
	.value	0x423
	.long	.LASF282
	.long	0x13e2
	.byte	0x1
	.long	0x1ad9
	.long	0x1ae9
	.uleb128 0x3
	.long	0x43fd
	.uleb128 0x1
	.long	0x13ee
	.uleb128 0x1
	.long	0x1e23
	.byte	0
	.uleb128 0x8
	.long	.LASF279
	.byte	0x3
	.value	0x43c
	.long	.LASF283
	.long	0x13e2
	.byte	0x1
	.long	0x1b02
	.long	0x1b17
	.uleb128 0x3
	.long	0x43fd
	.uleb128 0x1
	.long	0x13ee
	.uleb128 0x1
	.long	0x1412
	.uleb128 0x1
	.long	0x440e
	.byte	0
	.uleb128 0x8
	.long	.LASF284
	.byte	0x3
	.value	0x49b
	.long	.LASF285
	.long	0x13e2
	.byte	0x1
	.long	0x1b30
	.long	0x1b3b
	.uleb128 0x3
	.long	0x43fd
	.uleb128 0x1
	.long	0x13ee
	.byte	0
	.uleb128 0x8
	.long	.LASF284
	.byte	0x3
	.value	0x4b6
	.long	.LASF286
	.long	0x13e2
	.byte	0x1
	.long	0x1b54
	.long	0x1b64
	.uleb128 0x3
	.long	0x43fd
	.uleb128 0x1
	.long	0x13ee
	.uleb128 0x1
	.long	0x13ee
	.byte	0
	.uleb128 0x12
	.long	.LASF20
	.byte	0x3
	.value	0x4cd
	.long	.LASF287
	.byte	0x1
	.long	0x1b79
	.long	0x1b84
	.uleb128 0x3
	.long	0x43fd
	.uleb128 0x1
	.long	0x4420
	.byte	0
	.uleb128 0x12
	.long	.LASF288
	.byte	0x3
	.value	0x4df
	.long	.LASF289
	.byte	0x1
	.long	0x1b99
	.long	0x1b9f
	.uleb128 0x3
	.long	0x43fd
	.byte	0
	.uleb128 0x12
	.long	.LASF290
	.byte	0x3
	.value	0x53b
	.long	.LASF291
	.byte	0x2
	.long	0x1bb4
	.long	0x1bc4
	.uleb128 0x3
	.long	0x43fd
	.uleb128 0x1
	.long	0x1412
	.uleb128 0x1
	.long	0x440e
	.byte	0
	.uleb128 0x12
	.long	.LASF292
	.byte	0x3
	.value	0x545
	.long	.LASF293
	.byte	0x2
	.long	0x1bd9
	.long	0x1be4
	.uleb128 0x3
	.long	0x43fd
	.uleb128 0x1
	.long	0x1412
	.byte	0
	.uleb128 0x19
	.long	.LASF294
	.byte	0x6
	.byte	0xed
	.long	.LASF295
	.byte	0x2
	.long	0x1bf8
	.long	0x1c08
	.uleb128 0x3
	.long	0x43fd
	.uleb128 0x1
	.long	0x7f0
	.uleb128 0x1
	.long	0x440e
	.byte	0
	.uleb128 0x12
	.long	.LASF296
	.byte	0x6
	.value	0x1ca
	.long	.LASF297
	.byte	0x2
	.long	0x1c1d
	.long	0x1c32
	.uleb128 0x3
	.long	0x43fd
	.uleb128 0x1
	.long	0x13e2
	.uleb128 0x1
	.long	0x1412
	.uleb128 0x1
	.long	0x440e
	.byte	0
	.uleb128 0x12
	.long	.LASF298
	.byte	0x6
	.value	0x22a
	.long	.LASF299
	.byte	0x2
	.long	0x1c47
	.long	0x1c52
	.uleb128 0x3
	.long	0x43fd
	.uleb128 0x1
	.long	0x1412
	.byte	0
	.uleb128 0x8
	.long	.LASF300
	.byte	0x6
	.value	0x25c
	.long	.LASF301
	.long	0x372a
	.byte	0x2
	.long	0x1c6b
	.long	0x1c71
	.uleb128 0x3
	.long	0x43fd
	.byte	0
	.uleb128 0x8
	.long	.LASF302
	.byte	0x6
	.value	0x139
	.long	.LASF303
	.long	0x13e2
	.byte	0x2
	.long	0x1c8a
	.long	0x1c9a
	.uleb128 0x3
	.long	0x43fd
	.uleb128 0x1
	.long	0x13ee
	.uleb128 0x1
	.long	0x4431
	.byte	0
	.uleb128 0x8
	.long	.LASF304
	.byte	0x3
	.value	0x5d8
	.long	.LASF305
	.long	0x13e2
	.byte	0x2
	.long	0x1cb3
	.long	0x1cc3
	.uleb128 0x3
	.long	0x43fd
	.uleb128 0x1
	.long	0x13ee
	.uleb128 0x1
	.long	0x4431
	.byte	0
	.uleb128 0x8
	.long	.LASF306
	.byte	0x3
	.value	0x5de
	.long	.LASF307
	.long	0x1412
	.byte	0x2
	.long	0x1cdc
	.long	0x1cec
	.uleb128 0x3
	.long	0x4426
	.uleb128 0x1
	.long	0x1412
	.uleb128 0x1
	.long	0x2f58
	.byte	0
	.uleb128 0x12
	.long	.LASF308
	.byte	0x3
	.value	0x5ec
	.long	.LASF309
	.byte	0x2
	.long	0x1d01
	.long	0x1d0c
	.uleb128 0x3
	.long	0x43fd
	.uleb128 0x1
	.long	0x13be
	.byte	0
	.uleb128 0x26
	.long	.LASF310
	.byte	0x6
	.byte	0x99
	.long	.LASF311
	.long	0x13e2
	.byte	0x2
	.long	0x1d24
	.long	0x1d2f
	.uleb128 0x3
	.long	0x43fd
	.uleb128 0x1
	.long	0x13e2
	.byte	0
	.uleb128 0x26
	.long	.LASF310
	.byte	0x6
	.byte	0xa5
	.long	.LASF312
	.long	0x13e2
	.byte	0x2
	.long	0x1d47
	.long	0x1d57
	.uleb128 0x3
	.long	0x43fd
	.uleb128 0x1
	.long	0x13e2
	.uleb128 0x1
	.long	0x13e2
	.byte	0
	.uleb128 0x5c
	.long	.LASF313
	.byte	0x3
	.value	0x5fe
	.long	.LASF314
	.long	0x1d6b
	.long	0x1d7b
	.uleb128 0x3
	.long	0x43fd
	.uleb128 0x1
	.long	0x441a
	.uleb128 0x1
	.long	0xab2
	.byte	0
	.uleb128 0x5c
	.long	.LASF313
	.byte	0x3
	.value	0x609
	.long	.LASF315
	.long	0x1d8f
	.long	0x1d9f
	.uleb128 0x3
	.long	0x43fd
	.uleb128 0x1
	.long	0x441a
	.uleb128 0x1
	.long	0x54d
	.byte	0
	.uleb128 0x12
	.long	.LASF316
	.byte	0x6
	.value	0x18a
	.long	.LASF317
	.byte	0x2
	.long	0x1dc3
	.long	0x1dd3
	.uleb128 0x2c
	.long	.LASF318
	.long	0x1dc3
	.uleb128 0x2d
	.long	0x375d
	.byte	0
	.uleb128 0x3
	.long	0x43fd
	.uleb128 0x1
	.long	0x13e2
	.uleb128 0x1
	.long	0x4524
	.byte	0
	.uleb128 0x19
	.long	.LASF319
	.byte	0x6
	.byte	0x5f
	.long	.LASF320
	.byte	0x1
	.long	0x1df6
	.long	0x1e01
	.uleb128 0x2c
	.long	.LASF318
	.long	0x1df6
	.uleb128 0x2d
	.long	0x375d
	.byte	0
	.uleb128 0x3
	.long	0x43fd
	.uleb128 0x1
	.long	0x4524
	.byte	0
	.uleb128 0xa
	.string	"_Tp"
	.long	0x375d
	.uleb128 0x2f
	.long	.LASF157
	.long	0x103d
	.byte	0
	.uleb128 0x9
	.long	0x1377
	.uleb128 0x37
	.long	.LASF322
	.uleb128 0x37
	.long	.LASF323
	.uleb128 0x37
	.long	.LASF324
	.uleb128 0x2b
	.long	.LASF325
	.byte	0x1
	.byte	0x11
	.value	0x660
	.long	0x1e42
	.uleb128 0x1f
	.long	.LASF326
	.byte	0x11
	.value	0x661
	.long	0x375d
	.byte	0
	.uleb128 0x2b
	.long	.LASF327
	.byte	0x1
	.byte	0x11
	.value	0x65c
	.long	0x1e5c
	.uleb128 0x1f
	.long	.LASF326
	.byte	0x11
	.value	0x65d
	.long	0x375d
	.byte	0
	.uleb128 0x11
	.long	.LASF328
	.byte	0x1
	.byte	0x1f
	.byte	0xb2
	.long	0x1e93
	.uleb128 0x4
	.long	.LASF329
	.byte	0x1f
	.byte	0xb6
	.long	0xaa2
	.uleb128 0x4
	.long	.LASF140
	.byte	0x1f
	.byte	0xb7
	.long	0x4350
	.uleb128 0x4
	.long	.LASF201
	.byte	0x1f
	.byte	0xb8
	.long	0x4385
	.uleb128 0x5
	.long	.LASF330
	.long	0x4350
	.byte	0
	.uleb128 0x5d
	.long	.LASF331
	.byte	0x8
	.byte	0xb
	.value	0x3f5
	.long	0x20be
	.uleb128 0x5e
	.long	.LASF332
	.byte	0xb
	.value	0x3f8
	.long	0x4350
	.byte	0
	.byte	0x2
	.uleb128 0x30
	.long	.LASF333
	.byte	0xb
	.value	0x3fe
	.long	0x4350
	.byte	0x1
	.uleb128 0x30
	.long	.LASF329
	.byte	0xb
	.value	0x401
	.long	0x1e68
	.byte	0x1
	.uleb128 0x30
	.long	.LASF140
	.byte	0xb
	.value	0x403
	.long	0x4350
	.byte	0x1
	.uleb128 0x30
	.long	.LASF201
	.byte	0xb
	.value	0x408
	.long	0x20d0
	.byte	0x1
	.uleb128 0x12
	.long	.LASF334
	.byte	0xb
	.value	0x40b
	.long	.LASF335
	.byte	0x1
	.long	0x1ef7
	.long	0x1efd
	.uleb128 0x3
	.long	0x452a
	.byte	0
	.uleb128 0x42
	.long	.LASF334
	.byte	0xb
	.value	0x40f
	.long	.LASF336
	.byte	0x1
	.long	0x1f12
	.long	0x1f1d
	.uleb128 0x3
	.long	0x452a
	.uleb128 0x1
	.long	0x1eae
	.byte	0
	.uleb128 0x8
	.long	.LASF337
	.byte	0xb
	.value	0x418
	.long	.LASF338
	.long	0x1eae
	.byte	0x1
	.long	0x1f36
	.long	0x1f3c
	.uleb128 0x3
	.long	0x4535
	.byte	0
	.uleb128 0x8
	.long	.LASF339
	.byte	0xb
	.value	0x41c
	.long	.LASF340
	.long	0x1ed5
	.byte	0x1
	.long	0x1f55
	.long	0x1f5b
	.uleb128 0x3
	.long	0x4535
	.byte	0
	.uleb128 0x8
	.long	.LASF341
	.byte	0xb
	.value	0x420
	.long	.LASF342
	.long	0x1ec8
	.byte	0x1
	.long	0x1f74
	.long	0x1f7a
	.uleb128 0x3
	.long	0x4535
	.byte	0
	.uleb128 0x8
	.long	.LASF343
	.byte	0xb
	.value	0x424
	.long	.LASF344
	.long	0x4540
	.byte	0x1
	.long	0x1f93
	.long	0x1f99
	.uleb128 0x3
	.long	0x452a
	.byte	0
	.uleb128 0x8
	.long	.LASF343
	.byte	0xb
	.value	0x42b
	.long	.LASF345
	.long	0x1e93
	.byte	0x1
	.long	0x1fb2
	.long	0x1fbd
	.uleb128 0x3
	.long	0x452a
	.uleb128 0x1
	.long	0x2d94
	.byte	0
	.uleb128 0x8
	.long	.LASF346
	.byte	0xb
	.value	0x433
	.long	.LASF347
	.long	0x4540
	.byte	0x1
	.long	0x1fd6
	.long	0x1fdc
	.uleb128 0x3
	.long	0x452a
	.byte	0
	.uleb128 0x8
	.long	.LASF346
	.byte	0xb
	.value	0x43a
	.long	.LASF348
	.long	0x1e93
	.byte	0x1
	.long	0x1ff5
	.long	0x2000
	.uleb128 0x3
	.long	0x452a
	.uleb128 0x1
	.long	0x2d94
	.byte	0
	.uleb128 0x8
	.long	.LASF349
	.byte	0xb
	.value	0x442
	.long	.LASF350
	.long	0x1e93
	.byte	0x1
	.long	0x2019
	.long	0x2024
	.uleb128 0x3
	.long	0x4535
	.uleb128 0x1
	.long	0x1ebb
	.byte	0
	.uleb128 0x8
	.long	.LASF351
	.byte	0xb
	.value	0x446
	.long	.LASF352
	.long	0x4540
	.byte	0x1
	.long	0x203d
	.long	0x2048
	.uleb128 0x3
	.long	0x452a
	.uleb128 0x1
	.long	0x1ebb
	.byte	0
	.uleb128 0x8
	.long	.LASF353
	.byte	0xb
	.value	0x44d
	.long	.LASF354
	.long	0x1e93
	.byte	0x1
	.long	0x2061
	.long	0x206c
	.uleb128 0x3
	.long	0x4535
	.uleb128 0x1
	.long	0x1ebb
	.byte	0
	.uleb128 0x8
	.long	.LASF355
	.byte	0xb
	.value	0x451
	.long	.LASF356
	.long	0x4540
	.byte	0x1
	.long	0x2085
	.long	0x2090
	.uleb128 0x3
	.long	0x452a
	.uleb128 0x1
	.long	0x1ebb
	.byte	0
	.uleb128 0x8
	.long	.LASF258
	.byte	0xb
	.value	0x458
	.long	.LASF357
	.long	0x1ed5
	.byte	0x1
	.long	0x20a9
	.long	0x20b4
	.uleb128 0x3
	.long	0x4535
	.uleb128 0x1
	.long	0x1ebb
	.byte	0
	.uleb128 0x5
	.long	.LASF330
	.long	0x4350
	.byte	0
	.uleb128 0x9
	.long	0x1e93
	.uleb128 0x2b
	.long	.LASF358
	.byte	0x1
	.byte	0x11
	.value	0x875
	.long	0x20dd
	.uleb128 0x1f
	.long	.LASF326
	.byte	0x11
	.value	0x876
	.long	0x4524
	.byte	0
	.uleb128 0x2b
	.long	.LASF359
	.byte	0x1
	.byte	0xc
	.value	0x161
	.long	0x2114
	.uleb128 0x39
	.long	.LASF360
	.byte	0xc
	.value	0x165
	.long	.LASF361
	.long	0x4350
	.uleb128 0xa
	.string	"_Tp"
	.long	0x375d
	.uleb128 0x1
	.long	0x435b
	.uleb128 0x1
	.long	0x435b
	.uleb128 0x1
	.long	0x4350
	.byte	0
	.byte	0
	.uleb128 0xc
	.long	.LASF362
	.byte	0xc
	.value	0x177
	.long	.LASF363
	.long	0x4350
	.long	0x2155
	.uleb128 0x44
	.long	.LASF364
	.long	0x372a
	.byte	0x1
	.byte	0x1
	.uleb128 0xa
	.string	"_II"
	.long	0x4350
	.uleb128 0xa
	.string	"_OI"
	.long	0x4350
	.uleb128 0x1
	.long	0x4350
	.uleb128 0x1
	.long	0x4350
	.uleb128 0x1
	.long	0x4350
	.byte	0
	.uleb128 0xc
	.long	.LASF365
	.byte	0xd
	.value	0x198
	.long	.LASF366
	.long	0x4350
	.long	0x2178
	.uleb128 0x5
	.long	.LASF330
	.long	0x4350
	.uleb128 0x1
	.long	0x4350
	.byte	0
	.uleb128 0xc
	.long	.LASF367
	.byte	0xc
	.value	0x1a4
	.long	.LASF368
	.long	0x4350
	.long	0x21b9
	.uleb128 0x44
	.long	.LASF364
	.long	0x372a
	.byte	0x1
	.byte	0x1
	.uleb128 0xa
	.string	"_II"
	.long	0x4350
	.uleb128 0xa
	.string	"_OI"
	.long	0x4350
	.uleb128 0x1
	.long	0x4350
	.uleb128 0x1
	.long	0x4350
	.uleb128 0x1
	.long	0x4350
	.byte	0
	.uleb128 0xc
	.long	.LASF365
	.byte	0xb
	.value	0x4dc
	.long	.LASF369
	.long	0x4350
	.long	0x21dc
	.uleb128 0x5
	.long	.LASF330
	.long	0x4350
	.uleb128 0x1
	.long	0x1e93
	.byte	0
	.uleb128 0xc
	.long	.LASF370
	.byte	0xc
	.value	0x1be
	.long	.LASF371
	.long	0x4350
	.long	0x2212
	.uleb128 0xa
	.string	"_II"
	.long	0x1e93
	.uleb128 0xa
	.string	"_OI"
	.long	0x4350
	.uleb128 0x1
	.long	0x1e93
	.uleb128 0x1
	.long	0x1e93
	.uleb128 0x1
	.long	0x4350
	.byte	0
	.uleb128 0xc
	.long	.LASF372
	.byte	0xc
	.value	0x2ed
	.long	.LASF373
	.long	0x2c6f
	.long	0x2251
	.uleb128 0x5
	.long	.LASF374
	.long	0x4350
	.uleb128 0x5
	.long	.LASF137
	.long	0x2cd7
	.uleb128 0xa
	.string	"_Tp"
	.long	0x375d
	.uleb128 0x1
	.long	0x4350
	.uleb128 0x1
	.long	0x2cd7
	.uleb128 0x1
	.long	0x438b
	.byte	0
	.uleb128 0xc
	.long	.LASF375
	.byte	0xc
	.value	0x115
	.long	.LASF376
	.long	0x4350
	.long	0x2274
	.uleb128 0x5
	.long	.LASF330
	.long	0x4350
	.uleb128 0x1
	.long	0x4350
	.byte	0
	.uleb128 0xc
	.long	.LASF377
	.byte	0xc
	.value	0x310
	.long	.LASF378
	.long	0x4350
	.long	0x22b3
	.uleb128 0xa
	.string	"_OI"
	.long	0x4350
	.uleb128 0x5
	.long	.LASF137
	.long	0x2cd7
	.uleb128 0xa
	.string	"_Tp"
	.long	0x375d
	.uleb128 0x1
	.long	0x4350
	.uleb128 0x1
	.long	0x2cd7
	.uleb128 0x1
	.long	0x438b
	.byte	0
	.uleb128 0x29
	.long	.LASF379
	.byte	0x9
	.byte	0x73
	.long	.LASF380
	.long	0x4350
	.long	0x22e8
	.uleb128 0x5
	.long	.LASF133
	.long	0x1e93
	.uleb128 0x5
	.long	.LASF130
	.long	0x4350
	.uleb128 0x1
	.long	0x1e93
	.uleb128 0x1
	.long	0x1e93
	.uleb128 0x1
	.long	0x4350
	.byte	0
	.uleb128 0xc
	.long	.LASF381
	.byte	0x9
	.value	0x11f
	.long	.LASF382
	.long	0x4350
	.long	0x232c
	.uleb128 0x5
	.long	.LASF133
	.long	0x1e93
	.uleb128 0x5
	.long	.LASF130
	.long	0x4350
	.uleb128 0xa
	.string	"_Tp"
	.long	0x375d
	.uleb128 0x1
	.long	0x1e93
	.uleb128 0x1
	.long	0x1e93
	.uleb128 0x1
	.long	0x4350
	.uleb128 0x1
	.long	0x437f
	.byte	0
	.uleb128 0xc
	.long	.LASF383
	.byte	0xb
	.value	0x4c8
	.long	.LASF384
	.long	0x1e93
	.long	0x2358
	.uleb128 0xa
	.string	"_Tp"
	.long	0x375d
	.uleb128 0x2f
	.long	.LASF385
	.long	0x1e93
	.uleb128 0x1
	.long	0x4350
	.byte	0
	.uleb128 0x29
	.long	.LASF386
	.byte	0xc
	.byte	0xdb
	.long	.LASF387
	.long	0x4d8b
	.long	0x237f
	.uleb128 0xa
	.string	"_Tp"
	.long	0x2cd7
	.uleb128 0x1
	.long	0x4d8b
	.uleb128 0x1
	.long	0x4d8b
	.byte	0
	.uleb128 0xc
	.long	.LASF388
	.byte	0x9
	.value	0x23e
	.long	.LASF389
	.long	0x4350
	.long	0x23b0
	.uleb128 0x5
	.long	.LASF130
	.long	0x4350
	.uleb128 0x5
	.long	.LASF137
	.long	0x2cd7
	.uleb128 0x1
	.long	0x4350
	.uleb128 0x1
	.long	0x2cd7
	.byte	0
	.uleb128 0xc
	.long	.LASF390
	.byte	0x9
	.value	0x131
	.long	.LASF391
	.long	0x4350
	.long	0x23f4
	.uleb128 0x5
	.long	.LASF133
	.long	0x4350
	.uleb128 0x5
	.long	.LASF130
	.long	0x4350
	.uleb128 0x5
	.long	.LASF392
	.long	0x103d
	.uleb128 0x1
	.long	0x4350
	.uleb128 0x1
	.long	0x4350
	.uleb128 0x1
	.long	0x4350
	.uleb128 0x1
	.long	0x437f
	.byte	0
	.uleb128 0xc
	.long	.LASF393
	.byte	0x9
	.value	0x283
	.long	.LASF394
	.long	0x4350
	.long	0x2433
	.uleb128 0x5
	.long	.LASF130
	.long	0x4350
	.uleb128 0x5
	.long	.LASF137
	.long	0x2cd7
	.uleb128 0xa
	.string	"_Tp"
	.long	0x375d
	.uleb128 0x1
	.long	0x4350
	.uleb128 0x1
	.long	0x2cd7
	.uleb128 0x1
	.long	0x437f
	.byte	0
	.uleb128 0x4d
	.long	.LASF395
	.byte	0x5
	.byte	0x7f
	.long	.LASF397
	.long	0x2456
	.uleb128 0x5
	.long	.LASF130
	.long	0x4350
	.uleb128 0x1
	.long	0x4350
	.uleb128 0x1
	.long	0x4350
	.byte	0
	.uleb128 0x29
	.long	.LASF398
	.byte	0x4
	.byte	0x49
	.long	.LASF399
	.long	0x4524
	.long	0x2478
	.uleb128 0xa
	.string	"_Tp"
	.long	0x375d
	.uleb128 0x1
	.long	0x55f9
	.byte	0
	.uleb128 0x4d
	.long	.LASF400
	.byte	0x5
	.byte	0xcb
	.long	.LASF401
	.long	0x24a9
	.uleb128 0x5
	.long	.LASF130
	.long	0x4350
	.uleb128 0xa
	.string	"_Tp"
	.long	0x375d
	.uleb128 0x1
	.long	0x4350
	.uleb128 0x1
	.long	0x4350
	.uleb128 0x1
	.long	0x437f
	.byte	0
	.uleb128 0x58
	.long	.LASF402
	.byte	0x4
	.byte	0x62
	.long	.LASF403
	.long	0x588d
	.uleb128 0xa
	.string	"_Tp"
	.long	0x4385
	.uleb128 0x1
	.long	0x4385
	.byte	0
	.byte	0
	.uleb128 0x49
	.long	.LASF404
	.byte	0x12
	.byte	0xff
	.long	0x2ca9
	.uleb128 0x40
	.long	.LASF39
	.byte	0x12
	.value	0x101
	.uleb128 0x4c
	.byte	0x12
	.value	0x101
	.long	0x24d3
	.uleb128 0x2
	.byte	0xf
	.byte	0xf8
	.long	0x3698
	.uleb128 0x22
	.byte	0xf
	.value	0x101
	.long	0x36b3
	.uleb128 0x22
	.byte	0xf
	.value	0x102
	.long	0x36da
	.uleb128 0x47
	.long	.LASF405
	.byte	0x20
	.byte	0x23
	.uleb128 0x2
	.byte	0xa
	.byte	0x2c
	.long	0x7f0
	.uleb128 0x2
	.byte	0xa
	.byte	0x2d
	.long	0xaa2
	.uleb128 0x11
	.long	.LASF406
	.byte	0x1
	.byte	0x21
	.byte	0x37
	.long	0x2551
	.uleb128 0xf
	.long	.LASF407
	.byte	0x21
	.byte	0x3a
	.long	0x2d9b
	.uleb128 0xf
	.long	.LASF408
	.byte	0x21
	.byte	0x3b
	.long	0x2d9b
	.uleb128 0xf
	.long	.LASF409
	.byte	0x21
	.byte	0x3f
	.long	0x3731
	.uleb128 0xf
	.long	.LASF410
	.byte	0x21
	.byte	0x40
	.long	0x2d9b
	.uleb128 0x5
	.long	.LASF411
	.long	0x2d94
	.byte	0
	.uleb128 0x2
	.byte	0x18
	.byte	0xc8
	.long	0x3be7
	.uleb128 0x2
	.byte	0x18
	.byte	0xd8
	.long	0x3e5f
	.uleb128 0x2
	.byte	0x18
	.byte	0xe3
	.long	0x3e7a
	.uleb128 0x2
	.byte	0x18
	.byte	0xe4
	.long	0x3e8f
	.uleb128 0x2
	.byte	0x18
	.byte	0xe5
	.long	0x3eae
	.uleb128 0x2
	.byte	0x18
	.byte	0xe7
	.long	0x3ecd
	.uleb128 0x2
	.byte	0x18
	.byte	0xe8
	.long	0x3ee7
	.uleb128 0x74
	.string	"div"
	.byte	0x18
	.byte	0xd5
	.long	.LASF855
	.long	0x3be7
	.long	0x25a0
	.uleb128 0x1
	.long	0x36d3
	.uleb128 0x1
	.long	0x36d3
	.byte	0
	.uleb128 0x11
	.long	.LASF412
	.byte	0x1
	.byte	0x21
	.byte	0x64
	.long	0x25e2
	.uleb128 0xf
	.long	.LASF413
	.byte	0x21
	.byte	0x67
	.long	0x2d9b
	.uleb128 0xf
	.long	.LASF409
	.byte	0x21
	.byte	0x6a
	.long	0x3731
	.uleb128 0xf
	.long	.LASF414
	.byte	0x21
	.byte	0x6b
	.long	0x2d9b
	.uleb128 0xf
	.long	.LASF415
	.byte	0x21
	.byte	0x6c
	.long	0x2d9b
	.uleb128 0x5
	.long	.LASF411
	.long	0x2cb7
	.byte	0
	.uleb128 0x11
	.long	.LASF416
	.byte	0x1
	.byte	0x21
	.byte	0x64
	.long	0x2624
	.uleb128 0xf
	.long	.LASF413
	.byte	0x21
	.byte	0x67
	.long	0x2d9b
	.uleb128 0xf
	.long	.LASF409
	.byte	0x21
	.byte	0x6a
	.long	0x3731
	.uleb128 0xf
	.long	.LASF414
	.byte	0x21
	.byte	0x6b
	.long	0x2d9b
	.uleb128 0xf
	.long	.LASF415
	.byte	0x21
	.byte	0x6c
	.long	0x2d9b
	.uleb128 0x5
	.long	.LASF411
	.long	0x2cbe
	.byte	0
	.uleb128 0x11
	.long	.LASF417
	.byte	0x1
	.byte	0x21
	.byte	0x64
	.long	0x2666
	.uleb128 0xf
	.long	.LASF413
	.byte	0x21
	.byte	0x67
	.long	0x2d9b
	.uleb128 0xf
	.long	.LASF409
	.byte	0x21
	.byte	0x6a
	.long	0x3731
	.uleb128 0xf
	.long	.LASF414
	.byte	0x21
	.byte	0x6b
	.long	0x2d9b
	.uleb128 0xf
	.long	.LASF415
	.byte	0x21
	.byte	0x6c
	.long	0x2d9b
	.uleb128 0x5
	.long	.LASF411
	.long	0x2cc5
	.byte	0
	.uleb128 0x11
	.long	.LASF418
	.byte	0x1
	.byte	0x21
	.byte	0x37
	.long	0x26a8
	.uleb128 0xf
	.long	.LASF407
	.byte	0x21
	.byte	0x3a
	.long	0x2cde
	.uleb128 0xf
	.long	.LASF408
	.byte	0x21
	.byte	0x3b
	.long	0x2cde
	.uleb128 0xf
	.long	.LASF409
	.byte	0x21
	.byte	0x3f
	.long	0x3731
	.uleb128 0xf
	.long	.LASF410
	.byte	0x21
	.byte	0x40
	.long	0x2d9b
	.uleb128 0x5
	.long	.LASF411
	.long	0x2cd7
	.byte	0
	.uleb128 0x11
	.long	.LASF419
	.byte	0x1
	.byte	0x21
	.byte	0x37
	.long	0x26ea
	.uleb128 0xf
	.long	.LASF407
	.byte	0x21
	.byte	0x3a
	.long	0x2d8f
	.uleb128 0xf
	.long	.LASF408
	.byte	0x21
	.byte	0x3b
	.long	0x2d8f
	.uleb128 0xf
	.long	.LASF409
	.byte	0x21
	.byte	0x3f
	.long	0x3731
	.uleb128 0xf
	.long	.LASF410
	.byte	0x21
	.byte	0x40
	.long	0x2d9b
	.uleb128 0x5
	.long	.LASF411
	.long	0x2d88
	.byte	0
	.uleb128 0x11
	.long	.LASF420
	.byte	0x1
	.byte	0x21
	.byte	0x37
	.long	0x272c
	.uleb128 0xf
	.long	.LASF407
	.byte	0x21
	.byte	0x3a
	.long	0x3764
	.uleb128 0xf
	.long	.LASF408
	.byte	0x21
	.byte	0x3b
	.long	0x3764
	.uleb128 0xf
	.long	.LASF409
	.byte	0x21
	.byte	0x3f
	.long	0x3731
	.uleb128 0xf
	.long	.LASF410
	.byte	0x21
	.byte	0x40
	.long	0x2d9b
	.uleb128 0x5
	.long	.LASF411
	.long	0x375d
	.byte	0
	.uleb128 0x11
	.long	.LASF421
	.byte	0x1
	.byte	0x21
	.byte	0x37
	.long	0x276e
	.uleb128 0xf
	.long	.LASF407
	.byte	0x21
	.byte	0x3a
	.long	0x34f5
	.uleb128 0xf
	.long	.LASF408
	.byte	0x21
	.byte	0x3b
	.long	0x34f5
	.uleb128 0xf
	.long	.LASF409
	.byte	0x21
	.byte	0x3f
	.long	0x3731
	.uleb128 0xf
	.long	.LASF410
	.byte	0x21
	.byte	0x40
	.long	0x2d9b
	.uleb128 0x5
	.long	.LASF411
	.long	0x34ee
	.byte	0
	.uleb128 0x11
	.long	.LASF422
	.byte	0x1
	.byte	0x22
	.byte	0x32
	.long	0x286f
	.uleb128 0x2
	.byte	0x22
	.byte	0x32
	.long	0xf53
	.uleb128 0x2
	.byte	0x22
	.byte	0x32
	.long	0xf77
	.uleb128 0x2
	.byte	0x22
	.byte	0x32
	.long	0xf97
	.uleb128 0x5a
	.long	0xee6
	.byte	0
	.uleb128 0x4
	.long	.LASF28
	.byte	0x22
	.byte	0x3a
	.long	0xf04
	.uleb128 0x9
	.long	0x2795
	.uleb128 0x4
	.long	.LASF140
	.byte	0x22
	.byte	0x3b
	.long	0xf10
	.uleb128 0x4
	.long	.LASF201
	.byte	0x22
	.byte	0x40
	.long	0x436d
	.uleb128 0x4
	.long	.LASF202
	.byte	0x22
	.byte	0x41
	.long	0x4373
	.uleb128 0x29
	.long	.LASF423
	.byte	0x22
	.byte	0x5e
	.long	.LASF424
	.long	0x103d
	.long	0x27df
	.uleb128 0x1
	.long	0x4379
	.byte	0
	.uleb128 0x4d
	.long	.LASF425
	.byte	0x22
	.byte	0x61
	.long	.LASF426
	.long	0x27f9
	.uleb128 0x1
	.long	0x437f
	.uleb128 0x1
	.long	0x437f
	.byte	0
	.uleb128 0x3b
	.long	.LASF427
	.byte	0x22
	.byte	0x64
	.long	.LASF429
	.long	0x372a
	.uleb128 0x3b
	.long	.LASF428
	.byte	0x22
	.byte	0x67
	.long	.LASF430
	.long	0x372a
	.uleb128 0x3b
	.long	.LASF431
	.byte	0x22
	.byte	0x6a
	.long	.LASF432
	.long	0x372a
	.uleb128 0x3b
	.long	.LASF433
	.byte	0x22
	.byte	0x6d
	.long	.LASF434
	.long	0x372a
	.uleb128 0x3b
	.long	.LASF435
	.byte	0x22
	.byte	0x70
	.long	.LASF436
	.long	0x372a
	.uleb128 0x11
	.long	.LASF437
	.byte	0x1
	.byte	0x22
	.byte	0x74
	.long	0x2865
	.uleb128 0x4
	.long	.LASF438
	.byte	0x22
	.byte	0x75
	.long	0xfcb
	.uleb128 0xa
	.string	"_Tp"
	.long	0x375d
	.byte	0
	.uleb128 0x5
	.long	.LASF157
	.long	0x103d
	.byte	0
	.uleb128 0x3f
	.long	.LASF439
	.byte	0x1
	.byte	0xa
	.byte	0x3a
	.long	0x2a2d
	.uleb128 0x1c
	.long	.LASF142
	.byte	0xa
	.byte	0x3d
	.long	0x7f0
	.byte	0x1
	.uleb128 0x1c
	.long	.LASF140
	.byte	0xa
	.byte	0x3f
	.long	0x4350
	.byte	0x1
	.uleb128 0x1c
	.long	.LASF440
	.byte	0xa
	.byte	0x40
	.long	0x435b
	.byte	0x1
	.uleb128 0x1c
	.long	.LASF201
	.byte	0xa
	.byte	0x41
	.long	0x4385
	.byte	0x1
	.uleb128 0x1c
	.long	.LASF202
	.byte	0xa
	.byte	0x42
	.long	0x438b
	.byte	0x1
	.uleb128 0x19
	.long	.LASF441
	.byte	0xa
	.byte	0x4f
	.long	.LASF442
	.byte	0x1
	.long	0x28cb
	.long	0x28d1
	.uleb128 0x3
	.long	0x4391
	.byte	0
	.uleb128 0x19
	.long	.LASF441
	.byte	0xa
	.byte	0x51
	.long	.LASF443
	.byte	0x1
	.long	0x28e5
	.long	0x28f0
	.uleb128 0x3
	.long	0x4391
	.uleb128 0x1
	.long	0x439c
	.byte	0
	.uleb128 0x19
	.long	.LASF444
	.byte	0xa
	.byte	0x56
	.long	.LASF445
	.byte	0x1
	.long	0x2904
	.long	0x290f
	.uleb128 0x3
	.long	0x4391
	.uleb128 0x3
	.long	0x2d94
	.byte	0
	.uleb128 0x26
	.long	.LASF446
	.byte	0xa
	.byte	0x59
	.long	.LASF447
	.long	0x2887
	.byte	0x1
	.long	0x2927
	.long	0x2932
	.uleb128 0x3
	.long	0x43a2
	.uleb128 0x1
	.long	0x289f
	.byte	0
	.uleb128 0x26
	.long	.LASF446
	.byte	0xa
	.byte	0x5d
	.long	.LASF448
	.long	0x2893
	.byte	0x1
	.long	0x294a
	.long	0x2955
	.uleb128 0x3
	.long	0x43a2
	.uleb128 0x1
	.long	0x28ab
	.byte	0
	.uleb128 0x26
	.long	.LASF143
	.byte	0xa
	.byte	0x63
	.long	.LASF449
	.long	0x2887
	.byte	0x1
	.long	0x296d
	.long	0x297d
	.uleb128 0x3
	.long	0x4391
	.uleb128 0x1
	.long	0x287b
	.uleb128 0x1
	.long	0x3b5b
	.byte	0
	.uleb128 0x19
	.long	.LASF146
	.byte	0xa
	.byte	0x74
	.long	.LASF450
	.byte	0x1
	.long	0x2991
	.long	0x29a1
	.uleb128 0x3
	.long	0x4391
	.uleb128 0x1
	.long	0x2887
	.uleb128 0x1
	.long	0x287b
	.byte	0
	.uleb128 0x26
	.long	.LASF148
	.byte	0xa
	.byte	0x81
	.long	.LASF451
	.long	0x287b
	.byte	0x1
	.long	0x29b9
	.long	0x29bf
	.uleb128 0x3
	.long	0x43a2
	.byte	0
	.uleb128 0x19
	.long	.LASF153
	.byte	0xa
	.byte	0x8c
	.long	.LASF452
	.byte	0x1
	.long	0x29dc
	.long	0x29e7
	.uleb128 0xa
	.string	"_Up"
	.long	0x375d
	.uleb128 0x3
	.long	0x4391
	.uleb128 0x1
	.long	0x4350
	.byte	0
	.uleb128 0x19
	.long	.LASF155
	.byte	0xa
	.byte	0x87
	.long	.LASF453
	.byte	0x1
	.long	0x2a13
	.long	0x2a23
	.uleb128 0xa
	.string	"_Up"
	.long	0x375d
	.uleb128 0x2c
	.long	.LASF318
	.long	0x2a13
	.uleb128 0x2d
	.long	0x375d
	.byte	0
	.uleb128 0x3
	.long	0x4391
	.uleb128 0x1
	.long	0x4350
	.uleb128 0x1
	.long	0x4524
	.byte	0
	.uleb128 0xa
	.string	"_Tp"
	.long	0x375d
	.byte	0
	.uleb128 0x9
	.long	0x286f
	.uleb128 0x5d
	.long	.LASF454
	.byte	0x8
	.byte	0xb
	.value	0x2fb
	.long	0x2c59
	.uleb128 0x5e
	.long	.LASF332
	.byte	0xb
	.value	0x2fe
	.long	0x4350
	.byte	0
	.byte	0x2
	.uleb128 0x30
	.long	.LASF329
	.byte	0xb
	.value	0x306
	.long	0x1e68
	.byte	0x1
	.uleb128 0x30
	.long	.LASF201
	.byte	0xb
	.value	0x307
	.long	0x1e7e
	.byte	0x1
	.uleb128 0x30
	.long	.LASF140
	.byte	0xb
	.value	0x308
	.long	0x1e73
	.byte	0x1
	.uleb128 0x12
	.long	.LASF455
	.byte	0xb
	.value	0x30a
	.long	.LASF456
	.byte	0x1
	.long	0x2a89
	.long	0x2a8f
	.uleb128 0x3
	.long	0x4502
	.byte	0
	.uleb128 0x42
	.long	.LASF455
	.byte	0xb
	.value	0x30e
	.long	.LASF457
	.byte	0x1
	.long	0x2aa4
	.long	0x2aaf
	.uleb128 0x3
	.long	0x4502
	.uleb128 0x1
	.long	0x450d
	.byte	0
	.uleb128 0x8
	.long	.LASF339
	.byte	0xb
	.value	0x31b
	.long	.LASF458
	.long	0x2a5a
	.byte	0x1
	.long	0x2ac8
	.long	0x2ace
	.uleb128 0x3
	.long	0x4513
	.byte	0
	.uleb128 0x8
	.long	.LASF341
	.byte	0xb
	.value	0x31f
	.long	.LASF459
	.long	0x2a67
	.byte	0x1
	.long	0x2ae7
	.long	0x2aed
	.uleb128 0x3
	.long	0x4513
	.byte	0
	.uleb128 0x8
	.long	.LASF343
	.byte	0xb
	.value	0x323
	.long	.LASF460
	.long	0x451e
	.byte	0x1
	.long	0x2b06
	.long	0x2b0c
	.uleb128 0x3
	.long	0x4502
	.byte	0
	.uleb128 0x8
	.long	.LASF343
	.byte	0xb
	.value	0x32a
	.long	.LASF461
	.long	0x2a32
	.byte	0x1
	.long	0x2b25
	.long	0x2b30
	.uleb128 0x3
	.long	0x4502
	.uleb128 0x1
	.long	0x2d94
	.byte	0
	.uleb128 0x8
	.long	.LASF346
	.byte	0xb
	.value	0x32f
	.long	.LASF462
	.long	0x451e
	.byte	0x1
	.long	0x2b49
	.long	0x2b4f
	.uleb128 0x3
	.long	0x4502
	.byte	0
	.uleb128 0x8
	.long	.LASF346
	.byte	0xb
	.value	0x336
	.long	.LASF463
	.long	0x2a32
	.byte	0x1
	.long	0x2b68
	.long	0x2b73
	.uleb128 0x3
	.long	0x4502
	.uleb128 0x1
	.long	0x2d94
	.byte	0
	.uleb128 0x8
	.long	.LASF258
	.byte	0xb
	.value	0x33b
	.long	.LASF464
	.long	0x2a5a
	.byte	0x1
	.long	0x2b8c
	.long	0x2b97
	.uleb128 0x3
	.long	0x4513
	.uleb128 0x1
	.long	0x2a4d
	.byte	0
	.uleb128 0x8
	.long	.LASF351
	.byte	0xb
	.value	0x33f
	.long	.LASF465
	.long	0x451e
	.byte	0x1
	.long	0x2bb0
	.long	0x2bbb
	.uleb128 0x3
	.long	0x4502
	.uleb128 0x1
	.long	0x2a4d
	.byte	0
	.uleb128 0x8
	.long	.LASF349
	.byte	0xb
	.value	0x343
	.long	.LASF466
	.long	0x2a32
	.byte	0x1
	.long	0x2bd4
	.long	0x2bdf
	.uleb128 0x3
	.long	0x4513
	.uleb128 0x1
	.long	0x2a4d
	.byte	0
	.uleb128 0x8
	.long	.LASF355
	.byte	0xb
	.value	0x347
	.long	.LASF467
	.long	0x451e
	.byte	0x1
	.long	0x2bf8
	.long	0x2c03
	.uleb128 0x3
	.long	0x4502
	.uleb128 0x1
	.long	0x2a4d
	.byte	0
	.uleb128 0x8
	.long	.LASF353
	.byte	0xb
	.value	0x34b
	.long	.LASF468
	.long	0x2a32
	.byte	0x1
	.long	0x2c1c
	.long	0x2c27
	.uleb128 0x3
	.long	0x4513
	.uleb128 0x1
	.long	0x2a4d
	.byte	0
	.uleb128 0x8
	.long	.LASF337
	.byte	0xb
	.value	0x34f
	.long	.LASF469
	.long	0x450d
	.byte	0x1
	.long	0x2c40
	.long	0x2c46
	.uleb128 0x3
	.long	0x4513
	.byte	0
	.uleb128 0x5
	.long	.LASF330
	.long	0x4350
	.uleb128 0x5
	.long	.LASF470
	.long	0x1377
	.byte	0
	.uleb128 0x9
	.long	0x2a32
	.uleb128 0x37
	.long	.LASF471
	.uleb128 0x11
	.long	.LASF472
	.byte	0x1
	.byte	0x23
	.byte	0x31
	.long	0x2c7b
	.uleb128 0x4
	.long	.LASF473
	.byte	0x23
	.byte	0x32
	.long	0x4350
	.byte	0
	.uleb128 0x39
	.long	.LASF474
	.byte	0xb
	.value	0x3c5
	.long	.LASF475
	.long	0x2a4d
	.uleb128 0x5
	.long	.LASF330
	.long	0x4350
	.uleb128 0x5
	.long	.LASF470
	.long	0x1377
	.uleb128 0x1
	.long	0x4ed0
	.uleb128 0x1
	.long	0x4ed0
	.byte	0
	.byte	0
	.uleb128 0x16
	.byte	0x20
	.byte	0x3
	.long	.LASF476
	.uleb128 0x16
	.byte	0x10
	.byte	0x4
	.long	.LASF477
	.uleb128 0x16
	.byte	0x4
	.byte	0x4
	.long	.LASF478
	.uleb128 0x16
	.byte	0x8
	.byte	0x4
	.long	.LASF479
	.uleb128 0x16
	.byte	0x10
	.byte	0x4
	.long	.LASF480
	.uleb128 0x4
	.long	.LASF77
	.byte	0x24
	.byte	0xd8
	.long	0x2cd7
	.uleb128 0x16
	.byte	0x8
	.byte	0x7
	.long	.LASF481
	.uleb128 0x9
	.long	0x2cd7
	.uleb128 0x11
	.long	.LASF482
	.byte	0x18
	.byte	0x25
	.byte	0
	.long	0x2d20
	.uleb128 0x6
	.long	.LASF483
	.byte	0x25
	.byte	0
	.long	0x2d20
	.byte	0
	.uleb128 0x6
	.long	.LASF484
	.byte	0x25
	.byte	0
	.long	0x2d20
	.byte	0x4
	.uleb128 0x6
	.long	.LASF485
	.byte	0x25
	.byte	0
	.long	0x2d27
	.byte	0x8
	.uleb128 0x6
	.long	.LASF486
	.byte	0x25
	.byte	0
	.long	0x2d27
	.byte	0x10
	.byte	0
	.uleb128 0x16
	.byte	0x4
	.byte	0x7
	.long	.LASF487
	.uleb128 0x75
	.byte	0x8
	.uleb128 0x4
	.long	.LASF488
	.byte	0x26
	.byte	0x14
	.long	0x2d20
	.uleb128 0x3c
	.byte	0x8
	.byte	0x27
	.byte	0xe
	.long	.LASF686
	.long	0x2d78
	.uleb128 0x76
	.byte	0x4
	.byte	0x27
	.byte	0x11
	.long	0x2d5f
	.uleb128 0x5f
	.long	.LASF489
	.byte	0x27
	.byte	0x12
	.long	0x2d20
	.uleb128 0x5f
	.long	.LASF490
	.byte	0x27
	.byte	0x13
	.long	0x2d78
	.byte	0
	.uleb128 0x6
	.long	.LASF491
	.byte	0x27
	.byte	0xf
	.long	0x2d94
	.byte	0
	.uleb128 0x6
	.long	.LASF44
	.byte	0x27
	.byte	0x14
	.long	0x2d40
	.byte	0x4
	.byte	0
	.uleb128 0x33
	.long	0x2d88
	.long	0x2d88
	.uleb128 0x3d
	.long	0x2cd7
	.byte	0x3
	.byte	0
	.uleb128 0x16
	.byte	0x1
	.byte	0x6
	.long	.LASF492
	.uleb128 0x9
	.long	0x2d88
	.uleb128 0x77
	.byte	0x4
	.byte	0x5
	.string	"int"
	.uleb128 0x9
	.long	0x2d94
	.uleb128 0x4
	.long	.LASF493
	.byte	0x27
	.byte	0x15
	.long	0x2d34
	.uleb128 0x4
	.long	.LASF494
	.byte	0x28
	.byte	0x6
	.long	0x2da0
	.uleb128 0x9
	.long	0x2dab
	.uleb128 0x4
	.long	.LASF495
	.byte	0x29
	.byte	0x5
	.long	0x2dc6
	.uleb128 0x11
	.long	.LASF496
	.byte	0xd8
	.byte	0x2a
	.byte	0xf5
	.long	0x2f46
	.uleb128 0x6
	.long	.LASF497
	.byte	0x2a
	.byte	0xf6
	.long	0x2d94
	.byte	0
	.uleb128 0x6
	.long	.LASF498
	.byte	0x2a
	.byte	0xfb
	.long	0x3274
	.byte	0x8
	.uleb128 0x6
	.long	.LASF499
	.byte	0x2a
	.byte	0xfc
	.long	0x3274
	.byte	0x10
	.uleb128 0x6
	.long	.LASF500
	.byte	0x2a
	.byte	0xfd
	.long	0x3274
	.byte	0x18
	.uleb128 0x6
	.long	.LASF501
	.byte	0x2a
	.byte	0xfe
	.long	0x3274
	.byte	0x20
	.uleb128 0x6
	.long	.LASF502
	.byte	0x2a
	.byte	0xff
	.long	0x3274
	.byte	0x28
	.uleb128 0x13
	.long	.LASF503
	.byte	0x2a
	.value	0x100
	.long	0x3274
	.byte	0x30
	.uleb128 0x13
	.long	.LASF504
	.byte	0x2a
	.value	0x101
	.long	0x3274
	.byte	0x38
	.uleb128 0x13
	.long	.LASF505
	.byte	0x2a
	.value	0x102
	.long	0x3274
	.byte	0x40
	.uleb128 0x13
	.long	.LASF506
	.byte	0x2a
	.value	0x104
	.long	0x3274
	.byte	0x48
	.uleb128 0x13
	.long	.LASF507
	.byte	0x2a
	.value	0x105
	.long	0x3274
	.byte	0x50
	.uleb128 0x13
	.long	.LASF508
	.byte	0x2a
	.value	0x106
	.long	0x3274
	.byte	0x58
	.uleb128 0x13
	.long	.LASF509
	.byte	0x2a
	.value	0x108
	.long	0x3f6a
	.byte	0x60
	.uleb128 0x13
	.long	.LASF510
	.byte	0x2a
	.value	0x10a
	.long	0x3f70
	.byte	0x68
	.uleb128 0x13
	.long	.LASF511
	.byte	0x2a
	.value	0x10c
	.long	0x2d94
	.byte	0x70
	.uleb128 0x13
	.long	.LASF512
	.byte	0x2a
	.value	0x110
	.long	0x2d94
	.byte	0x74
	.uleb128 0x13
	.long	.LASF513
	.byte	0x2a
	.value	0x112
	.long	0x383d
	.byte	0x78
	.uleb128 0x13
	.long	.LASF514
	.byte	0x2a
	.value	0x116
	.long	0x2f51
	.byte	0x80
	.uleb128 0x13
	.long	.LASF515
	.byte	0x2a
	.value	0x117
	.long	0x3756
	.byte	0x82
	.uleb128 0x13
	.long	.LASF516
	.byte	0x2a
	.value	0x118
	.long	0x3f76
	.byte	0x83
	.uleb128 0x13
	.long	.LASF517
	.byte	0x2a
	.value	0x11c
	.long	0x3f86
	.byte	0x88
	.uleb128 0x13
	.long	.LASF518
	.byte	0x2a
	.value	0x125
	.long	0x3848
	.byte	0x90
	.uleb128 0x13
	.long	.LASF519
	.byte	0x2a
	.value	0x12d
	.long	0x2d27
	.byte	0x98
	.uleb128 0x13
	.long	.LASF520
	.byte	0x2a
	.value	0x12e
	.long	0x2d27
	.byte	0xa0
	.uleb128 0x13
	.long	.LASF521
	.byte	0x2a
	.value	0x12f
	.long	0x2d27
	.byte	0xa8
	.uleb128 0x13
	.long	.LASF522
	.byte	0x2a
	.value	0x130
	.long	0x2d27
	.byte	0xb0
	.uleb128 0x13
	.long	.LASF523
	.byte	0x2a
	.value	0x132
	.long	0x2ccc
	.byte	0xb8
	.uleb128 0x13
	.long	.LASF524
	.byte	0x2a
	.value	0x133
	.long	0x2d94
	.byte	0xc0
	.uleb128 0x13
	.long	.LASF525
	.byte	0x2a
	.value	0x135
	.long	0x3f8c
	.byte	0xc4
	.byte	0
	.uleb128 0x4
	.long	.LASF526
	.byte	0x2b
	.byte	0x7
	.long	0x2dc6
	.uleb128 0x16
	.byte	0x2
	.byte	0x7
	.long	.LASF527
	.uleb128 0xb
	.byte	0x8
	.long	0x2d8f
	.uleb128 0x9
	.long	0x2f58
	.uleb128 0x7
	.long	.LASF528
	.byte	0x2c
	.value	0x11c
	.long	0x2d29
	.long	0x2f79
	.uleb128 0x1
	.long	0x2d94
	.byte	0
	.uleb128 0x7
	.long	.LASF529
	.byte	0x2c
	.value	0x2d7
	.long	0x2d29
	.long	0x2f8f
	.uleb128 0x1
	.long	0x2f8f
	.byte	0
	.uleb128 0xb
	.byte	0x8
	.long	0x2dbb
	.uleb128 0x7
	.long	.LASF530
	.byte	0x2c
	.value	0x2f4
	.long	0x2fb5
	.long	0x2fb5
	.uleb128 0x1
	.long	0x2fb5
	.uleb128 0x1
	.long	0x2d94
	.uleb128 0x1
	.long	0x2f8f
	.byte	0
	.uleb128 0xb
	.byte	0x8
	.long	0x2fbb
	.uleb128 0x16
	.byte	0x4
	.byte	0x5
	.long	.LASF531
	.uleb128 0x9
	.long	0x2fbb
	.uleb128 0x7
	.long	.LASF532
	.byte	0x2c
	.value	0x2e5
	.long	0x2d29
	.long	0x2fe2
	.uleb128 0x1
	.long	0x2fbb
	.uleb128 0x1
	.long	0x2f8f
	.byte	0
	.uleb128 0x7
	.long	.LASF533
	.byte	0x2c
	.value	0x2fb
	.long	0x2d94
	.long	0x2ffd
	.uleb128 0x1
	.long	0x2ffd
	.uleb128 0x1
	.long	0x2f8f
	.byte	0
	.uleb128 0xb
	.byte	0x8
	.long	0x2fc2
	.uleb128 0x7
	.long	.LASF534
	.byte	0x2c
	.value	0x23d
	.long	0x2d94
	.long	0x301e
	.uleb128 0x1
	.long	0x2f8f
	.uleb128 0x1
	.long	0x2d94
	.byte	0
	.uleb128 0x7
	.long	.LASF535
	.byte	0x2c
	.value	0x244
	.long	0x2d94
	.long	0x303a
	.uleb128 0x1
	.long	0x2f8f
	.uleb128 0x1
	.long	0x2ffd
	.uleb128 0x34
	.byte	0
	.uleb128 0x7
	.long	.LASF536
	.byte	0x2c
	.value	0x26d
	.long	0x2d94
	.long	0x3056
	.uleb128 0x1
	.long	0x2f8f
	.uleb128 0x1
	.long	0x2ffd
	.uleb128 0x34
	.byte	0
	.uleb128 0x7
	.long	.LASF537
	.byte	0x2c
	.value	0x2d8
	.long	0x2d29
	.long	0x306c
	.uleb128 0x1
	.long	0x2f8f
	.byte	0
	.uleb128 0x4e
	.long	.LASF676
	.byte	0x2c
	.value	0x2de
	.long	0x2d29
	.uleb128 0x7
	.long	.LASF538
	.byte	0x2c
	.value	0x133
	.long	0x2ccc
	.long	0x3098
	.uleb128 0x1
	.long	0x2f58
	.uleb128 0x1
	.long	0x2ccc
	.uleb128 0x1
	.long	0x3098
	.byte	0
	.uleb128 0xb
	.byte	0x8
	.long	0x2dab
	.uleb128 0x7
	.long	.LASF539
	.byte	0x2c
	.value	0x128
	.long	0x2ccc
	.long	0x30c3
	.uleb128 0x1
	.long	0x2fb5
	.uleb128 0x1
	.long	0x2f58
	.uleb128 0x1
	.long	0x2ccc
	.uleb128 0x1
	.long	0x3098
	.byte	0
	.uleb128 0x7
	.long	.LASF540
	.byte	0x2c
	.value	0x124
	.long	0x2d94
	.long	0x30d9
	.uleb128 0x1
	.long	0x30d9
	.byte	0
	.uleb128 0xb
	.byte	0x8
	.long	0x2db6
	.uleb128 0x7
	.long	.LASF541
	.byte	0x2c
	.value	0x151
	.long	0x2ccc
	.long	0x3104
	.uleb128 0x1
	.long	0x2fb5
	.uleb128 0x1
	.long	0x3104
	.uleb128 0x1
	.long	0x2ccc
	.uleb128 0x1
	.long	0x3098
	.byte	0
	.uleb128 0xb
	.byte	0x8
	.long	0x2f58
	.uleb128 0x7
	.long	.LASF542
	.byte	0x2c
	.value	0x2e6
	.long	0x2d29
	.long	0x3125
	.uleb128 0x1
	.long	0x2fbb
	.uleb128 0x1
	.long	0x2f8f
	.byte	0
	.uleb128 0x7
	.long	.LASF543
	.byte	0x2c
	.value	0x2ec
	.long	0x2d29
	.long	0x313b
	.uleb128 0x1
	.long	0x2fbb
	.byte	0
	.uleb128 0x7
	.long	.LASF544
	.byte	0x2c
	.value	0x24e
	.long	0x2d94
	.long	0x315c
	.uleb128 0x1
	.long	0x2fb5
	.uleb128 0x1
	.long	0x2ccc
	.uleb128 0x1
	.long	0x2ffd
	.uleb128 0x34
	.byte	0
	.uleb128 0x7
	.long	.LASF545
	.byte	0x2c
	.value	0x277
	.long	0x2d94
	.long	0x3178
	.uleb128 0x1
	.long	0x2ffd
	.uleb128 0x1
	.long	0x2ffd
	.uleb128 0x34
	.byte	0
	.uleb128 0x7
	.long	.LASF546
	.byte	0x2c
	.value	0x303
	.long	0x2d29
	.long	0x3193
	.uleb128 0x1
	.long	0x2d29
	.uleb128 0x1
	.long	0x2f8f
	.byte	0
	.uleb128 0x7
	.long	.LASF547
	.byte	0x2c
	.value	0x256
	.long	0x2d94
	.long	0x31b3
	.uleb128 0x1
	.long	0x2f8f
	.uleb128 0x1
	.long	0x2ffd
	.uleb128 0x1
	.long	0x31b3
	.byte	0
	.uleb128 0xb
	.byte	0x8
	.long	0x2ce3
	.uleb128 0x7
	.long	.LASF548
	.byte	0x2c
	.value	0x2a1
	.long	0x2d94
	.long	0x31d9
	.uleb128 0x1
	.long	0x2f8f
	.uleb128 0x1
	.long	0x2ffd
	.uleb128 0x1
	.long	0x31b3
	.byte	0
	.uleb128 0x7
	.long	.LASF549
	.byte	0x2c
	.value	0x263
	.long	0x2d94
	.long	0x31fe
	.uleb128 0x1
	.long	0x2fb5
	.uleb128 0x1
	.long	0x2ccc
	.uleb128 0x1
	.long	0x2ffd
	.uleb128 0x1
	.long	0x31b3
	.byte	0
	.uleb128 0x7
	.long	.LASF550
	.byte	0x2c
	.value	0x2ad
	.long	0x2d94
	.long	0x321e
	.uleb128 0x1
	.long	0x2ffd
	.uleb128 0x1
	.long	0x2ffd
	.uleb128 0x1
	.long	0x31b3
	.byte	0
	.uleb128 0x7
	.long	.LASF551
	.byte	0x2c
	.value	0x25e
	.long	0x2d94
	.long	0x3239
	.uleb128 0x1
	.long	0x2ffd
	.uleb128 0x1
	.long	0x31b3
	.byte	0
	.uleb128 0x7
	.long	.LASF552
	.byte	0x2c
	.value	0x2a9
	.long	0x2d94
	.long	0x3254
	.uleb128 0x1
	.long	0x2ffd
	.uleb128 0x1
	.long	0x31b3
	.byte	0
	.uleb128 0x7
	.long	.LASF553
	.byte	0x2c
	.value	0x12d
	.long	0x2ccc
	.long	0x3274
	.uleb128 0x1
	.long	0x3274
	.uleb128 0x1
	.long	0x2fbb
	.uleb128 0x1
	.long	0x3098
	.byte	0
	.uleb128 0xb
	.byte	0x8
	.long	0x2d88
	.uleb128 0xd
	.long	.LASF554
	.byte	0x2c
	.byte	0x61
	.long	0x2fb5
	.long	0x3294
	.uleb128 0x1
	.long	0x2fb5
	.uleb128 0x1
	.long	0x2ffd
	.byte	0
	.uleb128 0xd
	.long	.LASF555
	.byte	0x2c
	.byte	0x6a
	.long	0x2d94
	.long	0x32ae
	.uleb128 0x1
	.long	0x2ffd
	.uleb128 0x1
	.long	0x2ffd
	.byte	0
	.uleb128 0xd
	.long	.LASF556
	.byte	0x2c
	.byte	0x83
	.long	0x2d94
	.long	0x32c8
	.uleb128 0x1
	.long	0x2ffd
	.uleb128 0x1
	.long	0x2ffd
	.byte	0
	.uleb128 0xd
	.long	.LASF557
	.byte	0x2c
	.byte	0x57
	.long	0x2fb5
	.long	0x32e2
	.uleb128 0x1
	.long	0x2fb5
	.uleb128 0x1
	.long	0x2ffd
	.byte	0
	.uleb128 0xd
	.long	.LASF558
	.byte	0x2c
	.byte	0xbb
	.long	0x2ccc
	.long	0x32fc
	.uleb128 0x1
	.long	0x2ffd
	.uleb128 0x1
	.long	0x2ffd
	.byte	0
	.uleb128 0x7
	.long	.LASF559
	.byte	0x2c
	.value	0x343
	.long	0x2ccc
	.long	0x3321
	.uleb128 0x1
	.long	0x2fb5
	.uleb128 0x1
	.long	0x2ccc
	.uleb128 0x1
	.long	0x2ffd
	.uleb128 0x1
	.long	0x3321
	.byte	0
	.uleb128 0xb
	.byte	0x8
	.long	0x33b7
	.uleb128 0x78
	.string	"tm"
	.byte	0x38
	.byte	0x2d
	.byte	0x7
	.long	0x33b7
	.uleb128 0x6
	.long	.LASF560
	.byte	0x2d
	.byte	0x9
	.long	0x2d94
	.byte	0
	.uleb128 0x6
	.long	.LASF561
	.byte	0x2d
	.byte	0xa
	.long	0x2d94
	.byte	0x4
	.uleb128 0x6
	.long	.LASF562
	.byte	0x2d
	.byte	0xb
	.long	0x2d94
	.byte	0x8
	.uleb128 0x6
	.long	.LASF563
	.byte	0x2d
	.byte	0xc
	.long	0x2d94
	.byte	0xc
	.uleb128 0x6
	.long	.LASF564
	.byte	0x2d
	.byte	0xd
	.long	0x2d94
	.byte	0x10
	.uleb128 0x6
	.long	.LASF565
	.byte	0x2d
	.byte	0xe
	.long	0x2d94
	.byte	0x14
	.uleb128 0x6
	.long	.LASF566
	.byte	0x2d
	.byte	0xf
	.long	0x2d94
	.byte	0x18
	.uleb128 0x6
	.long	.LASF567
	.byte	0x2d
	.byte	0x10
	.long	0x2d94
	.byte	0x1c
	.uleb128 0x6
	.long	.LASF568
	.byte	0x2d
	.byte	0x11
	.long	0x2d94
	.byte	0x20
	.uleb128 0x6
	.long	.LASF569
	.byte	0x2d
	.byte	0x14
	.long	0x34ee
	.byte	0x28
	.uleb128 0x6
	.long	.LASF570
	.byte	0x2d
	.byte	0x15
	.long	0x2f58
	.byte	0x30
	.byte	0
	.uleb128 0x9
	.long	0x3327
	.uleb128 0xd
	.long	.LASF571
	.byte	0x2c
	.byte	0xde
	.long	0x2ccc
	.long	0x33d1
	.uleb128 0x1
	.long	0x2ffd
	.byte	0
	.uleb128 0xd
	.long	.LASF572
	.byte	0x2c
	.byte	0x65
	.long	0x2fb5
	.long	0x33f0
	.uleb128 0x1
	.long	0x2fb5
	.uleb128 0x1
	.long	0x2ffd
	.uleb128 0x1
	.long	0x2ccc
	.byte	0
	.uleb128 0xd
	.long	.LASF573
	.byte	0x2c
	.byte	0x6d
	.long	0x2d94
	.long	0x340f
	.uleb128 0x1
	.long	0x2ffd
	.uleb128 0x1
	.long	0x2ffd
	.uleb128 0x1
	.long	0x2ccc
	.byte	0
	.uleb128 0xd
	.long	.LASF574
	.byte	0x2c
	.byte	0x5c
	.long	0x2fb5
	.long	0x342e
	.uleb128 0x1
	.long	0x2fb5
	.uleb128 0x1
	.long	0x2ffd
	.uleb128 0x1
	.long	0x2ccc
	.byte	0
	.uleb128 0x7
	.long	.LASF575
	.byte	0x2c
	.value	0x157
	.long	0x2ccc
	.long	0x3453
	.uleb128 0x1
	.long	0x3274
	.uleb128 0x1
	.long	0x3453
	.uleb128 0x1
	.long	0x2ccc
	.uleb128 0x1
	.long	0x3098
	.byte	0
	.uleb128 0xb
	.byte	0x8
	.long	0x2ffd
	.uleb128 0xd
	.long	.LASF576
	.byte	0x2c
	.byte	0xbf
	.long	0x2ccc
	.long	0x3473
	.uleb128 0x1
	.long	0x2ffd
	.uleb128 0x1
	.long	0x2ffd
	.byte	0
	.uleb128 0x7
	.long	.LASF577
	.byte	0x2c
	.value	0x179
	.long	0x2cbe
	.long	0x348e
	.uleb128 0x1
	.long	0x2ffd
	.uleb128 0x1
	.long	0x348e
	.byte	0
	.uleb128 0xb
	.byte	0x8
	.long	0x2fb5
	.uleb128 0x7
	.long	.LASF578
	.byte	0x2c
	.value	0x17e
	.long	0x2cb7
	.long	0x34af
	.uleb128 0x1
	.long	0x2ffd
	.uleb128 0x1
	.long	0x348e
	.byte	0
	.uleb128 0xd
	.long	.LASF579
	.byte	0x2c
	.byte	0xd9
	.long	0x2fb5
	.long	0x34ce
	.uleb128 0x1
	.long	0x2fb5
	.uleb128 0x1
	.long	0x2ffd
	.uleb128 0x1
	.long	0x348e
	.byte	0
	.uleb128 0x7
	.long	.LASF580
	.byte	0x2c
	.value	0x1ac
	.long	0x34ee
	.long	0x34ee
	.uleb128 0x1
	.long	0x2ffd
	.uleb128 0x1
	.long	0x348e
	.uleb128 0x1
	.long	0x2d94
	.byte	0
	.uleb128 0x16
	.byte	0x8
	.byte	0x5
	.long	.LASF581
	.uleb128 0x9
	.long	0x34ee
	.uleb128 0x7
	.long	.LASF582
	.byte	0x2c
	.value	0x1b1
	.long	0x2cd7
	.long	0x351a
	.uleb128 0x1
	.long	0x2ffd
	.uleb128 0x1
	.long	0x348e
	.uleb128 0x1
	.long	0x2d94
	.byte	0
	.uleb128 0xd
	.long	.LASF583
	.byte	0x2c
	.byte	0x87
	.long	0x2ccc
	.long	0x3539
	.uleb128 0x1
	.long	0x2fb5
	.uleb128 0x1
	.long	0x2ffd
	.uleb128 0x1
	.long	0x2ccc
	.byte	0
	.uleb128 0x7
	.long	.LASF584
	.byte	0x2c
	.value	0x120
	.long	0x2d94
	.long	0x354f
	.uleb128 0x1
	.long	0x2d29
	.byte	0
	.uleb128 0x7
	.long	.LASF585
	.byte	0x2c
	.value	0x102
	.long	0x2d94
	.long	0x356f
	.uleb128 0x1
	.long	0x2ffd
	.uleb128 0x1
	.long	0x2ffd
	.uleb128 0x1
	.long	0x2ccc
	.byte	0
	.uleb128 0x7
	.long	.LASF586
	.byte	0x2c
	.value	0x106
	.long	0x2fb5
	.long	0x358f
	.uleb128 0x1
	.long	0x2fb5
	.uleb128 0x1
	.long	0x2ffd
	.uleb128 0x1
	.long	0x2ccc
	.byte	0
	.uleb128 0x7
	.long	.LASF587
	.byte	0x2c
	.value	0x10b
	.long	0x2fb5
	.long	0x35af
	.uleb128 0x1
	.long	0x2fb5
	.uleb128 0x1
	.long	0x2ffd
	.uleb128 0x1
	.long	0x2ccc
	.byte	0
	.uleb128 0x7
	.long	.LASF588
	.byte	0x2c
	.value	0x10f
	.long	0x2fb5
	.long	0x35cf
	.uleb128 0x1
	.long	0x2fb5
	.uleb128 0x1
	.long	0x2fbb
	.uleb128 0x1
	.long	0x2ccc
	.byte	0
	.uleb128 0x7
	.long	.LASF589
	.byte	0x2c
	.value	0x24b
	.long	0x2d94
	.long	0x35e6
	.uleb128 0x1
	.long	0x2ffd
	.uleb128 0x34
	.byte	0
	.uleb128 0x7
	.long	.LASF590
	.byte	0x2c
	.value	0x274
	.long	0x2d94
	.long	0x35fd
	.uleb128 0x1
	.long	0x2ffd
	.uleb128 0x34
	.byte	0
	.uleb128 0x29
	.long	.LASF591
	.byte	0x2c
	.byte	0xa1
	.long	.LASF591
	.long	0x2ffd
	.long	0x361b
	.uleb128 0x1
	.long	0x2ffd
	.uleb128 0x1
	.long	0x2fbb
	.byte	0
	.uleb128 0x29
	.long	.LASF592
	.byte	0x2c
	.byte	0xc5
	.long	.LASF592
	.long	0x2ffd
	.long	0x3639
	.uleb128 0x1
	.long	0x2ffd
	.uleb128 0x1
	.long	0x2ffd
	.byte	0
	.uleb128 0x29
	.long	.LASF593
	.byte	0x2c
	.byte	0xab
	.long	.LASF593
	.long	0x2ffd
	.long	0x3657
	.uleb128 0x1
	.long	0x2ffd
	.uleb128 0x1
	.long	0x2fbb
	.byte	0
	.uleb128 0x29
	.long	.LASF594
	.byte	0x2c
	.byte	0xd0
	.long	.LASF594
	.long	0x2ffd
	.long	0x3675
	.uleb128 0x1
	.long	0x2ffd
	.uleb128 0x1
	.long	0x2ffd
	.byte	0
	.uleb128 0x29
	.long	.LASF595
	.byte	0x2c
	.byte	0xf9
	.long	.LASF595
	.long	0x2ffd
	.long	0x3698
	.uleb128 0x1
	.long	0x2ffd
	.uleb128 0x1
	.long	0x2fbb
	.uleb128 0x1
	.long	0x2ccc
	.byte	0
	.uleb128 0x7
	.long	.LASF596
	.byte	0x2c
	.value	0x180
	.long	0x2cc5
	.long	0x36b3
	.uleb128 0x1
	.long	0x2ffd
	.uleb128 0x1
	.long	0x348e
	.byte	0
	.uleb128 0x7
	.long	.LASF597
	.byte	0x2c
	.value	0x1b9
	.long	0x36d3
	.long	0x36d3
	.uleb128 0x1
	.long	0x2ffd
	.uleb128 0x1
	.long	0x348e
	.uleb128 0x1
	.long	0x2d94
	.byte	0
	.uleb128 0x16
	.byte	0x8
	.byte	0x5
	.long	.LASF598
	.uleb128 0x7
	.long	.LASF599
	.byte	0x2c
	.value	0x1c0
	.long	0x36fa
	.long	0x36fa
	.uleb128 0x1
	.long	0x2ffd
	.uleb128 0x1
	.long	0x348e
	.uleb128 0x1
	.long	0x2d94
	.byte	0
	.uleb128 0x16
	.byte	0x8
	.byte	0x7
	.long	.LASF600
	.uleb128 0x79
	.long	.LASF856
	.uleb128 0xb
	.byte	0x8
	.long	0x228
	.uleb128 0xb
	.byte	0x8
	.long	0x26a
	.uleb128 0xb
	.byte	0x8
	.long	0x423
	.uleb128 0x10
	.byte	0x8
	.long	0x423
	.uleb128 0x31
	.byte	0x8
	.long	0x26a
	.uleb128 0x10
	.byte	0x8
	.long	0x26a
	.uleb128 0x16
	.byte	0x1
	.byte	0x2
	.long	.LASF601
	.uleb128 0x9
	.long	0x372a
	.uleb128 0xb
	.byte	0x8
	.long	0x45c
	.uleb128 0xb
	.byte	0x8
	.long	0x4d2
	.uleb128 0xb
	.byte	0x8
	.long	0x548
	.uleb128 0x16
	.byte	0x1
	.byte	0x8
	.long	.LASF602
	.uleb128 0x16
	.byte	0x10
	.byte	0x7
	.long	.LASF603
	.uleb128 0x16
	.byte	0x1
	.byte	0x6
	.long	.LASF604
	.uleb128 0x16
	.byte	0x2
	.byte	0x5
	.long	.LASF605
	.uleb128 0x9
	.long	0x375d
	.uleb128 0x16
	.byte	0x10
	.byte	0x5
	.long	.LASF606
	.uleb128 0xb
	.byte	0x8
	.long	0x5e6
	.uleb128 0x7a
	.long	0x60e
	.uleb128 0x49
	.long	.LASF607
	.byte	0x14
	.byte	0x38
	.long	0x378e
	.uleb128 0x48
	.byte	0x14
	.byte	0x3a
	.long	0x61b
	.byte	0
	.uleb128 0x10
	.byte	0x8
	.long	0x62f
	.uleb128 0x10
	.byte	0x8
	.long	0x63b
	.uleb128 0xb
	.byte	0x8
	.long	0x63b
	.uleb128 0xb
	.byte	0x8
	.long	0x62f
	.uleb128 0x10
	.byte	0x8
	.long	0x64c
	.uleb128 0x10
	.byte	0x8
	.long	0x808
	.uleb128 0x10
	.byte	0x8
	.long	0x814
	.uleb128 0xb
	.byte	0x8
	.long	0x814
	.uleb128 0xb
	.byte	0x8
	.long	0x808
	.uleb128 0x10
	.byte	0x8
	.long	0x825
	.uleb128 0x4
	.long	.LASF608
	.byte	0x2e
	.byte	0x24
	.long	0x3756
	.uleb128 0x4
	.long	.LASF609
	.byte	0x2e
	.byte	0x25
	.long	0x3748
	.uleb128 0x4
	.long	.LASF610
	.byte	0x2e
	.byte	0x26
	.long	0x375d
	.uleb128 0x4
	.long	.LASF611
	.byte	0x2e
	.byte	0x27
	.long	0x2f51
	.uleb128 0x4
	.long	.LASF612
	.byte	0x2e
	.byte	0x28
	.long	0x2d94
	.uleb128 0x9
	.long	0x37f6
	.uleb128 0x4
	.long	.LASF613
	.byte	0x2e
	.byte	0x29
	.long	0x2d20
	.uleb128 0x4
	.long	.LASF614
	.byte	0x2e
	.byte	0x2b
	.long	0x34ee
	.uleb128 0x4
	.long	.LASF615
	.byte	0x2e
	.byte	0x2c
	.long	0x2cd7
	.uleb128 0x4
	.long	.LASF616
	.byte	0x2e
	.byte	0x3d
	.long	0x34ee
	.uleb128 0x4
	.long	.LASF617
	.byte	0x2e
	.byte	0x3e
	.long	0x2cd7
	.uleb128 0x4
	.long	.LASF618
	.byte	0x2e
	.byte	0x8c
	.long	0x34ee
	.uleb128 0x4
	.long	.LASF619
	.byte	0x2e
	.byte	0x8d
	.long	0x34ee
	.uleb128 0x4
	.long	.LASF620
	.byte	0x2f
	.byte	0x18
	.long	0x37ca
	.uleb128 0x4
	.long	.LASF621
	.byte	0x2f
	.byte	0x19
	.long	0x37e0
	.uleb128 0x9
	.long	0x385e
	.uleb128 0x4
	.long	.LASF622
	.byte	0x2f
	.byte	0x1a
	.long	0x37f6
	.uleb128 0x4
	.long	.LASF623
	.byte	0x2f
	.byte	0x1b
	.long	0x3811
	.uleb128 0x4
	.long	.LASF624
	.byte	0x30
	.byte	0x18
	.long	0x37d5
	.uleb128 0x4
	.long	.LASF625
	.byte	0x30
	.byte	0x19
	.long	0x37eb
	.uleb128 0x4
	.long	.LASF626
	.byte	0x30
	.byte	0x1a
	.long	0x3806
	.uleb128 0x4
	.long	.LASF627
	.byte	0x30
	.byte	0x1b
	.long	0x381c
	.uleb128 0x4
	.long	.LASF628
	.byte	0x31
	.byte	0x2b
	.long	0x3756
	.uleb128 0x4
	.long	.LASF629
	.byte	0x31
	.byte	0x2c
	.long	0x375d
	.uleb128 0x4
	.long	.LASF630
	.byte	0x31
	.byte	0x2d
	.long	0x2d94
	.uleb128 0x4
	.long	.LASF631
	.byte	0x31
	.byte	0x2f
	.long	0x34ee
	.uleb128 0x4
	.long	.LASF632
	.byte	0x31
	.byte	0x36
	.long	0x3748
	.uleb128 0x4
	.long	.LASF633
	.byte	0x31
	.byte	0x37
	.long	0x2f51
	.uleb128 0x4
	.long	.LASF634
	.byte	0x31
	.byte	0x38
	.long	0x2d20
	.uleb128 0x4
	.long	.LASF635
	.byte	0x31
	.byte	0x3a
	.long	0x2cd7
	.uleb128 0x4
	.long	.LASF636
	.byte	0x31
	.byte	0x44
	.long	0x3756
	.uleb128 0x4
	.long	.LASF637
	.byte	0x31
	.byte	0x46
	.long	0x34ee
	.uleb128 0x4
	.long	.LASF638
	.byte	0x31
	.byte	0x47
	.long	0x34ee
	.uleb128 0x4
	.long	.LASF639
	.byte	0x31
	.byte	0x48
	.long	0x34ee
	.uleb128 0x4
	.long	.LASF640
	.byte	0x31
	.byte	0x51
	.long	0x3748
	.uleb128 0x4
	.long	.LASF641
	.byte	0x31
	.byte	0x53
	.long	0x2cd7
	.uleb128 0x4
	.long	.LASF642
	.byte	0x31
	.byte	0x54
	.long	0x2cd7
	.uleb128 0x4
	.long	.LASF643
	.byte	0x31
	.byte	0x55
	.long	0x2cd7
	.uleb128 0x4
	.long	.LASF644
	.byte	0x31
	.byte	0x61
	.long	0x34ee
	.uleb128 0x4
	.long	.LASF645
	.byte	0x31
	.byte	0x64
	.long	0x2cd7
	.uleb128 0x4
	.long	.LASF646
	.byte	0x31
	.byte	0x6f
	.long	0x3827
	.uleb128 0x4
	.long	.LASF647
	.byte	0x31
	.byte	0x70
	.long	0x3832
	.uleb128 0x16
	.byte	0x2
	.byte	0x10
	.long	.LASF648
	.uleb128 0x16
	.byte	0x4
	.byte	0x10
	.long	.LASF649
	.uleb128 0x11
	.long	.LASF650
	.byte	0x60
	.byte	0x32
	.byte	0x33
	.long	0x3ac7
	.uleb128 0x6
	.long	.LASF651
	.byte	0x32
	.byte	0x37
	.long	0x3274
	.byte	0
	.uleb128 0x6
	.long	.LASF652
	.byte	0x32
	.byte	0x38
	.long	0x3274
	.byte	0x8
	.uleb128 0x6
	.long	.LASF653
	.byte	0x32
	.byte	0x3e
	.long	0x3274
	.byte	0x10
	.uleb128 0x6
	.long	.LASF654
	.byte	0x32
	.byte	0x44
	.long	0x3274
	.byte	0x18
	.uleb128 0x6
	.long	.LASF655
	.byte	0x32
	.byte	0x45
	.long	0x3274
	.byte	0x20
	.uleb128 0x6
	.long	.LASF656
	.byte	0x32
	.byte	0x46
	.long	0x3274
	.byte	0x28
	.uleb128 0x6
	.long	.LASF657
	.byte	0x32
	.byte	0x47
	.long	0x3274
	.byte	0x30
	.uleb128 0x6
	.long	.LASF658
	.byte	0x32
	.byte	0x48
	.long	0x3274
	.byte	0x38
	.uleb128 0x6
	.long	.LASF659
	.byte	0x32
	.byte	0x49
	.long	0x3274
	.byte	0x40
	.uleb128 0x6
	.long	.LASF660
	.byte	0x32
	.byte	0x4a
	.long	0x3274
	.byte	0x48
	.uleb128 0x6
	.long	.LASF661
	.byte	0x32
	.byte	0x4b
	.long	0x2d88
	.byte	0x50
	.uleb128 0x6
	.long	.LASF662
	.byte	0x32
	.byte	0x4c
	.long	0x2d88
	.byte	0x51
	.uleb128 0x6
	.long	.LASF663
	.byte	0x32
	.byte	0x4e
	.long	0x2d88
	.byte	0x52
	.uleb128 0x6
	.long	.LASF664
	.byte	0x32
	.byte	0x50
	.long	0x2d88
	.byte	0x53
	.uleb128 0x6
	.long	.LASF665
	.byte	0x32
	.byte	0x52
	.long	0x2d88
	.byte	0x54
	.uleb128 0x6
	.long	.LASF666
	.byte	0x32
	.byte	0x54
	.long	0x2d88
	.byte	0x55
	.uleb128 0x6
	.long	.LASF667
	.byte	0x32
	.byte	0x5b
	.long	0x2d88
	.byte	0x56
	.uleb128 0x6
	.long	.LASF668
	.byte	0x32
	.byte	0x5c
	.long	0x2d88
	.byte	0x57
	.uleb128 0x6
	.long	.LASF669
	.byte	0x32
	.byte	0x5f
	.long	0x2d88
	.byte	0x58
	.uleb128 0x6
	.long	.LASF670
	.byte	0x32
	.byte	0x61
	.long	0x2d88
	.byte	0x59
	.uleb128 0x6
	.long	.LASF671
	.byte	0x32
	.byte	0x63
	.long	0x2d88
	.byte	0x5a
	.uleb128 0x6
	.long	.LASF672
	.byte	0x32
	.byte	0x65
	.long	0x2d88
	.byte	0x5b
	.uleb128 0x6
	.long	.LASF673
	.byte	0x32
	.byte	0x6c
	.long	0x2d88
	.byte	0x5c
	.uleb128 0x6
	.long	.LASF674
	.byte	0x32
	.byte	0x6d
	.long	0x2d88
	.byte	0x5d
	.byte	0
	.uleb128 0xd
	.long	.LASF675
	.byte	0x32
	.byte	0x7a
	.long	0x3274
	.long	0x3ae1
	.uleb128 0x1
	.long	0x2d94
	.uleb128 0x1
	.long	0x2f58
	.byte	0
	.uleb128 0x60
	.long	.LASF677
	.byte	0x32
	.byte	0x7d
	.long	0x3aec
	.uleb128 0xb
	.byte	0x8
	.long	0x399a
	.uleb128 0x33
	.long	0x3274
	.long	0x3b02
	.uleb128 0x3d
	.long	0x2cd7
	.byte	0x1
	.byte	0
	.uleb128 0x1d
	.long	.LASF678
	.byte	0x33
	.byte	0x9f
	.long	0x3af2
	.uleb128 0x1d
	.long	.LASF679
	.byte	0x33
	.byte	0xa0
	.long	0x2d94
	.uleb128 0x1d
	.long	.LASF680
	.byte	0x33
	.byte	0xa1
	.long	0x34ee
	.uleb128 0x1d
	.long	.LASF681
	.byte	0x33
	.byte	0xa6
	.long	0x3af2
	.uleb128 0x1d
	.long	.LASF682
	.byte	0x33
	.byte	0xae
	.long	0x2d94
	.uleb128 0x1d
	.long	.LASF683
	.byte	0x33
	.byte	0xaf
	.long	0x34ee
	.uleb128 0x45
	.long	.LASF684
	.byte	0x33
	.value	0x118
	.long	0x2d94
	.uleb128 0x4
	.long	.LASF685
	.byte	0x34
	.byte	0x20
	.long	0x2d94
	.uleb128 0xb
	.byte	0x8
	.long	0x3b61
	.uleb128 0x7b
	.uleb128 0x3c
	.byte	0x8
	.byte	0x35
	.byte	0x3b
	.long	.LASF687
	.long	0x3b87
	.uleb128 0x6
	.long	.LASF688
	.byte	0x35
	.byte	0x3c
	.long	0x2d94
	.byte	0
	.uleb128 0x4f
	.string	"rem"
	.byte	0x35
	.byte	0x3d
	.long	0x2d94
	.byte	0x4
	.byte	0
	.uleb128 0x4
	.long	.LASF689
	.byte	0x35
	.byte	0x3e
	.long	0x3b62
	.uleb128 0x3c
	.byte	0x10
	.byte	0x35
	.byte	0x43
	.long	.LASF690
	.long	0x3bb7
	.uleb128 0x6
	.long	.LASF688
	.byte	0x35
	.byte	0x44
	.long	0x34ee
	.byte	0
	.uleb128 0x4f
	.string	"rem"
	.byte	0x35
	.byte	0x45
	.long	0x34ee
	.byte	0x8
	.byte	0
	.uleb128 0x4
	.long	.LASF691
	.byte	0x35
	.byte	0x46
	.long	0x3b92
	.uleb128 0x3c
	.byte	0x10
	.byte	0x35
	.byte	0x4d
	.long	.LASF692
	.long	0x3be7
	.uleb128 0x6
	.long	.LASF688
	.byte	0x35
	.byte	0x4e
	.long	0x36d3
	.byte	0
	.uleb128 0x4f
	.string	"rem"
	.byte	0x35
	.byte	0x4f
	.long	0x36d3
	.byte	0x8
	.byte	0
	.uleb128 0x4
	.long	.LASF693
	.byte	0x35
	.byte	0x50
	.long	0x3bc2
	.uleb128 0x1f
	.long	.LASF694
	.byte	0x35
	.value	0x325
	.long	0x3bfe
	.uleb128 0xb
	.byte	0x8
	.long	0x3c04
	.uleb128 0x7c
	.long	0x2d94
	.long	0x3c18
	.uleb128 0x1
	.long	0x3b5b
	.uleb128 0x1
	.long	0x3b5b
	.byte	0
	.uleb128 0x7
	.long	.LASF695
	.byte	0x35
	.value	0x250
	.long	0x2d94
	.long	0x3c2e
	.uleb128 0x1
	.long	0x3c2e
	.byte	0
	.uleb128 0xb
	.byte	0x8
	.long	0x3c34
	.uleb128 0x7d
	.uleb128 0xc
	.long	.LASF696
	.byte	0x35
	.value	0x255
	.long	.LASF696
	.long	0x2d94
	.long	0x3c4f
	.uleb128 0x1
	.long	0x3c2e
	.byte	0
	.uleb128 0xd
	.long	.LASF697
	.byte	0x35
	.byte	0x65
	.long	0x2cbe
	.long	0x3c64
	.uleb128 0x1
	.long	0x2f58
	.byte	0
	.uleb128 0xd
	.long	.LASF698
	.byte	0x35
	.byte	0x68
	.long	0x2d94
	.long	0x3c79
	.uleb128 0x1
	.long	0x2f58
	.byte	0
	.uleb128 0xd
	.long	.LASF699
	.byte	0x35
	.byte	0x6b
	.long	0x34ee
	.long	0x3c8e
	.uleb128 0x1
	.long	0x2f58
	.byte	0
	.uleb128 0x7
	.long	.LASF700
	.byte	0x35
	.value	0x331
	.long	0x2d27
	.long	0x3cb8
	.uleb128 0x1
	.long	0x3b5b
	.uleb128 0x1
	.long	0x3b5b
	.uleb128 0x1
	.long	0x2ccc
	.uleb128 0x1
	.long	0x2ccc
	.uleb128 0x1
	.long	0x3bf2
	.byte	0
	.uleb128 0x7e
	.string	"div"
	.byte	0x35
	.value	0x351
	.long	0x3b87
	.long	0x3cd3
	.uleb128 0x1
	.long	0x2d94
	.uleb128 0x1
	.long	0x2d94
	.byte	0
	.uleb128 0x7
	.long	.LASF701
	.byte	0x35
	.value	0x277
	.long	0x3274
	.long	0x3ce9
	.uleb128 0x1
	.long	0x2f58
	.byte	0
	.uleb128 0x7
	.long	.LASF702
	.byte	0x35
	.value	0x353
	.long	0x3bb7
	.long	0x3d04
	.uleb128 0x1
	.long	0x34ee
	.uleb128 0x1
	.long	0x34ee
	.byte	0
	.uleb128 0x7
	.long	.LASF703
	.byte	0x35
	.value	0x397
	.long	0x2d94
	.long	0x3d1f
	.uleb128 0x1
	.long	0x2f58
	.uleb128 0x1
	.long	0x2ccc
	.byte	0
	.uleb128 0x7
	.long	.LASF704
	.byte	0x35
	.value	0x3a2
	.long	0x2ccc
	.long	0x3d3f
	.uleb128 0x1
	.long	0x2fb5
	.uleb128 0x1
	.long	0x2f58
	.uleb128 0x1
	.long	0x2ccc
	.byte	0
	.uleb128 0x7
	.long	.LASF705
	.byte	0x35
	.value	0x39a
	.long	0x2d94
	.long	0x3d5f
	.uleb128 0x1
	.long	0x2fb5
	.uleb128 0x1
	.long	0x2f58
	.uleb128 0x1
	.long	0x2ccc
	.byte	0
	.uleb128 0x35
	.long	.LASF706
	.byte	0x35
	.value	0x33b
	.long	0x3d80
	.uleb128 0x1
	.long	0x2d27
	.uleb128 0x1
	.long	0x2ccc
	.uleb128 0x1
	.long	0x2ccc
	.uleb128 0x1
	.long	0x3bf2
	.byte	0
	.uleb128 0x7f
	.long	.LASF707
	.byte	0x35
	.value	0x26c
	.long	0x3d92
	.uleb128 0x1
	.long	0x2d94
	.byte	0
	.uleb128 0x4e
	.long	.LASF708
	.byte	0x35
	.value	0x1c5
	.long	0x2d94
	.uleb128 0x35
	.long	.LASF709
	.byte	0x35
	.value	0x1c7
	.long	0x3db0
	.uleb128 0x1
	.long	0x2d20
	.byte	0
	.uleb128 0xd
	.long	.LASF710
	.byte	0x35
	.byte	0x75
	.long	0x2cbe
	.long	0x3dca
	.uleb128 0x1
	.long	0x2f58
	.uleb128 0x1
	.long	0x3dca
	.byte	0
	.uleb128 0xb
	.byte	0x8
	.long	0x3274
	.uleb128 0xd
	.long	.LASF711
	.byte	0x35
	.byte	0xb0
	.long	0x34ee
	.long	0x3def
	.uleb128 0x1
	.long	0x2f58
	.uleb128 0x1
	.long	0x3dca
	.uleb128 0x1
	.long	0x2d94
	.byte	0
	.uleb128 0xd
	.long	.LASF712
	.byte	0x35
	.byte	0xb4
	.long	0x2cd7
	.long	0x3e0e
	.uleb128 0x1
	.long	0x2f58
	.uleb128 0x1
	.long	0x3dca
	.uleb128 0x1
	.long	0x2d94
	.byte	0
	.uleb128 0x7
	.long	.LASF713
	.byte	0x35
	.value	0x30d
	.long	0x2d94
	.long	0x3e24
	.uleb128 0x1
	.long	0x2f58
	.byte	0
	.uleb128 0x7
	.long	.LASF714
	.byte	0x35
	.value	0x3a5
	.long	0x2ccc
	.long	0x3e44
	.uleb128 0x1
	.long	0x3274
	.uleb128 0x1
	.long	0x2ffd
	.uleb128 0x1
	.long	0x2ccc
	.byte	0
	.uleb128 0x7
	.long	.LASF715
	.byte	0x35
	.value	0x39e
	.long	0x2d94
	.long	0x3e5f
	.uleb128 0x1
	.long	0x3274
	.uleb128 0x1
	.long	0x2fbb
	.byte	0
	.uleb128 0x7
	.long	.LASF716
	.byte	0x35
	.value	0x357
	.long	0x3be7
	.long	0x3e7a
	.uleb128 0x1
	.long	0x36d3
	.uleb128 0x1
	.long	0x36d3
	.byte	0
	.uleb128 0xd
	.long	.LASF717
	.byte	0x35
	.byte	0x70
	.long	0x36d3
	.long	0x3e8f
	.uleb128 0x1
	.long	0x2f58
	.byte	0
	.uleb128 0xd
	.long	.LASF718
	.byte	0x35
	.byte	0xc8
	.long	0x36d3
	.long	0x3eae
	.uleb128 0x1
	.long	0x2f58
	.uleb128 0x1
	.long	0x3dca
	.uleb128 0x1
	.long	0x2d94
	.byte	0
	.uleb128 0xd
	.long	.LASF719
	.byte	0x35
	.byte	0xcd
	.long	0x36fa
	.long	0x3ecd
	.uleb128 0x1
	.long	0x2f58
	.uleb128 0x1
	.long	0x3dca
	.uleb128 0x1
	.long	0x2d94
	.byte	0
	.uleb128 0xd
	.long	.LASF720
	.byte	0x35
	.byte	0x7b
	.long	0x2cb7
	.long	0x3ee7
	.uleb128 0x1
	.long	0x2f58
	.uleb128 0x1
	.long	0x3dca
	.byte	0
	.uleb128 0xd
	.long	.LASF721
	.byte	0x35
	.byte	0x7e
	.long	0x2cc5
	.long	0x3f01
	.uleb128 0x1
	.long	0x2f58
	.uleb128 0x1
	.long	0x3dca
	.byte	0
	.uleb128 0x3c
	.byte	0x10
	.byte	0x36
	.byte	0x1b
	.long	.LASF722
	.long	0x3f26
	.uleb128 0x6
	.long	.LASF723
	.byte	0x36
	.byte	0x1c
	.long	0x383d
	.byte	0
	.uleb128 0x6
	.long	.LASF724
	.byte	0x36
	.byte	0x1d
	.long	0x2da0
	.byte	0x8
	.byte	0
	.uleb128 0x4
	.long	.LASF725
	.byte	0x36
	.byte	0x1e
	.long	0x3f01
	.uleb128 0x80
	.long	.LASF857
	.byte	0x2a
	.byte	0x9a
	.uleb128 0x11
	.long	.LASF726
	.byte	0x18
	.byte	0x2a
	.byte	0xa0
	.long	0x3f6a
	.uleb128 0x6
	.long	.LASF727
	.byte	0x2a
	.byte	0xa1
	.long	0x3f6a
	.byte	0
	.uleb128 0x6
	.long	.LASF728
	.byte	0x2a
	.byte	0xa2
	.long	0x3f70
	.byte	0x8
	.uleb128 0x6
	.long	.LASF729
	.byte	0x2a
	.byte	0xa6
	.long	0x2d94
	.byte	0x10
	.byte	0
	.uleb128 0xb
	.byte	0x8
	.long	0x3f39
	.uleb128 0xb
	.byte	0x8
	.long	0x2dc6
	.uleb128 0x33
	.long	0x2d88
	.long	0x3f86
	.uleb128 0x3d
	.long	0x2cd7
	.byte	0
	.byte	0
	.uleb128 0xb
	.byte	0x8
	.long	0x3f31
	.uleb128 0x33
	.long	0x2d88
	.long	0x3f9c
	.uleb128 0x3d
	.long	0x2cd7
	.byte	0x13
	.byte	0
	.uleb128 0x81
	.long	.LASF858
	.uleb128 0x45
	.long	.LASF730
	.byte	0x2a
	.value	0x13f
	.long	0x3f9c
	.uleb128 0x45
	.long	.LASF731
	.byte	0x2a
	.value	0x140
	.long	0x3f9c
	.uleb128 0x45
	.long	.LASF732
	.byte	0x2a
	.value	0x141
	.long	0x3f9c
	.uleb128 0x4
	.long	.LASF733
	.byte	0x37
	.byte	0x4e
	.long	0x3f26
	.uleb128 0x9
	.long	0x3fc6
	.uleb128 0x1d
	.long	.LASF734
	.byte	0x37
	.byte	0x87
	.long	0x3f70
	.uleb128 0x1d
	.long	.LASF735
	.byte	0x37
	.byte	0x88
	.long	0x3f70
	.uleb128 0x1d
	.long	.LASF736
	.byte	0x37
	.byte	0x89
	.long	0x3f70
	.uleb128 0x1d
	.long	.LASF737
	.byte	0x38
	.byte	0x1a
	.long	0x2d94
	.uleb128 0x33
	.long	0x2f5e
	.long	0x400e
	.uleb128 0x82
	.byte	0
	.uleb128 0x1d
	.long	.LASF738
	.byte	0x38
	.byte	0x1b
	.long	0x4002
	.uleb128 0x1d
	.long	.LASF739
	.byte	0x38
	.byte	0x1e
	.long	0x2d94
	.uleb128 0x1d
	.long	.LASF740
	.byte	0x38
	.byte	0x1f
	.long	0x4002
	.uleb128 0x35
	.long	.LASF741
	.byte	0x37
	.value	0x2f5
	.long	0x4041
	.uleb128 0x1
	.long	0x4041
	.byte	0
	.uleb128 0xb
	.byte	0x8
	.long	0x2f46
	.uleb128 0xd
	.long	.LASF742
	.byte	0x37
	.byte	0xc7
	.long	0x2d94
	.long	0x405c
	.uleb128 0x1
	.long	0x4041
	.byte	0
	.uleb128 0x7
	.long	.LASF743
	.byte	0x37
	.value	0x2f7
	.long	0x2d94
	.long	0x4072
	.uleb128 0x1
	.long	0x4041
	.byte	0
	.uleb128 0x7
	.long	.LASF744
	.byte	0x37
	.value	0x2f9
	.long	0x2d94
	.long	0x4088
	.uleb128 0x1
	.long	0x4041
	.byte	0
	.uleb128 0xd
	.long	.LASF745
	.byte	0x37
	.byte	0xcc
	.long	0x2d94
	.long	0x409d
	.uleb128 0x1
	.long	0x4041
	.byte	0
	.uleb128 0x7
	.long	.LASF746
	.byte	0x37
	.value	0x1dd
	.long	0x2d94
	.long	0x40b3
	.uleb128 0x1
	.long	0x4041
	.byte	0
	.uleb128 0x7
	.long	.LASF747
	.byte	0x37
	.value	0x2db
	.long	0x2d94
	.long	0x40ce
	.uleb128 0x1
	.long	0x4041
	.uleb128 0x1
	.long	0x40ce
	.byte	0
	.uleb128 0xb
	.byte	0x8
	.long	0x3fc6
	.uleb128 0x7
	.long	.LASF748
	.byte	0x37
	.value	0x234
	.long	0x3274
	.long	0x40f4
	.uleb128 0x1
	.long	0x3274
	.uleb128 0x1
	.long	0x2d94
	.uleb128 0x1
	.long	0x4041
	.byte	0
	.uleb128 0xd
	.long	.LASF749
	.byte	0x37
	.byte	0xe8
	.long	0x4041
	.long	0x410e
	.uleb128 0x1
	.long	0x2f58
	.uleb128 0x1
	.long	0x2f58
	.byte	0
	.uleb128 0x7
	.long	.LASF750
	.byte	0x37
	.value	0x286
	.long	0x2ccc
	.long	0x4133
	.uleb128 0x1
	.long	0x2d27
	.uleb128 0x1
	.long	0x2ccc
	.uleb128 0x1
	.long	0x2ccc
	.uleb128 0x1
	.long	0x4041
	.byte	0
	.uleb128 0xd
	.long	.LASF751
	.byte	0x37
	.byte	0xee
	.long	0x4041
	.long	0x4152
	.uleb128 0x1
	.long	0x2f58
	.uleb128 0x1
	.long	0x2f58
	.uleb128 0x1
	.long	0x4041
	.byte	0
	.uleb128 0x7
	.long	.LASF752
	.byte	0x37
	.value	0x2ac
	.long	0x2d94
	.long	0x4172
	.uleb128 0x1
	.long	0x4041
	.uleb128 0x1
	.long	0x34ee
	.uleb128 0x1
	.long	0x2d94
	.byte	0
	.uleb128 0x7
	.long	.LASF753
	.byte	0x37
	.value	0x2e0
	.long	0x2d94
	.long	0x418d
	.uleb128 0x1
	.long	0x4041
	.uleb128 0x1
	.long	0x418d
	.byte	0
	.uleb128 0xb
	.byte	0x8
	.long	0x3fd1
	.uleb128 0x7
	.long	.LASF754
	.byte	0x37
	.value	0x2b1
	.long	0x34ee
	.long	0x41a9
	.uleb128 0x1
	.long	0x4041
	.byte	0
	.uleb128 0x7
	.long	.LASF755
	.byte	0x37
	.value	0x1de
	.long	0x2d94
	.long	0x41bf
	.uleb128 0x1
	.long	0x4041
	.byte	0
	.uleb128 0x4e
	.long	.LASF756
	.byte	0x37
	.value	0x1e4
	.long	0x2d94
	.uleb128 0x35
	.long	.LASF757
	.byte	0x37
	.value	0x307
	.long	0x41dd
	.uleb128 0x1
	.long	0x2f58
	.byte	0
	.uleb128 0xd
	.long	.LASF758
	.byte	0x37
	.byte	0x90
	.long	0x2d94
	.long	0x41f2
	.uleb128 0x1
	.long	0x2f58
	.byte	0
	.uleb128 0xd
	.long	.LASF759
	.byte	0x37
	.byte	0x92
	.long	0x2d94
	.long	0x420c
	.uleb128 0x1
	.long	0x2f58
	.uleb128 0x1
	.long	0x2f58
	.byte	0
	.uleb128 0x35
	.long	.LASF760
	.byte	0x37
	.value	0x2b6
	.long	0x421e
	.uleb128 0x1
	.long	0x4041
	.byte	0
	.uleb128 0x35
	.long	.LASF761
	.byte	0x37
	.value	0x122
	.long	0x4235
	.uleb128 0x1
	.long	0x4041
	.uleb128 0x1
	.long	0x3274
	.byte	0
	.uleb128 0x7
	.long	.LASF762
	.byte	0x37
	.value	0x126
	.long	0x2d94
	.long	0x425a
	.uleb128 0x1
	.long	0x4041
	.uleb128 0x1
	.long	0x3274
	.uleb128 0x1
	.long	0x2d94
	.uleb128 0x1
	.long	0x2ccc
	.byte	0
	.uleb128 0x60
	.long	.LASF763
	.byte	0x37
	.byte	0x9f
	.long	0x4041
	.uleb128 0xd
	.long	.LASF764
	.byte	0x37
	.byte	0xad
	.long	0x3274
	.long	0x427a
	.uleb128 0x1
	.long	0x3274
	.byte	0
	.uleb128 0x7
	.long	.LASF765
	.byte	0x37
	.value	0x27f
	.long	0x2d94
	.long	0x4295
	.uleb128 0x1
	.long	0x2d94
	.uleb128 0x1
	.long	0x4041
	.byte	0
	.uleb128 0x1d
	.long	.LASF766
	.byte	0x39
	.byte	0x2d
	.long	0x3274
	.uleb128 0x1d
	.long	.LASF767
	.byte	0x39
	.byte	0x2e
	.long	0x3274
	.uleb128 0xb
	.byte	0x8
	.long	0xc96
	.uleb128 0x4
	.long	.LASF768
	.byte	0x3a
	.byte	0x26
	.long	0x2cd7
	.uleb128 0x4
	.long	.LASF769
	.byte	0x3b
	.byte	0x30
	.long	0x42c7
	.uleb128 0xb
	.byte	0x8
	.long	0x3801
	.uleb128 0xd
	.long	.LASF770
	.byte	0x3a
	.byte	0x9f
	.long	0x2d94
	.long	0x42e7
	.uleb128 0x1
	.long	0x2d29
	.uleb128 0x1
	.long	0x42b1
	.byte	0
	.uleb128 0xd
	.long	.LASF771
	.byte	0x3b
	.byte	0x37
	.long	0x2d29
	.long	0x4301
	.uleb128 0x1
	.long	0x2d29
	.uleb128 0x1
	.long	0x42bc
	.byte	0
	.uleb128 0xd
	.long	.LASF772
	.byte	0x3b
	.byte	0x34
	.long	0x42bc
	.long	0x4316
	.uleb128 0x1
	.long	0x2f58
	.byte	0
	.uleb128 0xd
	.long	.LASF773
	.byte	0x3a
	.byte	0x9b
	.long	0x42b1
	.long	0x432b
	.uleb128 0x1
	.long	0x2f58
	.byte	0
	.uleb128 0x83
	.long	0xe36
	.uleb128 0x9
	.byte	0x3
	.quad	_ZStL8__ioinit
	.uleb128 0x36
	.long	.LASF775
	.byte	0x2
	.byte	0x9
	.long	0x3869
	.uleb128 0x9
	.byte	0x3
	.quad	_ZL8sizeTest
	.uleb128 0xb
	.byte	0x8
	.long	0x375d
	.uleb128 0x9
	.long	0x4350
	.uleb128 0xb
	.byte	0x8
	.long	0x3764
	.uleb128 0x10
	.byte	0x8
	.long	0xef3
	.uleb128 0x10
	.byte	0x8
	.long	0xeff
	.uleb128 0x10
	.byte	0x8
	.long	0x2795
	.uleb128 0x10
	.byte	0x8
	.long	0x27a0
	.uleb128 0x10
	.byte	0x8
	.long	0x10a5
	.uleb128 0x10
	.byte	0x8
	.long	0x103d
	.uleb128 0x10
	.byte	0x8
	.long	0x375d
	.uleb128 0x10
	.byte	0x8
	.long	0x3764
	.uleb128 0xb
	.byte	0x8
	.long	0x286f
	.uleb128 0x9
	.long	0x4391
	.uleb128 0x10
	.byte	0x8
	.long	0x2a2d
	.uleb128 0xb
	.byte	0x8
	.long	0x2a2d
	.uleb128 0x9
	.long	0x43a2
	.uleb128 0xb
	.byte	0x8
	.long	0x103d
	.uleb128 0x9
	.long	0x43ad
	.uleb128 0xb
	.byte	0x8
	.long	0x10b6
	.uleb128 0x9
	.long	0x43b8
	.uleb128 0x10
	.byte	0x8
	.long	0x118e
	.uleb128 0x31
	.byte	0x8
	.long	0x1183
	.uleb128 0x10
	.byte	0x8
	.long	0x10b6
	.uleb128 0x10
	.byte	0x8
	.long	0x1183
	.uleb128 0xb
	.byte	0x8
	.long	0x10aa
	.uleb128 0x9
	.long	0x43db
	.uleb128 0xb
	.byte	0x8
	.long	0x1372
	.uleb128 0x9
	.long	0x43e6
	.uleb128 0x10
	.byte	0x8
	.long	0x11aa
	.uleb128 0x31
	.byte	0x8
	.long	0x10aa
	.uleb128 0xb
	.byte	0x8
	.long	0x1377
	.uleb128 0x9
	.long	0x43fd
	.uleb128 0x10
	.byte	0x8
	.long	0x142f
	.uleb128 0x10
	.byte	0x8
	.long	0x13b9
	.uleb128 0x10
	.byte	0x8
	.long	0x1e14
	.uleb128 0x31
	.byte	0x8
	.long	0x1377
	.uleb128 0x10
	.byte	0x8
	.long	0x1377
	.uleb128 0xb
	.byte	0x8
	.long	0x1e14
	.uleb128 0x9
	.long	0x4426
	.uleb128 0x31
	.byte	0x8
	.long	0x13ad
	.uleb128 0x11
	.long	.LASF776
	.byte	0x48
	.byte	0x2
	.byte	0xa
	.long	0x4498
	.uleb128 0x6
	.long	.LASF777
	.byte	0x2
	.byte	0xc
	.long	0x1377
	.byte	0
	.uleb128 0x6
	.long	.LASF778
	.byte	0x2
	.byte	0xd
	.long	0x1377
	.byte	0x18
	.uleb128 0x6
	.long	.LASF779
	.byte	0x2
	.byte	0xe
	.long	0x1377
	.byte	0x30
	.uleb128 0x84
	.long	.LASF780
	.long	.LASF859
	.long	0x4479
	.long	0x4484
	.uleb128 0x3
	.long	0x59e7
	.uleb128 0x3
	.long	0x2d94
	.byte	0
	.uleb128 0x5b
	.long	.LASF776
	.long	.LASF782
	.long	0x4491
	.uleb128 0x3
	.long	0x59e7
	.byte	0
	.byte	0
	.uleb128 0x61
	.long	.LASF783
	.value	0x21c
	.byte	0x2
	.byte	0x11
	.long	0x44cc
	.uleb128 0x6
	.long	.LASF777
	.byte	0x2
	.byte	0x13
	.long	0x44cc
	.byte	0
	.uleb128 0x6
	.long	.LASF778
	.byte	0x2
	.byte	0x14
	.long	0x44cc
	.byte	0xb4
	.uleb128 0x85
	.long	.LASF779
	.byte	0x2
	.byte	0x15
	.long	0x44cc
	.value	0x168
	.byte	0
	.uleb128 0x33
	.long	0x385e
	.long	0x44dc
	.uleb128 0x3d
	.long	0x2cd7
	.byte	0x59
	.byte	0
	.uleb128 0x61
	.long	.LASF784
	.value	0x21d
	.byte	0x2
	.byte	0x19
	.long	0x4502
	.uleb128 0x6
	.long	.LASF785
	.byte	0x2
	.byte	0x1b
	.long	0x3884
	.byte	0
	.uleb128 0x6
	.long	.LASF786
	.byte	0x2
	.byte	0x1c
	.long	0x4498
	.byte	0x1
	.byte	0
	.uleb128 0xb
	.byte	0x8
	.long	0x2a32
	.uleb128 0x9
	.long	0x4502
	.uleb128 0x10
	.byte	0x8
	.long	0x4356
	.uleb128 0xb
	.byte	0x8
	.long	0x2c59
	.uleb128 0x9
	.long	0x4513
	.uleb128 0x10
	.byte	0x8
	.long	0x2a32
	.uleb128 0x31
	.byte	0x8
	.long	0x375d
	.uleb128 0xb
	.byte	0x8
	.long	0x1e93
	.uleb128 0x9
	.long	0x452a
	.uleb128 0xb
	.byte	0x8
	.long	0x20be
	.uleb128 0x9
	.long	0x4535
	.uleb128 0x10
	.byte	0x8
	.long	0x1e93
	.uleb128 0x86
	.long	.LASF787
	.long	0x2d27
	.uleb128 0x3e
	.long	.LASF788
	.long	0x46d
	.byte	0
	.uleb128 0x3e
	.long	.LASF789
	.long	0x4e3
	.byte	0x1
	.uleb128 0x50
	.long	.LASF790
	.long	0x251b
	.sleb128 -2147483648
	.uleb128 0x87
	.long	.LASF791
	.long	0x2526
	.long	0x7fffffff
	.uleb128 0x3e
	.long	.LASF792
	.long	0x25cd
	.byte	0x26
	.uleb128 0x51
	.long	.LASF793
	.long	0x260f
	.value	0x134
	.uleb128 0x51
	.long	.LASF794
	.long	0x2651
	.value	0x1344
	.uleb128 0x3e
	.long	.LASF795
	.long	0x2693
	.byte	0x40
	.uleb128 0x3e
	.long	.LASF796
	.long	0x26bf
	.byte	0x7f
	.uleb128 0x50
	.long	.LASF797
	.long	0x26f6
	.sleb128 -32768
	.uleb128 0x51
	.long	.LASF798
	.long	0x2701
	.value	0x7fff
	.uleb128 0x50
	.long	.LASF799
	.long	0x2738
	.sleb128 -9223372036854775808
	.uleb128 0x88
	.long	.LASF800
	.long	0x2743
	.quad	0x7fffffffffffffff
	.uleb128 0x89
	.long	.LASF860
	.quad	.LFB2427
	.quad	.LFE2427-.LFB2427
	.uleb128 0x1
	.byte	0x9c
	.uleb128 0x8a
	.long	.LASF861
	.quad	.LFB2426
	.quad	.LFE2426-.LFB2426
	.uleb128 0x1
	.byte	0x9c
	.long	0x4641
	.uleb128 0x23
	.long	.LASF801
	.byte	0x2
	.byte	0x3e
	.long	0x2d94
	.uleb128 0x2
	.byte	0x91
	.sleb128 -20
	.uleb128 0x23
	.long	.LASF802
	.byte	0x2
	.byte	0x3e
	.long	0x2d94
	.uleb128 0x2
	.byte	0x91
	.sleb128 -24
	.byte	0
	.uleb128 0x15
	.long	0x20ea
	.quad	.LFB2425
	.quad	.LFE2425-.LFB2425
	.uleb128 0x1
	.byte	0x9c
	.long	0x46a2
	.uleb128 0xa
	.string	"_Tp"
	.long	0x375d
	.uleb128 0xe
	.long	.LASF803
	.byte	0xc
	.value	0x165
	.long	0x435b
	.uleb128 0x2
	.byte	0x91
	.sleb128 -40
	.uleb128 0xe
	.long	.LASF804
	.byte	0xc
	.value	0x165
	.long	0x435b
	.uleb128 0x2
	.byte	0x91
	.sleb128 -48
	.uleb128 0xe
	.long	.LASF805
	.byte	0xc
	.value	0x165
	.long	0x4350
	.uleb128 0x2
	.byte	0x91
	.sleb128 -56
	.uleb128 0x20
	.long	.LASF806
	.byte	0xc
	.value	0x16e
	.long	0xaad
	.uleb128 0x2
	.byte	0x91
	.sleb128 -24
	.byte	0
	.uleb128 0x15
	.long	0x2114
	.quad	.LFB2424
	.quad	.LFE2424-.LFB2424
	.uleb128 0x1
	.byte	0x9c
	.long	0x4717
	.uleb128 0x44
	.long	.LASF364
	.long	0x372a
	.byte	0x1
	.byte	0x1
	.uleb128 0xa
	.string	"_II"
	.long	0x4350
	.uleb128 0xa
	.string	"_OI"
	.long	0x4350
	.uleb128 0xe
	.long	.LASF803
	.byte	0xc
	.value	0x177
	.long	0x4350
	.uleb128 0x2
	.byte	0x91
	.sleb128 -40
	.uleb128 0xe
	.long	.LASF804
	.byte	0xc
	.value	0x177
	.long	0x4350
	.uleb128 0x2
	.byte	0x91
	.sleb128 -48
	.uleb128 0xe
	.long	.LASF805
	.byte	0xc
	.value	0x177
	.long	0x4350
	.uleb128 0x2
	.byte	0x91
	.sleb128 -56
	.uleb128 0x20
	.long	.LASF807
	.byte	0xc
	.value	0x17c
	.long	0x3731
	.uleb128 0x2
	.byte	0x91
	.sleb128 -17
	.byte	0
	.uleb128 0x32
	.long	0x2155
	.quad	.LFB2423
	.quad	.LFE2423-.LFB2423
	.uleb128 0x1
	.byte	0x9c
	.long	0x474b
	.uleb128 0x5
	.long	.LASF330
	.long	0x4350
	.uleb128 0xe
	.long	.LASF808
	.byte	0xd
	.value	0x198
	.long	0x4350
	.uleb128 0x2
	.byte	0x91
	.sleb128 -24
	.byte	0
	.uleb128 0x2e
	.long	0x1f1d
	.long	0x476e
	.quad	.LFB2422
	.quad	.LFE2422-.LFB2422
	.uleb128 0x1
	.byte	0x9c
	.long	0x476e
	.long	0x477b
	.uleb128 0x14
	.long	.LASF811
	.long	0x453b
	.uleb128 0x2
	.byte	0x91
	.sleb128 -24
	.byte	0
	.uleb128 0x15
	.long	0x2178
	.quad	.LFB2421
	.quad	.LFE2421-.LFB2421
	.uleb128 0x1
	.byte	0x9c
	.long	0x47e1
	.uleb128 0x44
	.long	.LASF364
	.long	0x372a
	.byte	0x1
	.byte	0x1
	.uleb128 0xa
	.string	"_II"
	.long	0x4350
	.uleb128 0xa
	.string	"_OI"
	.long	0x4350
	.uleb128 0xe
	.long	.LASF803
	.byte	0xc
	.value	0x1a4
	.long	0x4350
	.uleb128 0x2
	.byte	0x91
	.sleb128 -40
	.uleb128 0xe
	.long	.LASF804
	.byte	0xc
	.value	0x1a4
	.long	0x4350
	.uleb128 0x2
	.byte	0x91
	.sleb128 -48
	.uleb128 0xe
	.long	.LASF805
	.byte	0xc
	.value	0x1a4
	.long	0x4350
	.uleb128 0x2
	.byte	0x91
	.sleb128 -56
	.byte	0
	.uleb128 0x15
	.long	0x21b9
	.quad	.LFB2420
	.quad	.LFE2420-.LFB2420
	.uleb128 0x1
	.byte	0x9c
	.long	0x4815
	.uleb128 0x5
	.long	.LASF330
	.long	0x4350
	.uleb128 0xe
	.long	.LASF808
	.byte	0xb
	.value	0x4dc
	.long	0x1e93
	.uleb128 0x2
	.byte	0x91
	.sleb128 -24
	.byte	0
	.uleb128 0x15
	.long	0x21dc
	.quad	.LFB2417
	.quad	.LFE2417-.LFB2417
	.uleb128 0x1
	.byte	0x9c
	.long	0x4870
	.uleb128 0xa
	.string	"_II"
	.long	0x1e93
	.uleb128 0xa
	.string	"_OI"
	.long	0x4350
	.uleb128 0xe
	.long	.LASF803
	.byte	0xc
	.value	0x1be
	.long	0x1e93
	.uleb128 0x2
	.byte	0x91
	.sleb128 -40
	.uleb128 0xe
	.long	.LASF804
	.byte	0xc
	.value	0x1be
	.long	0x1e93
	.uleb128 0x2
	.byte	0x91
	.sleb128 -48
	.uleb128 0xe
	.long	.LASF805
	.byte	0xc
	.value	0x1be
	.long	0x4350
	.uleb128 0x2
	.byte	0x91
	.sleb128 -56
	.byte	0
	.uleb128 0x32
	.long	0x2212
	.quad	.LFB2416
	.quad	.LFE2416-.LFB2416
	.uleb128 0x1
	.byte	0x9c
	.long	0x4904
	.uleb128 0x5
	.long	.LASF374
	.long	0x4350
	.uleb128 0x5
	.long	.LASF137
	.long	0x2cd7
	.uleb128 0xa
	.string	"_Tp"
	.long	0x375d
	.uleb128 0xe
	.long	.LASF803
	.byte	0xc
	.value	0x2ed
	.long	0x4350
	.uleb128 0x2
	.byte	0x91
	.sleb128 -40
	.uleb128 0x17
	.string	"__n"
	.byte	0xc
	.value	0x2ed
	.long	0x2cd7
	.uleb128 0x2
	.byte	0x91
	.sleb128 -48
	.uleb128 0xe
	.long	.LASF44
	.byte	0xc
	.value	0x2ed
	.long	0x438b
	.uleb128 0x2
	.byte	0x91
	.sleb128 -56
	.uleb128 0x20
	.long	.LASF809
	.byte	0xc
	.value	0x2ef
	.long	0x3764
	.uleb128 0x2
	.byte	0x91
	.sleb128 -26
	.uleb128 0x62
	.quad	.LBB27
	.quad	.LBE27-.LBB27
	.uleb128 0x20
	.long	.LASF810
	.byte	0xc
	.value	0x2f0
	.long	0x2cd7
	.uleb128 0x2
	.byte	0x91
	.sleb128 -24
	.byte	0
	.byte	0
	.uleb128 0x32
	.long	0x2251
	.quad	.LFB2415
	.quad	.LFE2415-.LFB2415
	.uleb128 0x1
	.byte	0x9c
	.long	0x4938
	.uleb128 0x5
	.long	.LASF330
	.long	0x4350
	.uleb128 0xe
	.long	.LASF808
	.byte	0xc
	.value	0x115
	.long	0x4350
	.uleb128 0x2
	.byte	0x91
	.sleb128 -24
	.byte	0
	.uleb128 0x15
	.long	0xe79
	.quad	.LFB2406
	.quad	.LFE2406-.LFB2406
	.uleb128 0x1
	.byte	0x9c
	.long	0x4990
	.uleb128 0x5
	.long	.LASF133
	.long	0x1e93
	.uleb128 0x5
	.long	.LASF130
	.long	0x4350
	.uleb128 0x23
	.long	.LASF803
	.byte	0x9
	.byte	0x63
	.long	0x1e93
	.uleb128 0x2
	.byte	0x91
	.sleb128 -24
	.uleb128 0x23
	.long	.LASF804
	.byte	0x9
	.byte	0x63
	.long	0x1e93
	.uleb128 0x2
	.byte	0x91
	.sleb128 -32
	.uleb128 0x23
	.long	.LASF805
	.byte	0x9
	.byte	0x64
	.long	0x4350
	.uleb128 0x2
	.byte	0x91
	.sleb128 -40
	.byte	0
	.uleb128 0x2e
	.long	0x29a1
	.long	0x49b3
	.quad	.LFB2405
	.quad	.LFE2405-.LFB2405
	.uleb128 0x1
	.byte	0x9c
	.long	0x49b3
	.long	0x49c0
	.uleb128 0x14
	.long	.LASF811
	.long	0x43a8
	.uleb128 0x2
	.byte	0x91
	.sleb128 -24
	.byte	0
	.uleb128 0x15
	.long	0x2274
	.quad	.LFB2404
	.quad	.LFE2404-.LFB2404
	.uleb128 0x1
	.byte	0x9c
	.long	0x4a24
	.uleb128 0xa
	.string	"_OI"
	.long	0x4350
	.uleb128 0x5
	.long	.LASF137
	.long	0x2cd7
	.uleb128 0xa
	.string	"_Tp"
	.long	0x375d
	.uleb128 0xe
	.long	.LASF803
	.byte	0xc
	.value	0x310
	.long	0x4350
	.uleb128 0x2
	.byte	0x91
	.sleb128 -24
	.uleb128 0x17
	.string	"__n"
	.byte	0xc
	.value	0x310
	.long	0x2cd7
	.uleb128 0x2
	.byte	0x91
	.sleb128 -32
	.uleb128 0xe
	.long	.LASF44
	.byte	0xc
	.value	0x310
	.long	0x438b
	.uleb128 0x2
	.byte	0x91
	.sleb128 -40
	.byte	0
	.uleb128 0x15
	.long	0x22b3
	.quad	.LFB2378
	.quad	.LFE2378-.LFB2378
	.uleb128 0x1
	.byte	0x9c
	.long	0x4a8a
	.uleb128 0x5
	.long	.LASF133
	.long	0x1e93
	.uleb128 0x5
	.long	.LASF130
	.long	0x4350
	.uleb128 0x23
	.long	.LASF803
	.byte	0x9
	.byte	0x73
	.long	0x1e93
	.uleb128 0x2
	.byte	0x91
	.sleb128 -40
	.uleb128 0x23
	.long	.LASF804
	.byte	0x9
	.byte	0x73
	.long	0x1e93
	.uleb128 0x2
	.byte	0x91
	.sleb128 -48
	.uleb128 0x23
	.long	.LASF805
	.byte	0x9
	.byte	0x74
	.long	0x4350
	.uleb128 0x2
	.byte	0x91
	.sleb128 -56
	.uleb128 0x36
	.long	.LASF812
	.byte	0x9
	.byte	0x80
	.long	0x3731
	.uleb128 0x2
	.byte	0x91
	.sleb128 -17
	.byte	0
	.uleb128 0x25
	.long	0x1efd
	.byte	0x2
	.long	0x4a98
	.long	0x4aae
	.uleb128 0x18
	.long	.LASF811
	.long	0x4530
	.uleb128 0x63
	.string	"__i"
	.byte	0xb
	.value	0x40f
	.long	0x1eae
	.byte	0
	.uleb128 0x46
	.long	0x4a8a
	.long	.LASF813
	.long	0x4ad5
	.quad	.LFB2376
	.quad	.LFE2376-.LFB2376
	.uleb128 0x1
	.byte	0x9c
	.long	0x4ad5
	.long	0x4ae6
	.uleb128 0x1a
	.long	0x4a98
	.uleb128 0x2
	.byte	0x91
	.sleb128 -24
	.uleb128 0x1a
	.long	0x4aa1
	.uleb128 0x2
	.byte	0x91
	.sleb128 -32
	.byte	0
	.uleb128 0x1e
	.long	0x2955
	.long	0x4b09
	.quad	.LFB2374
	.quad	.LFE2374-.LFB2374
	.uleb128 0x1
	.byte	0x9c
	.long	0x4b09
	.long	0x4b2c
	.uleb128 0x14
	.long	.LASF811
	.long	0x4397
	.uleb128 0x2
	.byte	0x91
	.sleb128 -24
	.uleb128 0x21
	.string	"__n"
	.byte	0xa
	.byte	0x63
	.long	0x287b
	.uleb128 0x2
	.byte	0x91
	.sleb128 -32
	.uleb128 0x24
	.long	0x3b5b
	.uleb128 0x2
	.byte	0x91
	.sleb128 -40
	.byte	0
	.uleb128 0x2e
	.long	0x11cc
	.long	0x4b4f
	.quad	.LFB2373
	.quad	.LFE2373-.LFB2373
	.uleb128 0x1
	.byte	0x9c
	.long	0x4b4f
	.long	0x4b5c
	.uleb128 0x14
	.long	.LASF811
	.long	0x43ec
	.uleb128 0x2
	.byte	0x91
	.sleb128 -24
	.byte	0
	.uleb128 0x15
	.long	0xf97
	.quad	.LFB2372
	.quad	.LFE2372-.LFB2372
	.uleb128 0x1
	.byte	0x9c
	.long	0x4b87
	.uleb128 0x17
	.string	"__a"
	.byte	0x8
	.value	0x1ef
	.long	0x4367
	.uleb128 0x2
	.byte	0x91
	.sleb128 -24
	.byte	0
	.uleb128 0x15
	.long	0xeb8
	.quad	.LFB2371
	.quad	.LFE2371-.LFB2371
	.uleb128 0x1
	.byte	0x9c
	.long	0x4bd3
	.uleb128 0x5
	.long	.LASF130
	.long	0x4350
	.uleb128 0x5
	.long	.LASF137
	.long	0x2cd7
	.uleb128 0xe
	.long	.LASF803
	.byte	0x9
	.value	0x21f
	.long	0x4350
	.uleb128 0x2
	.byte	0x91
	.sleb128 -40
	.uleb128 0x17
	.string	"__n"
	.byte	0x9
	.value	0x21f
	.long	0x2cd7
	.uleb128 0x2
	.byte	0x91
	.sleb128 -48
	.byte	0
	.uleb128 0x2e
	.long	0x29bf
	.long	0x4bff
	.quad	.LFB2370
	.quad	.LFE2370-.LFB2370
	.uleb128 0x1
	.byte	0x9c
	.long	0x4bff
	.long	0x4c1a
	.uleb128 0xa
	.string	"_Up"
	.long	0x375d
	.uleb128 0x14
	.long	.LASF811
	.long	0x4397
	.uleb128 0x2
	.byte	0x91
	.sleb128 -24
	.uleb128 0x21
	.string	"__p"
	.byte	0xa
	.byte	0x8c
	.long	0x4350
	.uleb128 0x2
	.byte	0x91
	.sleb128 -32
	.byte	0
	.uleb128 0x1e
	.long	0x297d
	.long	0x4c3d
	.quad	.LFB2369
	.quad	.LFE2369-.LFB2369
	.uleb128 0x1
	.byte	0x9c
	.long	0x4c3d
	.long	0x4c60
	.uleb128 0x14
	.long	.LASF811
	.long	0x4397
	.uleb128 0x2
	.byte	0x91
	.sleb128 -24
	.uleb128 0x21
	.string	"__p"
	.byte	0xa
	.byte	0x74
	.long	0x2887
	.uleb128 0x2
	.byte	0x91
	.sleb128 -32
	.uleb128 0x24
	.long	0x287b
	.uleb128 0x2
	.byte	0x91
	.sleb128 -40
	.byte	0
	.uleb128 0x25
	.long	0x28b7
	.byte	0x2
	.long	0x4c6e
	.long	0x4c78
	.uleb128 0x18
	.long	.LASF811
	.long	0x4397
	.byte	0
	.uleb128 0x46
	.long	0x4c60
	.long	.LASF814
	.long	0x4c9f
	.quad	.LFB2367
	.quad	.LFE2367-.LFB2367
	.uleb128 0x1
	.byte	0x9c
	.long	0x4c9f
	.long	0x4ca8
	.uleb128 0x1a
	.long	0x4c6e
	.uleb128 0x2
	.byte	0x91
	.sleb128 -24
	.byte	0
	.uleb128 0x15
	.long	0x22e8
	.quad	.LFB2332
	.quad	.LFE2332-.LFB2332
	.uleb128 0x1
	.byte	0x9c
	.long	0x4d14
	.uleb128 0x5
	.long	.LASF133
	.long	0x1e93
	.uleb128 0x5
	.long	.LASF130
	.long	0x4350
	.uleb128 0xa
	.string	"_Tp"
	.long	0x375d
	.uleb128 0xe
	.long	.LASF803
	.byte	0x9
	.value	0x11f
	.long	0x1e93
	.uleb128 0x2
	.byte	0x91
	.sleb128 -24
	.uleb128 0xe
	.long	.LASF804
	.byte	0x9
	.value	0x11f
	.long	0x1e93
	.uleb128 0x2
	.byte	0x91
	.sleb128 -32
	.uleb128 0xe
	.long	.LASF805
	.byte	0x9
	.value	0x120
	.long	0x4350
	.uleb128 0x2
	.byte	0x91
	.sleb128 -40
	.uleb128 0x24
	.long	0x437f
	.uleb128 0x2
	.byte	0x91
	.sleb128 -48
	.byte	0
	.uleb128 0x15
	.long	0x232c
	.quad	.LFB2331
	.quad	.LFE2331-.LFB2331
	.uleb128 0x1
	.byte	0x9c
	.long	0x4d51
	.uleb128 0xa
	.string	"_Tp"
	.long	0x375d
	.uleb128 0x2f
	.long	.LASF385
	.long	0x1e93
	.uleb128 0x17
	.string	"__i"
	.byte	0xb
	.value	0x4c8
	.long	0x4350
	.uleb128 0x2
	.byte	0x91
	.sleb128 -40
	.byte	0
	.uleb128 0x15
	.long	0xf34
	.quad	.LFB2330
	.quad	.LFE2330-.LFB2330
	.uleb128 0x1
	.byte	0x9c
	.long	0x4d8b
	.uleb128 0x17
	.string	"__a"
	.byte	0x8
	.value	0x1b3
	.long	0x4361
	.uleb128 0x2
	.byte	0x91
	.sleb128 -24
	.uleb128 0x17
	.string	"__n"
	.byte	0x8
	.value	0x1b3
	.long	0xf28
	.uleb128 0x2
	.byte	0x91
	.sleb128 -32
	.byte	0
	.uleb128 0x10
	.byte	0x8
	.long	0x2cde
	.uleb128 0x32
	.long	0x2358
	.quad	.LFB2329
	.quad	.LFE2329-.LFB2329
	.uleb128 0x1
	.byte	0x9c
	.long	0x4dd2
	.uleb128 0xa
	.string	"_Tp"
	.long	0x2cd7
	.uleb128 0x21
	.string	"__a"
	.byte	0xc
	.byte	0xdb
	.long	0x4d8b
	.uleb128 0x2
	.byte	0x91
	.sleb128 -24
	.uleb128 0x21
	.string	"__b"
	.byte	0xc
	.byte	0xdb
	.long	0x4d8b
	.uleb128 0x2
	.byte	0x91
	.sleb128 -32
	.byte	0
	.uleb128 0x1e
	.long	0x17d0
	.long	0x4df5
	.quad	.LFB2328
	.quad	.LFE2328-.LFB2328
	.uleb128 0x1
	.byte	0x9c
	.long	0x4df5
	.long	0x4e02
	.uleb128 0x14
	.long	.LASF811
	.long	0x442c
	.uleb128 0x2
	.byte	0x91
	.sleb128 -24
	.byte	0
	.uleb128 0x15
	.long	0x237f
	.quad	.LFB2327
	.quad	.LFE2327-.LFB2327
	.uleb128 0x1
	.byte	0x9c
	.long	0x4e5d
	.uleb128 0x5
	.long	.LASF130
	.long	0x4350
	.uleb128 0x5
	.long	.LASF137
	.long	0x2cd7
	.uleb128 0xe
	.long	.LASF803
	.byte	0x9
	.value	0x23e
	.long	0x4350
	.uleb128 0x2
	.byte	0x91
	.sleb128 -40
	.uleb128 0x17
	.string	"__n"
	.byte	0x9
	.value	0x23e
	.long	0x2cd7
	.uleb128 0x2
	.byte	0x91
	.sleb128 -48
	.uleb128 0x20
	.long	.LASF812
	.byte	0x9
	.value	0x243
	.long	0x3731
	.uleb128 0x2
	.byte	0x91
	.sleb128 -17
	.byte	0
	.uleb128 0x15
	.long	0xfd7
	.quad	.LFB2326
	.quad	.LFE2326-.LFB2326
	.uleb128 0x1
	.byte	0x9c
	.long	0x4ea0
	.uleb128 0xa
	.string	"_Up"
	.long	0x375d
	.uleb128 0x17
	.string	"__a"
	.byte	0x8
	.value	0x1e6
	.long	0x4361
	.uleb128 0x2
	.byte	0x91
	.sleb128 -24
	.uleb128 0x17
	.string	"__p"
	.byte	0x8
	.value	0x1e6
	.long	0x4350
	.uleb128 0x2
	.byte	0x91
	.sleb128 -32
	.byte	0
	.uleb128 0x2e
	.long	0x2c27
	.long	0x4ec3
	.quad	.LFB2325
	.quad	.LFE2325-.LFB2325
	.uleb128 0x1
	.byte	0x9c
	.long	0x4ec3
	.long	0x4ed0
	.uleb128 0x14
	.long	.LASF811
	.long	0x4519
	.uleb128 0x2
	.byte	0x91
	.sleb128 -24
	.byte	0
	.uleb128 0x10
	.byte	0x8
	.long	0x2c59
	.uleb128 0x15
	.long	0x2c7b
	.quad	.LFB2324
	.quad	.LFE2324-.LFB2324
	.uleb128 0x1
	.byte	0x9c
	.long	0x4f22
	.uleb128 0x5
	.long	.LASF330
	.long	0x4350
	.uleb128 0x5
	.long	.LASF470
	.long	0x1377
	.uleb128 0xe
	.long	.LASF815
	.byte	0xb
	.value	0x3c5
	.long	0x4ed0
	.uleb128 0x2
	.byte	0x91
	.sleb128 -40
	.uleb128 0xe
	.long	.LASF816
	.byte	0xb
	.value	0x3c6
	.long	0x4ed0
	.uleb128 0x2
	.byte	0x91
	.sleb128 -48
	.byte	0
	.uleb128 0x1e
	.long	0x163d
	.long	0x4f45
	.quad	.LFB2323
	.quad	.LFE2323-.LFB2323
	.uleb128 0x1
	.byte	0x9c
	.long	0x4f45
	.long	0x4f52
	.uleb128 0x14
	.long	.LASF811
	.long	0x4403
	.uleb128 0x2
	.byte	0x91
	.sleb128 -40
	.byte	0
	.uleb128 0x25
	.long	0x2a8f
	.byte	0x2
	.long	0x4f60
	.long	0x4f76
	.uleb128 0x18
	.long	.LASF811
	.long	0x4508
	.uleb128 0x63
	.string	"__i"
	.byte	0xb
	.value	0x30e
	.long	0x450d
	.byte	0
	.uleb128 0x46
	.long	0x4f52
	.long	.LASF817
	.long	0x4f9d
	.quad	.LFB2321
	.quad	.LFE2321-.LFB2321
	.uleb128 0x1
	.byte	0x9c
	.long	0x4f9d
	.long	0x4fae
	.uleb128 0x1a
	.long	0x4f60
	.uleb128 0x2
	.byte	0x91
	.sleb128 -24
	.uleb128 0x1a
	.long	0x4f69
	.uleb128 0x2
	.byte	0x91
	.sleb128 -32
	.byte	0
	.uleb128 0x1e
	.long	0x29e7
	.long	0x4fe9
	.quad	.LFB2319
	.quad	.LFE2319-.LFB2319
	.uleb128 0x1
	.byte	0x9c
	.long	0x4fe9
	.long	0x5010
	.uleb128 0xa
	.string	"_Up"
	.long	0x375d
	.uleb128 0x2c
	.long	.LASF318
	.long	0x4fe9
	.uleb128 0x2d
	.long	0x375d
	.byte	0
	.uleb128 0x14
	.long	.LASF811
	.long	0x4397
	.uleb128 0x2
	.byte	0x91
	.sleb128 -40
	.uleb128 0x21
	.string	"__p"
	.byte	0xa
	.byte	0x87
	.long	0x4350
	.uleb128 0x2
	.byte	0x91
	.sleb128 -48
	.uleb128 0x64
	.byte	0xa
	.byte	0x87
	.uleb128 0x24
	.long	0x4524
	.uleb128 0x2
	.byte	0x91
	.sleb128 -56
	.byte	0
	.byte	0
	.uleb128 0x32
	.long	0xe4d
	.quad	.LFB2318
	.quad	.LFE2318-.LFB2318
	.uleb128 0x1
	.byte	0x9c
	.long	0x5045
	.uleb128 0x5
	.long	.LASF130
	.long	0x4350
	.uleb128 0x24
	.long	0x4350
	.uleb128 0x2
	.byte	0x91
	.sleb128 -24
	.uleb128 0x24
	.long	0x4350
	.uleb128 0x2
	.byte	0x91
	.sleb128 -32
	.byte	0
	.uleb128 0x15
	.long	0xf77
	.quad	.LFB2317
	.quad	.LFE2317-.LFB2317
	.uleb128 0x1
	.byte	0x9c
	.long	0x508e
	.uleb128 0x17
	.string	"__a"
	.byte	0x8
	.value	0x1cd
	.long	0x4361
	.uleb128 0x2
	.byte	0x91
	.sleb128 -24
	.uleb128 0x17
	.string	"__p"
	.byte	0x8
	.value	0x1cd
	.long	0xf10
	.uleb128 0x2
	.byte	0x91
	.sleb128 -32
	.uleb128 0x17
	.string	"__n"
	.byte	0x8
	.value	0x1cd
	.long	0xf28
	.uleb128 0x2
	.byte	0x91
	.sleb128 -40
	.byte	0
	.uleb128 0x25
	.long	0x28f0
	.byte	0x2
	.long	0x509c
	.long	0x50af
	.uleb128 0x18
	.long	.LASF811
	.long	0x4397
	.uleb128 0x18
	.long	.LASF818
	.long	0x2d9b
	.byte	0
	.uleb128 0x46
	.long	0x508e
	.long	.LASF819
	.long	0x50d6
	.quad	.LFB2315
	.quad	.LFE2315-.LFB2315
	.uleb128 0x1
	.byte	0x9c
	.long	0x50d6
	.long	0x50df
	.uleb128 0x1a
	.long	0x509c
	.uleb128 0x2
	.byte	0x91
	.sleb128 -24
	.byte	0
	.uleb128 0x25
	.long	0x1050
	.byte	0x2
	.long	0x50ed
	.long	0x50f7
	.uleb128 0x18
	.long	.LASF811
	.long	0x43b3
	.byte	0
	.uleb128 0x27
	.long	0x50df
	.long	.LASF820
	.long	0x511e
	.quad	.LFB2312
	.quad	.LFE2312-.LFB2312
	.uleb128 0x1
	.byte	0x9c
	.long	0x511e
	.long	0x5127
	.uleb128 0x1a
	.long	0x50ed
	.uleb128 0x2
	.byte	0x91
	.sleb128 -24
	.byte	0
	.uleb128 0x15
	.long	0x23b0
	.quad	.LFB2276
	.quad	.LFE2276-.LFB2276
	.uleb128 0x1
	.byte	0x9c
	.long	0x519a
	.uleb128 0x5
	.long	.LASF133
	.long	0x4350
	.uleb128 0x5
	.long	.LASF130
	.long	0x4350
	.uleb128 0x5
	.long	.LASF392
	.long	0x103d
	.uleb128 0xe
	.long	.LASF803
	.byte	0x9
	.value	0x131
	.long	0x4350
	.uleb128 0x2
	.byte	0x91
	.sleb128 -40
	.uleb128 0xe
	.long	.LASF804
	.byte	0x9
	.value	0x132
	.long	0x4350
	.uleb128 0x2
	.byte	0x91
	.sleb128 -48
	.uleb128 0xe
	.long	.LASF805
	.byte	0x9
	.value	0x133
	.long	0x4350
	.uleb128 0x2
	.byte	0x91
	.sleb128 -56
	.uleb128 0xe
	.long	.LASF821
	.byte	0x9
	.value	0x134
	.long	0x437f
	.uleb128 0x2
	.byte	0x91
	.sleb128 -64
	.byte	0
	.uleb128 0x1e
	.long	0x12fb
	.long	0x51bd
	.quad	.LFB2275
	.quad	.LFE2275-.LFB2275
	.uleb128 0x1
	.byte	0x9c
	.long	0x51bd
	.long	0x51d8
	.uleb128 0x14
	.long	.LASF811
	.long	0x43e1
	.uleb128 0x2
	.byte	0x91
	.sleb128 -24
	.uleb128 0x21
	.string	"__n"
	.byte	0x3
	.byte	0xa9
	.long	0x7f0
	.uleb128 0x2
	.byte	0x91
	.sleb128 -32
	.byte	0
	.uleb128 0x1e
	.long	0x1cc3
	.long	0x51fb
	.quad	.LFB2274
	.quad	.LFE2274-.LFB2274
	.uleb128 0x1
	.byte	0x9c
	.long	0x51fb
	.long	0x5238
	.uleb128 0x14
	.long	.LASF811
	.long	0x442c
	.uleb128 0x3
	.byte	0x91
	.sleb128 -72
	.uleb128 0x17
	.string	"__n"
	.byte	0x3
	.value	0x5de
	.long	0x1412
	.uleb128 0x3
	.byte	0x91
	.sleb128 -80
	.uleb128 0x17
	.string	"__s"
	.byte	0x3
	.value	0x5de
	.long	0x2f58
	.uleb128 0x3
	.byte	0x91
	.sleb128 -88
	.uleb128 0x20
	.long	.LASF822
	.byte	0x3
	.value	0x5e3
	.long	0x141e
	.uleb128 0x2
	.byte	0x91
	.sleb128 -48
	.byte	0
	.uleb128 0x15
	.long	0x23f4
	.quad	.LFB2273
	.quad	.LFE2273-.LFB2273
	.uleb128 0x1
	.byte	0x9c
	.long	0x5295
	.uleb128 0x5
	.long	.LASF130
	.long	0x4350
	.uleb128 0x5
	.long	.LASF137
	.long	0x2cd7
	.uleb128 0xa
	.string	"_Tp"
	.long	0x375d
	.uleb128 0xe
	.long	.LASF803
	.byte	0x9
	.value	0x283
	.long	0x4350
	.uleb128 0x2
	.byte	0x91
	.sleb128 -24
	.uleb128 0x17
	.string	"__n"
	.byte	0x9
	.value	0x283
	.long	0x2cd7
	.uleb128 0x2
	.byte	0x91
	.sleb128 -32
	.uleb128 0x24
	.long	0x437f
	.uleb128 0x2
	.byte	0x91
	.sleb128 -40
	.byte	0
	.uleb128 0x1e
	.long	0x1d9f
	.long	0x52c7
	.quad	.LFB2271
	.quad	.LFE2271-.LFB2271
	.uleb128 0x1
	.byte	0x9c
	.long	0x52c7
	.long	0x5335
	.uleb128 0x2c
	.long	.LASF318
	.long	0x52c7
	.uleb128 0x2d
	.long	0x375d
	.byte	0
	.uleb128 0x14
	.long	.LASF811
	.long	0x4403
	.uleb128 0x3
	.byte	0x91
	.sleb128 -88
	.uleb128 0xe
	.long	.LASF823
	.byte	0x6
	.value	0x18b
	.long	0x13e2
	.uleb128 0x3
	.byte	0x91
	.sleb128 -96
	.uleb128 0x8b
	.byte	0x6
	.value	0x18b
	.long	0x52f7
	.uleb128 0x24
	.long	0x4524
	.uleb128 0x3
	.byte	0x91
	.sleb128 -104
	.byte	0
	.uleb128 0x20
	.long	.LASF822
	.byte	0x6
	.value	0x193
	.long	0x141e
	.uleb128 0x2
	.byte	0x91
	.sleb128 -64
	.uleb128 0x20
	.long	.LASF824
	.byte	0x6
	.value	0x195
	.long	0x141e
	.uleb128 0x2
	.byte	0x91
	.sleb128 -56
	.uleb128 0x20
	.long	.LASF825
	.byte	0x6
	.value	0x196
	.long	0x13be
	.uleb128 0x2
	.byte	0x91
	.sleb128 -48
	.uleb128 0x20
	.long	.LASF826
	.byte	0x6
	.value	0x197
	.long	0x13be
	.uleb128 0x3
	.byte	0x91
	.sleb128 -72
	.byte	0
	.uleb128 0x1e
	.long	0x167b
	.long	0x5358
	.quad	.LFB2270
	.quad	.LFE2270-.LFB2270
	.uleb128 0x1
	.byte	0x9c
	.long	0x5358
	.long	0x5365
	.uleb128 0x14
	.long	.LASF811
	.long	0x4403
	.uleb128 0x2
	.byte	0x91
	.sleb128 -40
	.byte	0
	.uleb128 0x15
	.long	0xffb
	.quad	.LFB2269
	.quad	.LFE2269-.LFB2269
	.uleb128 0x1
	.byte	0x9c
	.long	0x53c5
	.uleb128 0xa
	.string	"_Up"
	.long	0x375d
	.uleb128 0x2c
	.long	.LASF318
	.long	0x5398
	.uleb128 0x2d
	.long	0x375d
	.byte	0
	.uleb128 0x17
	.string	"__a"
	.byte	0x8
	.value	0x1da
	.long	0x4361
	.uleb128 0x2
	.byte	0x91
	.sleb128 -24
	.uleb128 0x17
	.string	"__p"
	.byte	0x8
	.value	0x1da
	.long	0x4350
	.uleb128 0x2
	.byte	0x91
	.sleb128 -32
	.uleb128 0x8c
	.byte	0x8
	.value	0x1da
	.uleb128 0x24
	.long	0x4524
	.uleb128 0x2
	.byte	0x91
	.sleb128 -40
	.byte	0
	.byte	0
	.uleb128 0x15
	.long	0x2433
	.quad	.LFB2268
	.quad	.LFE2268-.LFB2268
	.uleb128 0x1
	.byte	0x9c
	.long	0x5406
	.uleb128 0x5
	.long	.LASF130
	.long	0x4350
	.uleb128 0x23
	.long	.LASF803
	.byte	0x5
	.byte	0x7f
	.long	0x4350
	.uleb128 0x2
	.byte	0x91
	.sleb128 -24
	.uleb128 0x23
	.long	.LASF804
	.byte	0x5
	.byte	0x7f
	.long	0x4350
	.uleb128 0x2
	.byte	0x91
	.sleb128 -32
	.byte	0
	.uleb128 0x1e
	.long	0x131d
	.long	0x5429
	.quad	.LFB2267
	.quad	.LFE2267-.LFB2267
	.uleb128 0x1
	.byte	0x9c
	.long	0x5429
	.long	0x5452
	.uleb128 0x14
	.long	.LASF811
	.long	0x43e1
	.uleb128 0x2
	.byte	0x91
	.sleb128 -24
	.uleb128 0x21
	.string	"__p"
	.byte	0x3
	.byte	0xb0
	.long	0x1178
	.uleb128 0x2
	.byte	0x91
	.sleb128 -32
	.uleb128 0x21
	.string	"__n"
	.byte	0x3
	.byte	0xb0
	.long	0x7f0
	.uleb128 0x2
	.byte	0x91
	.sleb128 -40
	.byte	0
	.uleb128 0x25
	.long	0x1089
	.byte	0x2
	.long	0x5460
	.long	0x5473
	.uleb128 0x18
	.long	.LASF811
	.long	0x43b3
	.uleb128 0x18
	.long	.LASF818
	.long	0x2d9b
	.byte	0
	.uleb128 0x27
	.long	0x5452
	.long	.LASF827
	.long	0x549a
	.quad	.LFB2265
	.quad	.LFE2265-.LFB2265
	.uleb128 0x1
	.byte	0x9c
	.long	0x549a
	.long	0x54a3
	.uleb128 0x1a
	.long	0x5460
	.uleb128 0x2
	.byte	0x91
	.sleb128 -24
	.byte	0
	.uleb128 0x25
	.long	0x10ec
	.byte	0x2
	.long	0x54b1
	.long	0x54bb
	.uleb128 0x18
	.long	.LASF811
	.long	0x43be
	.byte	0
	.uleb128 0x27
	.long	0x54a3
	.long	.LASF828
	.long	0x54e2
	.quad	.LFB2262
	.quad	.LFE2262-.LFB2262
	.uleb128 0x1
	.byte	0x9c
	.long	0x54e2
	.long	0x54eb
	.uleb128 0x1a
	.long	0x54b1
	.uleb128 0x2
	.byte	0x91
	.sleb128 -24
	.byte	0
	.uleb128 0x1e
	.long	0x1cec
	.long	0x550e
	.quad	.LFB2225
	.quad	.LFE2225-.LFB2225
	.uleb128 0x1
	.byte	0x9c
	.long	0x550e
	.long	0x552a
	.uleb128 0x14
	.long	.LASF811
	.long	0x4403
	.uleb128 0x2
	.byte	0x91
	.sleb128 -24
	.uleb128 0xe
	.long	.LASF723
	.byte	0x3
	.value	0x5ec
	.long	0x13be
	.uleb128 0x2
	.byte	0x91
	.sleb128 -32
	.byte	0
	.uleb128 0x1e
	.long	0x1c32
	.long	0x554d
	.quad	.LFB2224
	.quad	.LFE2224-.LFB2224
	.uleb128 0x1
	.byte	0x9c
	.long	0x554d
	.long	0x55ae
	.uleb128 0x14
	.long	.LASF811
	.long	0x4403
	.uleb128 0x3
	.byte	0x91
	.sleb128 -72
	.uleb128 0x17
	.string	"__n"
	.byte	0x6
	.value	0x22b
	.long	0x1412
	.uleb128 0x3
	.byte	0x91
	.sleb128 -80
	.uleb128 0x8d
	.long	.Ldebug_ranges0+0
	.uleb128 0x20
	.long	.LASF822
	.byte	0x6
	.value	0x238
	.long	0x141e
	.uleb128 0x2
	.byte	0x91
	.sleb128 -56
	.uleb128 0x20
	.long	.LASF829
	.byte	0x6
	.value	0x23a
	.long	0x141e
	.uleb128 0x2
	.byte	0x91
	.sleb128 -48
	.uleb128 0x20
	.long	.LASF825
	.byte	0x6
	.value	0x23b
	.long	0x13be
	.uleb128 0x2
	.byte	0x91
	.sleb128 -40
	.uleb128 0x20
	.long	.LASF830
	.byte	0x6
	.value	0x23c
	.long	0x13be
	.uleb128 0x2
	.byte	0x91
	.sleb128 -64
	.byte	0
	.byte	0
	.uleb128 0x1e
	.long	0x1dd3
	.long	0x55e0
	.quad	.LFB2221
	.quad	.LFE2221-.LFB2221
	.uleb128 0x1
	.byte	0x9c
	.long	0x55e0
	.long	0x55f9
	.uleb128 0x2c
	.long	.LASF318
	.long	0x55e0
	.uleb128 0x2d
	.long	0x375d
	.byte	0
	.uleb128 0x14
	.long	.LASF811
	.long	0x4403
	.uleb128 0x2
	.byte	0x91
	.sleb128 -40
	.uleb128 0x64
	.byte	0x6
	.byte	0x60
	.uleb128 0x24
	.long	0x4524
	.uleb128 0x2
	.byte	0x91
	.sleb128 -48
	.byte	0
	.byte	0
	.uleb128 0x10
	.byte	0x8
	.long	0x1e4f
	.uleb128 0x32
	.long	0x2456
	.quad	.LFB2222
	.quad	.LFE2222-.LFB2222
	.uleb128 0x1
	.byte	0x9c
	.long	0x5632
	.uleb128 0xa
	.string	"_Tp"
	.long	0x375d
	.uleb128 0x21
	.string	"__t"
	.byte	0x4
	.byte	0x49
	.long	0x55f9
	.uleb128 0x2
	.byte	0x91
	.sleb128 -24
	.byte	0
	.uleb128 0x15
	.long	0x2478
	.quad	.LFB2220
	.quad	.LFE2220-.LFB2220
	.uleb128 0x1
	.byte	0x9c
	.long	0x5684
	.uleb128 0x5
	.long	.LASF130
	.long	0x4350
	.uleb128 0xa
	.string	"_Tp"
	.long	0x375d
	.uleb128 0x23
	.long	.LASF803
	.byte	0x5
	.byte	0xcb
	.long	0x4350
	.uleb128 0x2
	.byte	0x91
	.sleb128 -24
	.uleb128 0x23
	.long	.LASF804
	.byte	0x5
	.byte	0xcb
	.long	0x4350
	.uleb128 0x2
	.byte	0x91
	.sleb128 -32
	.uleb128 0x24
	.long	0x437f
	.uleb128 0x2
	.byte	0x91
	.sleb128 -40
	.byte	0
	.uleb128 0x2e
	.long	0x11af
	.long	0x56a7
	.quad	.LFB2219
	.quad	.LFE2219-.LFB2219
	.uleb128 0x1
	.byte	0x9c
	.long	0x56a7
	.long	0x56b4
	.uleb128 0x14
	.long	.LASF811
	.long	0x43e1
	.uleb128 0x2
	.byte	0x91
	.sleb128 -24
	.byte	0
	.uleb128 0x25
	.long	0x12dd
	.byte	0x2
	.long	0x56c2
	.long	0x56d5
	.uleb128 0x18
	.long	.LASF811
	.long	0x43e1
	.uleb128 0x18
	.long	.LASF818
	.long	0x2d9b
	.byte	0
	.uleb128 0x27
	.long	0x56b4
	.long	.LASF831
	.long	0x56fc
	.quad	.LFB2217
	.quad	.LFE2217-.LFB2217
	.uleb128 0x1
	.byte	0x9c
	.long	0x56fc
	.long	0x5705
	.uleb128 0x1a
	.long	0x56c2
	.uleb128 0x2
	.byte	0x91
	.sleb128 -24
	.byte	0
	.uleb128 0x25
	.long	0x1206
	.byte	0x2
	.long	0x5713
	.long	0x571d
	.uleb128 0x18
	.long	.LASF811
	.long	0x43e1
	.byte	0
	.uleb128 0x27
	.long	0x5705
	.long	.LASF832
	.long	0x5744
	.quad	.LFB2214
	.quad	.LFE2214-.LFB2214
	.uleb128 0x1
	.byte	0x9c
	.long	0x5744
	.long	0x574d
	.uleb128 0x1a
	.long	0x5713
	.uleb128 0x2
	.byte	0x91
	.sleb128 -24
	.byte	0
	.uleb128 0x52
	.long	0x115f
	.byte	0x3
	.byte	0x51
	.byte	0x2
	.long	0x575d
	.long	0x5770
	.uleb128 0x18
	.long	.LASF811
	.long	0x43be
	.uleb128 0x18
	.long	.LASF818
	.long	0x2d9b
	.byte	0
	.uleb128 0x27
	.long	0x574d
	.long	.LASF833
	.long	0x5797
	.quad	.LFB2212
	.quad	.LFE2212-.LFB2212
	.uleb128 0x1
	.byte	0x9c
	.long	0x5797
	.long	0x57a0
	.uleb128 0x1a
	.long	0x575d
	.uleb128 0x2
	.byte	0x91
	.sleb128 -24
	.byte	0
	.uleb128 0x2e
	.long	0x18ac
	.long	0x57c3
	.quad	.LFB2097
	.quad	.LFE2097-.LFB2097
	.uleb128 0x1
	.byte	0x9c
	.long	0x57c3
	.long	0x57df
	.uleb128 0x14
	.long	.LASF811
	.long	0x4403
	.uleb128 0x2
	.byte	0x91
	.sleb128 -24
	.uleb128 0x17
	.string	"__n"
	.byte	0x3
	.value	0x31b
	.long	0x1412
	.uleb128 0x2
	.byte	0x91
	.sleb128 -32
	.byte	0
	.uleb128 0x1e
	.long	0x17ef
	.long	0x5802
	.quad	.LFB2096
	.quad	.LFE2096-.LFB2096
	.uleb128 0x1
	.byte	0x9c
	.long	0x5802
	.long	0x581e
	.uleb128 0x14
	.long	.LASF811
	.long	0x4403
	.uleb128 0x2
	.byte	0x91
	.sleb128 -24
	.uleb128 0xe
	.long	.LASF834
	.byte	0x3
	.value	0x2b1
	.long	0x1412
	.uleb128 0x2
	.byte	0x91
	.sleb128 -32
	.byte	0
	.uleb128 0x2e
	.long	0x17b1
	.long	0x5841
	.quad	.LFB2094
	.quad	.LFE2094-.LFB2094
	.uleb128 0x1
	.byte	0x9c
	.long	0x5841
	.long	0x584e
	.uleb128 0x14
	.long	.LASF811
	.long	0x442c
	.uleb128 0x2
	.byte	0x91
	.sleb128 -24
	.byte	0
	.uleb128 0x1e
	.long	0x1a34
	.long	0x5871
	.quad	.LFB2091
	.quad	.LFE2091-.LFB2091
	.uleb128 0x1
	.byte	0x9c
	.long	0x5871
	.long	0x588d
	.uleb128 0x14
	.long	.LASF811
	.long	0x4403
	.uleb128 0x2
	.byte	0x91
	.sleb128 -24
	.uleb128 0x17
	.string	"__x"
	.byte	0x3
	.value	0x3b9
	.long	0x4431
	.uleb128 0x2
	.byte	0x91
	.sleb128 -32
	.byte	0
	.uleb128 0x31
	.byte	0x8
	.long	0x1e35
	.uleb128 0x32
	.long	0x24a9
	.quad	.LFB2092
	.quad	.LFE2092-.LFB2092
	.uleb128 0x1
	.byte	0x9c
	.long	0x58c6
	.uleb128 0xa
	.string	"_Tp"
	.long	0x4385
	.uleb128 0x21
	.string	"__t"
	.byte	0x4
	.byte	0x62
	.long	0x4385
	.uleb128 0x2
	.byte	0x91
	.sleb128 -24
	.byte	0
	.uleb128 0x25
	.long	0x156d
	.byte	0x2
	.long	0x58d4
	.long	0x58e7
	.uleb128 0x18
	.long	.LASF811
	.long	0x4403
	.uleb128 0x18
	.long	.LASF818
	.long	0x2d9b
	.byte	0
	.uleb128 0x27
	.long	0x58c6
	.long	.LASF835
	.long	0x590e
	.quad	.LFB2089
	.quad	.LFE2089-.LFB2089
	.uleb128 0x1
	.byte	0x9c
	.long	0x590e
	.long	0x5917
	.uleb128 0x1a
	.long	0x58d4
	.uleb128 0x2
	.byte	0x91
	.sleb128 -24
	.byte	0
	.uleb128 0x25
	.long	0x1434
	.byte	0x2
	.long	0x5925
	.long	0x592f
	.uleb128 0x18
	.long	.LASF811
	.long	0x4403
	.byte	0
	.uleb128 0x27
	.long	0x5917
	.long	.LASF836
	.long	0x5956
	.quad	.LFB2086
	.quad	.LFE2086-.LFB2086
	.uleb128 0x1
	.byte	0x9c
	.long	0x5956
	.long	0x595f
	.uleb128 0x1a
	.long	0x5925
	.uleb128 0x2
	.byte	0x91
	.sleb128 -24
	.byte	0
	.uleb128 0x8e
	.long	.LASF837
	.byte	0x2
	.byte	0x20
	.long	0x2d94
	.quad	.LFB1839
	.quad	.LFE1839-.LFB1839
	.uleb128 0x1
	.byte	0x9c
	.long	0x59e7
	.uleb128 0x36
	.long	.LASF838
	.byte	0x2
	.byte	0x22
	.long	0x4437
	.uleb128 0x3
	.byte	0x91
	.sleb128 -672
	.uleb128 0x36
	.long	.LASF839
	.byte	0x2
	.byte	0x32
	.long	0x44dc
	.uleb128 0x3
	.byte	0x91
	.sleb128 -592
	.uleb128 0x8f
	.quad	.LBB4
	.quad	.LBE4-.LBB4
	.long	0x59c5
	.uleb128 0x36
	.long	.LASF840
	.byte	0x2
	.byte	0x23
	.long	0x2d94
	.uleb128 0x3
	.byte	0x91
	.sleb128 -680
	.byte	0
	.uleb128 0x62
	.quad	.LBB5
	.quad	.LBE5-.LBB5
	.uleb128 0x36
	.long	.LASF841
	.byte	0x2
	.byte	0x33
	.long	0x2d94
	.uleb128 0x3
	.byte	0x91
	.sleb128 -676
	.byte	0
	.byte	0
	.uleb128 0xb
	.byte	0x8
	.long	0x4437
	.uleb128 0x9
	.long	0x59e7
	.uleb128 0x52
	.long	0x4467
	.byte	0x2
	.byte	0xa
	.byte	0x2
	.long	0x5a02
	.long	0x5a15
	.uleb128 0x18
	.long	.LASF811
	.long	0x59ed
	.uleb128 0x18
	.long	.LASF818
	.long	0x2d9b
	.byte	0
	.uleb128 0x27
	.long	0x59f2
	.long	.LASF842
	.long	0x5a3c
	.quad	.LFB1844
	.quad	.LFE1844-.LFB1844
	.uleb128 0x1
	.byte	0x9c
	.long	0x5a3c
	.long	0x5a45
	.uleb128 0x1a
	.long	0x5a02
	.uleb128 0x2
	.byte	0x91
	.sleb128 -24
	.byte	0
	.uleb128 0x52
	.long	0x4484
	.byte	0x2
	.byte	0xa
	.byte	0x2
	.long	0x5a55
	.long	0x5a5f
	.uleb128 0x18
	.long	.LASF811
	.long	0x59ed
	.byte	0
	.uleb128 0x27
	.long	0x5a45
	.long	.LASF843
	.long	0x5a86
	.quad	.LFB1841
	.quad	.LFE1841-.LFB1841
	.uleb128 0x1
	.byte	0x9c
	.long	0x5a86
	.long	0x5a8f
	.uleb128 0x1a
	.long	0x5a55
	.uleb128 0x2
	.byte	0x91
	.sleb128 -24
	.byte	0
	.uleb128 0x90
	.long	.LASF844
	.byte	0x2
	.byte	0x4
	.long	.LASF845
	.quad	.LFB1838
	.quad	.LFE1838-.LFB1838
	.uleb128 0x1
	.byte	0x9c
	.long	0x5abe
	.uleb128 0x21
	.string	"v"
	.byte	0x2
	.byte	0x4
	.long	0x2d94
	.uleb128 0x2
	.byte	0x91
	.sleb128 -20
	.byte	0
	.uleb128 0x91
	.long	.LASF846
	.byte	0x1
	.byte	0xa8
	.long	.LASF847
	.long	0x2d27
	.quad	.LFB38
	.quad	.LFE38-.LFB38
	.uleb128 0x1
	.byte	0x9c
	.uleb128 0x24
	.long	0x7f0
	.uleb128 0x2
	.byte	0x91
	.sleb128 -24
	.uleb128 0x21
	.string	"__p"
	.byte	0x1
	.byte	0xa8
	.long	0x2d27
	.uleb128 0x2
	.byte	0x91
	.sleb128 -32
	.byte	0
	.byte	0
	.section	.debug_abbrev,"",@progbits
.Ldebug_abbrev0:
	.uleb128 0x1
	.uleb128 0x5
	.byte	0
	.uleb128 0x49
	.uleb128 0x13
	.byte	0
	.byte	0
	.uleb128 0x2
	.uleb128 0x8
	.byte	0
	.uleb128 0x3a
	.uleb128 0xb
	.uleb128 0x3b
	.uleb128 0xb
	.uleb128 0x18
	.uleb128 0x13
	.byte	0
	.byte	0
	.uleb128 0x3
	.uleb128 0x5
	.byte	0
	.uleb128 0x49
	.uleb128 0x13
	.uleb128 0x34
	.uleb128 0x19
	.byte	0
	.byte	0
	.uleb128 0x4
	.uleb128 0x16
	.byte	0
	.uleb128 0x3
	.uleb128 0xe
	.uleb128 0x3a
	.uleb128 0xb
	.uleb128 0x3b
	.uleb128 0xb
	.uleb128 0x49
	.uleb128 0x13
	.byte	0
	.byte	0
	.uleb128 0x5
	.uleb128 0x2f
	.byte	0
	.uleb128 0x3
	.uleb128 0xe
	.uleb128 0x49
	.uleb128 0x13
	.byte	0
	.byte	0
	.uleb128 0x6
	.uleb128 0xd
	.byte	0
	.uleb128 0x3
	.uleb128 0xe
	.uleb128 0x3a
	.uleb128 0xb
	.uleb128 0x3b
	.uleb128 0xb
	.uleb128 0x49
	.uleb128 0x13
	.uleb128 0x38
	.uleb128 0xb
	.byte	0
	.byte	0
	.uleb128 0x7
	.uleb128 0x2e
	.byte	0x1
	.uleb128 0x3f
	.uleb128 0x19
	.uleb128 0x3
	.uleb128 0xe
	.uleb128 0x3a
	.uleb128 0xb
	.uleb128 0x3b
	.uleb128 0x5
	.uleb128 0x49
	.uleb128 0x13
	.uleb128 0x3c
	.uleb128 0x19
	.uleb128 0x1
	.uleb128 0x13
	.byte	0
	.byte	0
	.uleb128 0x8
	.uleb128 0x2e
	.byte	0x1
	.uleb128 0x3f
	.uleb128 0x19
	.uleb128 0x3
	.uleb128 0xe
	.uleb128 0x3a
	.uleb128 0xb
	.uleb128 0x3b
	.uleb128 0x5
	.uleb128 0x6e
	.uleb128 0xe
	.uleb128 0x49
	.uleb128 0x13
	.uleb128 0x32
	.uleb128 0xb
	.uleb128 0x3c
	.uleb128 0x19
	.uleb128 0x64
	.uleb128 0x13
	.uleb128 0x1
	.uleb128 0x13
	.byte	0
	.byte	0
	.uleb128 0x9
	.uleb128 0x26
	.byte	0
	.uleb128 0x49
	.uleb128 0x13
	.byte	0
	.byte	0
	.uleb128 0xa
	.uleb128 0x2f
	.byte	0
	.uleb128 0x3
	.uleb128 0x8
	.uleb128 0x49
	.uleb128 0x13
	.byte	0
	.byte	0
	.uleb128 0xb
	.uleb128 0xf
	.byte	0
	.uleb128 0xb
	.uleb128 0xb
	.uleb128 0x49
	.uleb128 0x13
	.byte	0
	.byte	0
	.uleb128 0xc
	.uleb128 0x2e
	.byte	0x1
	.uleb128 0x3f
	.uleb128 0x19
	.uleb128 0x3
	.uleb128 0xe
	.uleb128 0x3a
	.uleb128 0xb
	.uleb128 0x3b
	.uleb128 0x5
	.uleb128 0x6e
	.uleb128 0xe
	.uleb128 0x49
	.uleb128 0x13
	.uleb128 0x3c
	.uleb128 0x19
	.uleb128 0x1
	.uleb128 0x13
	.byte	0
	.byte	0
	.uleb128 0xd
	.uleb128 0x2e
	.byte	0x1
	.uleb128 0x3f
	.uleb128 0x19
	.uleb128 0x3
	.uleb128 0xe
	.uleb128 0x3a
	.uleb128 0xb
	.uleb128 0x3b
	.uleb128 0xb
	.uleb128 0x49
	.uleb128 0x13
	.uleb128 0x3c
	.uleb128 0x19
	.uleb128 0x1
	.uleb128 0x13
	.byte	0
	.byte	0
	.uleb128 0xe
	.uleb128 0x5
	.byte	0
	.uleb128 0x3
	.uleb128 0xe
	.uleb128 0x3a
	.uleb128 0xb
	.uleb128 0x3b
	.uleb128 0x5
	.uleb128 0x49
	.uleb128 0x13
	.uleb128 0x2
	.uleb128 0x18
	.byte	0
	.byte	0
	.uleb128 0xf
	.uleb128 0xd
	.byte	0
	.uleb128 0x3
	.uleb128 0xe
	.uleb128 0x3a
	.uleb128 0xb
	.uleb128 0x3b
	.uleb128 0xb
	.uleb128 0x49
	.uleb128 0x13
	.uleb128 0x3f
	.uleb128 0x19
	.uleb128 0x3c
	.uleb128 0x19
	.byte	0
	.byte	0
	.uleb128 0x10
	.uleb128 0x10
	.byte	0
	.uleb128 0xb
	.uleb128 0xb
	.uleb128 0x49
	.uleb128 0x13
	.byte	0
	.byte	0
	.uleb128 0x11
	.uleb128 0x13
	.byte	0x1
	.uleb128 0x3
	.uleb128 0xe
	.uleb128 0xb
	.uleb128 0xb
	.uleb128 0x3a
	.uleb128 0xb
	.uleb128 0x3b
	.uleb128 0xb
	.uleb128 0x1
	.uleb128 0x13
	.byte	0
	.byte	0
	.uleb128 0x12
	.uleb128 0x2e
	.byte	0x1
	.uleb128 0x3f
	.uleb128 0x19
	.uleb128 0x3
	.uleb128 0xe
	.uleb128 0x3a
	.uleb128 0xb
	.uleb128 0x3b
	.uleb128 0x5
	.uleb128 0x6e
	.uleb128 0xe
	.uleb128 0x32
	.uleb128 0xb
	.uleb128 0x3c
	.uleb128 0x19
	.uleb128 0x64
	.uleb128 0x13
	.uleb128 0x1
	.uleb128 0x13
	.byte	0
	.byte	0
	.uleb128 0x13
	.uleb128 0xd
	.byte	0
	.uleb128 0x3
	.uleb128 0xe
	.uleb128 0x3a
	.uleb128 0xb
	.uleb128 0x3b
	.uleb128 0x5
	.uleb128 0x49
	.uleb128 0x13
	.uleb128 0x38
	.uleb128 0xb
	.byte	0
	.byte	0
	.uleb128 0x14
	.uleb128 0x5
	.byte	0
	.uleb128 0x3
	.uleb128 0xe
	.uleb128 0x49
	.uleb128 0x13
	.uleb128 0x34
	.uleb128 0x19
	.uleb128 0x2
	.uleb128 0x18
	.byte	0
	.byte	0
	.uleb128 0x15
	.uleb128 0x2e
	.byte	0x1
	.uleb128 0x47
	.uleb128 0x13
	.uleb128 0x11
	.uleb128 0x1
	.uleb128 0x12
	.uleb128 0x7
	.uleb128 0x40
	.uleb128 0x18
	.uleb128 0x2116
	.uleb128 0x19
	.uleb128 0x1
	.uleb128 0x13
	.byte	0
	.byte	0
	.uleb128 0x16
	.uleb128 0x24
	.byte	0
	.uleb128 0xb
	.uleb128 0xb
	.uleb128 0x3e
	.uleb128 0xb
	.uleb128 0x3
	.uleb128 0xe
	.byte	0
	.byte	0
	.uleb128 0x17
	.uleb128 0x5
	.byte	0
	.uleb128 0x3
	.uleb128 0x8
	.uleb128 0x3a
	.uleb128 0xb
	.uleb128 0x3b
	.uleb128 0x5
	.uleb128 0x49
	.uleb128 0x13
	.uleb128 0x2
	.uleb128 0x18
	.byte	0
	.byte	0
	.uleb128 0x18
	.uleb128 0x5
	.byte	0
	.uleb128 0x3
	.uleb128 0xe
	.uleb128 0x49
	.uleb128 0x13
	.uleb128 0x34
	.uleb128 0x19
	.byte	0
	.byte	0
	.uleb128 0x19
	.uleb128 0x2e
	.byte	0x1
	.uleb128 0x3f
	.uleb128 0x19
	.uleb128 0x3
	.uleb128 0xe
	.uleb128 0x3a
	.uleb128 0xb
	.uleb128 0x3b
	.uleb128 0xb
	.uleb128 0x6e
	.uleb128 0xe
	.uleb128 0x32
	.uleb128 0xb
	.uleb128 0x3c
	.uleb128 0x19
	.uleb128 0x64
	.uleb128 0x13
	.uleb128 0x1
	.uleb128 0x13
	.byte	0
	.byte	0
	.uleb128 0x1a
	.uleb128 0x5
	.byte	0
	.uleb128 0x31
	.uleb128 0x13
	.uleb128 0x2
	.uleb128 0x18
	.byte	0
	.byte	0
	.uleb128 0x1b
	.uleb128 0x2e
	.byte	0x1
	.uleb128 0x3f
	.uleb128 0x19
	.uleb128 0x3
	.uleb128 0xe
	.uleb128 0x3a
	.uleb128 0xb
	.uleb128 0x3b
	.uleb128 0xb
	.uleb128 0x6e
	.uleb128 0xe
	.uleb128 0x3c
	.uleb128 0x19
	.uleb128 0x64
	.uleb128 0x13
	.uleb128 0x1
	.uleb128 0x13
	.byte	0
	.byte	0
	.uleb128 0x1c
	.uleb128 0x16
	.byte	0
	.uleb128 0x3
	.uleb128 0xe
	.uleb128 0x3a
	.uleb128 0xb
	.uleb128 0x3b
	.uleb128 0xb
	.uleb128 0x49
	.uleb128 0x13
	.uleb128 0x32
	.uleb128 0xb
	.byte	0
	.byte	0
	.uleb128 0x1d
	.uleb128 0x34
	.byte	0
	.uleb128 0x3
	.uleb128 0xe
	.uleb128 0x3a
	.uleb128 0xb
	.uleb128 0x3b
	.uleb128 0xb
	.uleb128 0x49
	.uleb128 0x13
	.uleb128 0x3f
	.uleb128 0x19
	.uleb128 0x3c
	.uleb128 0x19
	.byte	0
	.byte	0
	.uleb128 0x1e
	.uleb128 0x2e
	.byte	0x1
	.uleb128 0x47
	.uleb128 0x13
	.uleb128 0x64
	.uleb128 0x13
	.uleb128 0x11
	.uleb128 0x1
	.uleb128 0x12
	.uleb128 0x7
	.uleb128 0x40
	.uleb128 0x18
	.uleb128 0x64
	.uleb128 0x13
	.uleb128 0x2116
	.uleb128 0x19
	.uleb128 0x1
	.uleb128 0x13
	.byte	0
	.byte	0
	.uleb128 0x1f
	.uleb128 0x16
	.byte	0
	.uleb128 0x3
	.uleb128 0xe
	.uleb128 0x3a
	.uleb128 0xb
	.uleb128 0x3b
	.uleb128 0x5
	.uleb128 0x49
	.uleb128 0x13
	.byte	0
	.byte	0
	.uleb128 0x20
	.uleb128 0x34
	.byte	0
	.uleb128 0x3
	.uleb128 0xe
	.uleb128 0x3a
	.uleb128 0xb
	.uleb128 0x3b
	.uleb128 0x5
	.uleb128 0x49
	.uleb128 0x13
	.uleb128 0x2
	.uleb128 0x18
	.byte	0
	.byte	0
	.uleb128 0x21
	.uleb128 0x5
	.byte	0
	.uleb128 0x3
	.uleb128 0x8
	.uleb128 0x3a
	.uleb128 0xb
	.uleb128 0x3b
	.uleb128 0xb
	.uleb128 0x49
	.uleb128 0x13
	.uleb128 0x2
	.uleb128 0x18
	.byte	0
	.byte	0
	.uleb128 0x22
	.uleb128 0x8
	.byte	0
	.uleb128 0x3a
	.uleb128 0xb
	.uleb128 0x3b
	.uleb128 0x5
	.uleb128 0x18
	.uleb128 0x13
	.byte	0
	.byte	0
	.uleb128 0x23
	.uleb128 0x5
	.byte	0
	.uleb128 0x3
	.uleb128 0xe
	.uleb128 0x3a
	.uleb128 0xb
	.uleb128 0x3b
	.uleb128 0xb
	.uleb128 0x49
	.uleb128 0x13
	.uleb128 0x2
	.uleb128 0x18
	.byte	0
	.byte	0
	.uleb128 0x24
	.uleb128 0x5
	.byte	0
	.uleb128 0x49
	.uleb128 0x13
	.uleb128 0x2
	.uleb128 0x18
	.byte	0
	.byte	0
	.uleb128 0x25
	.uleb128 0x2e
	.byte	0x1
	.uleb128 0x47
	.uleb128 0x13
	.uleb128 0x20
	.uleb128 0xb
	.uleb128 0x64
	.uleb128 0x13
	.uleb128 0x1
	.uleb128 0x13
	.byte	0
	.byte	0
	.uleb128 0x26
	.uleb128 0x2e
	.byte	0x1
	.uleb128 0x3f
	.uleb128 0x19
	.uleb128 0x3
	.uleb128 0xe
	.uleb128 0x3a
	.uleb128 0xb
	.uleb128 0x3b
	.uleb128 0xb
	.uleb128 0x6e
	.uleb128 0xe
	.uleb128 0x49
	.uleb128 0x13
	.uleb128 0x32
	.uleb128 0xb
	.uleb128 0x3c
	.uleb128 0x19
	.uleb128 0x64
	.uleb128 0x13
	.uleb128 0x1
	.uleb128 0x13
	.byte	0
	.byte	0
	.uleb128 0x27
	.uleb128 0x2e
	.byte	0x1
	.uleb128 0x31
	.uleb128 0x13
	.uleb128 0x6e
	.uleb128 0xe
	.uleb128 0x64
	.uleb128 0x13
	.uleb128 0x11
	.uleb128 0x1
	.uleb128 0x12
	.uleb128 0x7
	.uleb128 0x40
	.uleb128 0x18
	.uleb128 0x64
	.uleb128 0x13
	.uleb128 0x2116
	.uleb128 0x19
	.uleb128 0x1
	.uleb128 0x13
	.byte	0
	.byte	0
	.uleb128 0x28
	.uleb128 0x2e
	.byte	0x1
	.uleb128 0x3f
	.uleb128 0x19
	.uleb128 0x3
	.uleb128 0xe
	.uleb128 0x3a
	.uleb128 0xb
	.uleb128 0x3b
	.uleb128 0xb
	.uleb128 0x6e
	.uleb128 0xe
	.uleb128 0x49
	.uleb128 0x13
	.uleb128 0x3c
	.uleb128 0x19
	.uleb128 0x64
	.uleb128 0x13
	.uleb128 0x1
	.uleb128 0x13
	.byte	0
	.byte	0
	.uleb128 0x29
	.uleb128 0x2e
	.byte	0x1
	.uleb128 0x3f
	.uleb128 0x19
	.uleb128 0x3
	.uleb128 0xe
	.uleb128 0x3a
	.uleb128 0xb
	.uleb128 0x3b
	.uleb128 0xb
	.uleb128 0x6e
	.uleb128 0xe
	.uleb128 0x49
	.uleb128 0x13
	.uleb128 0x3c
	.uleb128 0x19
	.uleb128 0x1
	.uleb128 0x13
	.byte	0
	.byte	0
	.uleb128 0x2a
	.uleb128 0x34
	.byte	0
	.uleb128 0x3
	.uleb128 0xe
	.uleb128 0x3a
	.uleb128 0xb
	.uleb128 0x3b
	.uleb128 0xb
	.uleb128 0x6e
	.uleb128 0xe
	.uleb128 0x49
	.uleb128 0x13
	.uleb128 0x3f
	.uleb128 0x19
	.uleb128 0x3c
	.uleb128 0x19
	.byte	0
	.byte	0
	.uleb128 0x2b
	.uleb128 0x13
	.byte	0x1
	.uleb128 0x3
	.uleb128 0xe
	.uleb128 0xb
	.uleb128 0xb
	.uleb128 0x3a
	.uleb128 0xb
	.uleb128 0x3b
	.uleb128 0x5
	.uleb128 0x1
	.uleb128 0x13
	.byte	0
	.byte	0
	.uleb128 0x2c
	.uleb128 0x4107
	.byte	0x1
	.uleb128 0x3
	.uleb128 0xe
	.uleb128 0x1
	.uleb128 0x13
	.byte	0
	.byte	0
	.uleb128 0x2d
	.uleb128 0x2f
	.byte	0
	.uleb128 0x49
	.uleb128 0x13
	.byte	0
	.byte	0
	.uleb128 0x2e
	.uleb128 0x2e
	.byte	0x1
	.uleb128 0x47
	.uleb128 0x13
	.uleb128 0x64
	.uleb128 0x13
	.uleb128 0x11
	.uleb128 0x1
	.uleb128 0x12
	.uleb128 0x7
	.uleb128 0x40
	.uleb128 0x18
	.uleb128 0x64
	.uleb128 0x13
	.uleb128 0x2117
	.uleb128 0x19
	.uleb128 0x1
	.uleb128 0x13
	.byte	0
	.byte	0
	.uleb128 0x2f
	.uleb128 0x2f
	.byte	0
	.uleb128 0x3
	.uleb128 0xe
	.uleb128 0x49
	.uleb128 0x13
	.uleb128 0x1e
	.uleb128 0x19
	.byte	0
	.byte	0
	.uleb128 0x30
	.uleb128 0x16
	.byte	0
	.uleb128 0x3
	.uleb128 0xe
	.uleb128 0x3a
	.uleb128 0xb
	.uleb128 0x3b
	.uleb128 0x5
	.uleb128 0x49
	.uleb128 0x13
	.uleb128 0x32
	.uleb128 0xb
	.byte	0
	.byte	0
	.uleb128 0x31
	.uleb128 0x42
	.byte	0
	.uleb128 0xb
	.uleb128 0xb
	.uleb128 0x49
	.uleb128 0x13
	.byte	0
	.byte	0
	.uleb128 0x32
	.uleb128 0x2e
	.byte	0x1
	.uleb128 0x47
	.uleb128 0x13
	.uleb128 0x11
	.uleb128 0x1
	.uleb128 0x12
	.uleb128 0x7
	.uleb128 0x40
	.uleb128 0x18
	.uleb128 0x2117
	.uleb128 0x19
	.uleb128 0x1
	.uleb128 0x13
	.byte	0
	.byte	0
	.uleb128 0x33
	.uleb128 0x1
	.byte	0x1
	.uleb128 0x49
	.uleb128 0x13
	.uleb128 0x1
	.uleb128 0x13
	.byte	0
	.byte	0
	.uleb128 0x34
	.uleb128 0x18
	.byte	0
	.byte	0
	.byte	0
	.uleb128 0x35
	.uleb128 0x2e
	.byte	0x1
	.uleb128 0x3f
	.uleb128 0x19
	.uleb128 0x3
	.uleb128 0xe
	.uleb128 0x3a
	.uleb128 0xb
	.uleb128 0x3b
	.uleb128 0x5
	.uleb128 0x3c
	.uleb128 0x19
	.uleb128 0x1
	.uleb128 0x13
	.byte	0
	.byte	0
	.uleb128 0x36
	.uleb128 0x34
	.byte	0
	.uleb128 0x3
	.uleb128 0xe
	.uleb128 0x3a
	.uleb128 0xb
	.uleb128 0x3b
	.uleb128 0xb
	.uleb128 0x49
	.uleb128 0x13
	.uleb128 0x2
	.uleb128 0x18
	.byte	0
	.byte	0
	.uleb128 0x37
	.uleb128 0x2
	.byte	0
	.uleb128 0x3
	.uleb128 0xe
	.uleb128 0x3c
	.uleb128 0x19
	.byte	0
	.byte	0
	.uleb128 0x38
	.uleb128 0x2e
	.byte	0x1
	.uleb128 0x3f
	.uleb128 0x19
	.uleb128 0x3
	.uleb128 0xe
	.uleb128 0x3a
	.uleb128 0xb
	.uleb128 0x3b
	.uleb128 0x5
	.uleb128 0x6e
	.uleb128 0xe
	.uleb128 0x3c
	.uleb128 0x19
	.uleb128 0x1
	.uleb128 0x13
	.byte	0
	.byte	0
	.uleb128 0x39
	.uleb128 0x2e
	.byte	0x1
	.uleb128 0x3f
	.uleb128 0x19
	.uleb128 0x3
	.uleb128 0xe
	.uleb128 0x3a
	.uleb128 0xb
	.uleb128 0x3b
	.uleb128 0x5
	.uleb128 0x6e
	.uleb128 0xe
	.uleb128 0x49
	.uleb128 0x13
	.uleb128 0x3c
	.uleb128 0x19
	.byte	0
	.byte	0
	.uleb128 0x3a
	.uleb128 0x2
	.byte	0x1
	.uleb128 0x3
	.uleb128 0xe
	.uleb128 0x3c
	.uleb128 0x19
	.uleb128 0x1
	.uleb128 0x13
	.byte	0
	.byte	0
	.uleb128 0x3b
	.uleb128 0x2e
	.byte	0
	.uleb128 0x3f
	.uleb128 0x19
	.uleb128 0x3
	.uleb128 0xe
	.uleb128 0x3a
	.uleb128 0xb
	.uleb128 0x3b
	.uleb128 0xb
	.uleb128 0x6e
	.uleb128 0xe
	.uleb128 0x49
	.uleb128 0x13
	.uleb128 0x3c
	.uleb128 0x19
	.byte	0
	.byte	0
	.uleb128 0x3c
	.uleb128 0x13
	.byte	0x1
	.uleb128 0xb
	.uleb128 0xb
	.uleb128 0x3a
	.uleb128 0xb
	.uleb128 0x3b
	.uleb128 0xb
	.uleb128 0x6e
	.uleb128 0xe
	.uleb128 0x1
	.uleb128 0x13
	.byte	0
	.byte	0
	.uleb128 0x3d
	.uleb128 0x21
	.byte	0
	.uleb128 0x49
	.uleb128 0x13
	.uleb128 0x2f
	.uleb128 0xb
	.byte	0
	.byte	0
	.uleb128 0x3e
	.uleb128 0x34
	.byte	0
	.uleb128 0x6e
	.uleb128 0xe
	.uleb128 0x47
	.uleb128 0x13
	.uleb128 0x1c
	.uleb128 0xb
	.byte	0
	.byte	0
	.uleb128 0x3f
	.uleb128 0x2
	.byte	0x1
	.uleb128 0x3
	.uleb128 0xe
	.uleb128 0xb
	.uleb128 0xb
	.uleb128 0x3a
	.uleb128 0xb
	.uleb128 0x3b
	.uleb128 0xb
	.uleb128 0x1
	.uleb128 0x13
	.byte	0
	.byte	0
	.uleb128 0x40
	.uleb128 0x39
	.byte	0
	.uleb128 0x3
	.uleb128 0xe
	.uleb128 0x3a
	.uleb128 0xb
	.uleb128 0x3b
	.uleb128 0x5
	.byte	0
	.byte	0
	.uleb128 0x41
	.uleb128 0x2e
	.byte	0x1
	.uleb128 0x3f
	.uleb128 0x19
	.uleb128 0x3
	.uleb128 0x8
	.uleb128 0x3a
	.uleb128 0xb
	.uleb128 0x3b
	.uleb128 0x5
	.uleb128 0x6e
	.uleb128 0xe
	.uleb128 0x49
	.uleb128 0x13
	.uleb128 0x3c
	.uleb128 0x19
	.uleb128 0x1
	.uleb128 0x13
	.byte	0
	.byte	0
	.uleb128 0x42
	.uleb128 0x2e
	.byte	0x1
	.uleb128 0x3f
	.uleb128 0x19
	.uleb128 0x3
	.uleb128 0xe
	.uleb128 0x3a
	.uleb128 0xb
	.uleb128 0x3b
	.uleb128 0x5
	.uleb128 0x6e
	.uleb128 0xe
	.uleb128 0x32
	.uleb128 0xb
	.uleb128 0x3c
	.uleb128 0x19
	.uleb128 0x63
	.uleb128 0x19
	.uleb128 0x64
	.uleb128 0x13
	.uleb128 0x1
	.uleb128 0x13
	.byte	0
	.byte	0
	.uleb128 0x43
	.uleb128 0x2e
	.byte	0x1
	.uleb128 0x3f
	.uleb128 0x19
	.uleb128 0x3
	.uleb128 0x8
	.uleb128 0x3a
	.uleb128 0xb
	.uleb128 0x3b
	.uleb128 0x5
	.uleb128 0x6e
	.uleb128 0xe
	.uleb128 0x49
	.uleb128 0x13
	.uleb128 0x32
	.uleb128 0xb
	.uleb128 0x3c
	.uleb128 0x19
	.uleb128 0x64
	.uleb128 0x13
	.uleb128 0x1
	.uleb128 0x13
	.byte	0
	.byte	0
	.uleb128 0x44
	.uleb128 0x30
	.byte	0
	.uleb128 0x3
	.uleb128 0xe
	.uleb128 0x49
	.uleb128 0x13
	.uleb128 0x1c
	.uleb128 0xa
	.byte	0
	.byte	0
	.uleb128 0x45
	.uleb128 0x34
	.byte	0
	.uleb128 0x3
	.uleb128 0xe
	.uleb128 0x3a
	.uleb128 0xb
	.uleb128 0x3b
	.uleb128 0x5
	.uleb128 0x49
	.uleb128 0x13
	.uleb128 0x3f
	.uleb128 0x19
	.uleb128 0x3c
	.uleb128 0x19
	.byte	0
	.byte	0
	.uleb128 0x46
	.uleb128 0x2e
	.byte	0x1
	.uleb128 0x31
	.uleb128 0x13
	.uleb128 0x6e
	.uleb128 0xe
	.uleb128 0x64
	.uleb128 0x13
	.uleb128 0x11
	.uleb128 0x1
	.uleb128 0x12
	.uleb128 0x7
	.uleb128 0x40
	.uleb128 0x18
	.uleb128 0x64
	.uleb128 0x13
	.uleb128 0x2117
	.uleb128 0x19
	.uleb128 0x1
	.uleb128 0x13
	.byte	0
	.byte	0
	.uleb128 0x47
	.uleb128 0x39
	.byte	0
	.uleb128 0x3
	.uleb128 0xe
	.uleb128 0x3a
	.uleb128 0xb
	.uleb128 0x3b
	.uleb128 0xb
	.byte	0
	.byte	0
	.uleb128 0x48
	.uleb128 0x3a
	.byte	0
	.uleb128 0x3a
	.uleb128 0xb
	.uleb128 0x3b
	.uleb128 0xb
	.uleb128 0x18
	.uleb128 0x13
	.byte	0
	.byte	0
	.uleb128 0x49
	.uleb128 0x39
	.byte	0x1
	.uleb128 0x3
	.uleb128 0xe
	.uleb128 0x3a
	.uleb128 0xb
	.uleb128 0x3b
	.uleb128 0xb
	.uleb128 0x1
	.uleb128 0x13
	.byte	0
	.byte	0
	.uleb128 0x4a
	.uleb128 0x4
	.byte	0x1
	.uleb128 0x3e
	.uleb128 0xb
	.uleb128 0xb
	.uleb128 0xb
	.uleb128 0x49
	.uleb128 0x13
	.uleb128 0x3a
	.uleb128 0xb
	.uleb128 0x3b
	.uleb128 0xb
	.uleb128 0x1
	.uleb128 0x13
	.byte	0
	.byte	0
	.uleb128 0x4b
	.uleb128 0x28
	.byte	0
	.uleb128 0x3
	.uleb128 0xe
	.uleb128 0x1c
	.uleb128 0xb
	.byte	0
	.byte	0
	.uleb128 0x4c
	.uleb128 0x3a
	.byte	0
	.uleb128 0x3a
	.uleb128 0xb
	.uleb128 0x3b
	.uleb128 0x5
	.uleb128 0x18
	.uleb128 0x13
	.byte	0
	.byte	0
	.uleb128 0x4d
	.uleb128 0x2e
	.byte	0x1
	.uleb128 0x3f
	.uleb128 0x19
	.uleb128 0x3
	.uleb128 0xe
	.uleb128 0x3a
	.uleb128 0xb
	.uleb128 0x3b
	.uleb128 0xb
	.uleb128 0x6e
	.uleb128 0xe
	.uleb128 0x3c
	.uleb128 0x19
	.uleb128 0x1
	.uleb128 0x13
	.byte	0
	.byte	0
	.uleb128 0x4e
	.uleb128 0x2e
	.byte	0
	.uleb128 0x3f
	.uleb128 0x19
	.uleb128 0x3
	.uleb128 0xe
	.uleb128 0x3a
	.uleb128 0xb
	.uleb128 0x3b
	.uleb128 0x5
	.uleb128 0x49
	.uleb128 0x13
	.uleb128 0x3c
	.uleb128 0x19
	.byte	0
	.byte	0
	.uleb128 0x4f
	.uleb128 0xd
	.byte	0
	.uleb128 0x3
	.uleb128 0x8
	.uleb128 0x3a
	.uleb128 0xb
	.uleb128 0x3b
	.uleb128 0xb
	.uleb128 0x49
	.uleb128 0x13
	.uleb128 0x38
	.uleb128 0xb
	.byte	0
	.byte	0
	.uleb128 0x50
	.uleb128 0x34
	.byte	0
	.uleb128 0x6e
	.uleb128 0xe
	.uleb128 0x47
	.uleb128 0x13
	.uleb128 0x1c
	.uleb128 0xd
	.byte	0
	.byte	0
	.uleb128 0x51
	.uleb128 0x34
	.byte	0
	.uleb128 0x6e
	.uleb128 0xe
	.uleb128 0x47
	.uleb128 0x13
	.uleb128 0x1c
	.uleb128 0x5
	.byte	0
	.byte	0
	.uleb128 0x52
	.uleb128 0x2e
	.byte	0x1
	.uleb128 0x47
	.uleb128 0x13
	.uleb128 0x3a
	.uleb128 0xb
	.uleb128 0x3b
	.uleb128 0xb
	.uleb128 0x20
	.uleb128 0xb
	.uleb128 0x64
	.uleb128 0x13
	.uleb128 0x1
	.uleb128 0x13
	.byte	0
	.byte	0
	.uleb128 0x53
	.uleb128 0x2e
	.byte	0x1
	.uleb128 0x3f
	.uleb128 0x19
	.uleb128 0x3
	.uleb128 0xe
	.uleb128 0x3a
	.uleb128 0xb
	.uleb128 0x3b
	.uleb128 0xb
	.uleb128 0x6e
	.uleb128 0xe
	.uleb128 0x3c
	.uleb128 0x19
	.uleb128 0x63
	.uleb128 0x19
	.uleb128 0x8b
	.uleb128 0xb
	.uleb128 0x64
	.uleb128 0x13
	.byte	0
	.byte	0
	.uleb128 0x54
	.uleb128 0xd
	.byte	0
	.uleb128 0x3
	.uleb128 0xe
	.uleb128 0x3a
	.uleb128 0xb
	.uleb128 0x3b
	.uleb128 0xb
	.uleb128 0x49
	.uleb128 0x13
	.uleb128 0x3f
	.uleb128 0x19
	.uleb128 0x3c
	.uleb128 0x19
	.uleb128 0x6c
	.uleb128 0x19
	.byte	0
	.byte	0
	.uleb128 0x55
	.uleb128 0x30
	.byte	0
	.uleb128 0x3
	.uleb128 0x8
	.uleb128 0x49
	.uleb128 0x13
	.uleb128 0x1c
	.uleb128 0xa
	.byte	0
	.byte	0
	.uleb128 0x56
	.uleb128 0x2e
	.byte	0
	.uleb128 0x3f
	.uleb128 0x19
	.uleb128 0x3
	.uleb128 0x8
	.uleb128 0x3a
	.uleb128 0xb
	.uleb128 0x3b
	.uleb128 0x5
	.uleb128 0x6e
	.uleb128 0xe
	.uleb128 0x49
	.uleb128 0x13
	.uleb128 0x3c
	.uleb128 0x19
	.byte	0
	.byte	0
	.uleb128 0x57
	.uleb128 0xd
	.byte	0
	.uleb128 0x3
	.uleb128 0xe
	.uleb128 0x3a
	.uleb128 0xb
	.uleb128 0x3b
	.uleb128 0x5
	.uleb128 0x49
	.uleb128 0x13
	.uleb128 0x3f
	.uleb128 0x19
	.uleb128 0x3c
	.uleb128 0x19
	.byte	0
	.byte	0
	.uleb128 0x58
	.uleb128 0x2e
	.byte	0x1
	.uleb128 0x3f
	.uleb128 0x19
	.uleb128 0x3
	.uleb128 0xe
	.uleb128 0x3a
	.uleb128 0xb
	.uleb128 0x3b
	.uleb128 0xb
	.uleb128 0x6e
	.uleb128 0xe
	.uleb128 0x49
	.uleb128 0x13
	.uleb128 0x3c
	.uleb128 0x19
	.byte	0
	.byte	0
	.uleb128 0x59
	.uleb128 0x1c
	.byte	0
	.uleb128 0x49
	.uleb128 0x13
	.uleb128 0x38
	.uleb128 0xb
	.uleb128 0x32
	.uleb128 0xb
	.byte	0
	.byte	0
	.uleb128 0x5a
	.uleb128 0x1c
	.byte	0
	.uleb128 0x49
	.uleb128 0x13
	.uleb128 0x38
	.uleb128 0xb
	.byte	0
	.byte	0
	.uleb128 0x5b
	.uleb128 0x2e
	.byte	0x1
	.uleb128 0x3f
	.uleb128 0x19
	.uleb128 0x3
	.uleb128 0xe
	.uleb128 0x6e
	.uleb128 0xe
	.uleb128 0x34
	.uleb128 0x19
	.uleb128 0x3c
	.uleb128 0x19
	.uleb128 0x64
	.uleb128 0x13
	.byte	0
	.byte	0
	.uleb128 0x5c
	.uleb128 0x2e
	.byte	0x1
	.uleb128 0x3f
	.uleb128 0x19
	.uleb128 0x3
	.uleb128 0xe
	.uleb128 0x3a
	.uleb128 0xb
	.uleb128 0x3b
	.uleb128 0x5
	.uleb128 0x6e
	.uleb128 0xe
	.uleb128 0x3c
	.uleb128 0x19
	.uleb128 0x64
	.uleb128 0x13
	.uleb128 0x1
	.uleb128 0x13
	.byte	0
	.byte	0
	.uleb128 0x5d
	.uleb128 0x2
	.byte	0x1
	.uleb128 0x3
	.uleb128 0xe
	.uleb128 0xb
	.uleb128 0xb
	.uleb128 0x3a
	.uleb128 0xb
	.uleb128 0x3b
	.uleb128 0x5
	.uleb128 0x1
	.uleb128 0x13
	.byte	0
	.byte	0
	.uleb128 0x5e
	.uleb128 0xd
	.byte	0
	.uleb128 0x3
	.uleb128 0xe
	.uleb128 0x3a
	.uleb128 0xb
	.uleb128 0x3b
	.uleb128 0x5
	.uleb128 0x49
	.uleb128 0x13
	.uleb128 0x38
	.uleb128 0xb
	.uleb128 0x32
	.uleb128 0xb
	.byte	0
	.byte	0
	.uleb128 0x5f
	.uleb128 0xd
	.byte	0
	.uleb128 0x3
	.uleb128 0xe
	.uleb128 0x3a
	.uleb128 0xb
	.uleb128 0x3b
	.uleb128 0xb
	.uleb128 0x49
	.uleb128 0x13
	.byte	0
	.byte	0
	.uleb128 0x60
	.uleb128 0x2e
	.byte	0
	.uleb128 0x3f
	.uleb128 0x19
	.uleb128 0x3
	.uleb128 0xe
	.uleb128 0x3a
	.uleb128 0xb
	.uleb128 0x3b
	.uleb128 0xb
	.uleb128 0x49
	.uleb128 0x13
	.uleb128 0x3c
	.uleb128 0x19
	.byte	0
	.byte	0
	.uleb128 0x61
	.uleb128 0x13
	.byte	0x1
	.uleb128 0x3
	.uleb128 0xe
	.uleb128 0xb
	.uleb128 0x5
	.uleb128 0x3a
	.uleb128 0xb
	.uleb128 0x3b
	.uleb128 0xb
	.uleb128 0x1
	.uleb128 0x13
	.byte	0
	.byte	0
	.uleb128 0x62
	.uleb128 0xb
	.byte	0x1
	.uleb128 0x11
	.uleb128 0x1
	.uleb128 0x12
	.uleb128 0x7
	.byte	0
	.byte	0
	.uleb128 0x63
	.uleb128 0x5
	.byte	0
	.uleb128 0x3
	.uleb128 0x8
	.uleb128 0x3a
	.uleb128 0xb
	.uleb128 0x3b
	.uleb128 0x5
	.uleb128 0x49
	.uleb128 0x13
	.byte	0
	.byte	0
	.uleb128 0x64
	.uleb128 0x4108
	.byte	0x1
	.uleb128 0x3a
	.uleb128 0xb
	.uleb128 0x3b
	.uleb128 0xb
	.byte	0
	.byte	0
	.uleb128 0x65
	.uleb128 0x11
	.byte	0x1
	.uleb128 0x25
	.uleb128 0xe
	.uleb128 0x13
	.uleb128 0xb
	.uleb128 0x3
	.uleb128 0xe
	.uleb128 0x1b
	.uleb128 0xe
	.uleb128 0x55
	.uleb128 0x17
	.uleb128 0x11
	.uleb128 0x1
	.uleb128 0x10
	.uleb128 0x17
	.byte	0
	.byte	0
	.uleb128 0x66
	.uleb128 0x39
	.byte	0x1
	.uleb128 0x3
	.uleb128 0x8
	.uleb128 0x3a
	.uleb128 0xb
	.uleb128 0x3b
	.uleb128 0xb
	.uleb128 0x1
	.uleb128 0x13
	.byte	0
	.byte	0
	.uleb128 0x67
	.uleb128 0x2e
	.byte	0x1
	.uleb128 0x3f
	.uleb128 0x19
	.uleb128 0x3
	.uleb128 0xe
	.uleb128 0x3a
	.uleb128 0xb
	.uleb128 0x3b
	.uleb128 0xb
	.uleb128 0x6e
	.uleb128 0xe
	.uleb128 0x3c
	.uleb128 0x19
	.uleb128 0x63
	.uleb128 0x19
	.uleb128 0x64
	.uleb128 0x13
	.uleb128 0x1
	.uleb128 0x13
	.byte	0
	.byte	0
	.uleb128 0x68
	.uleb128 0x2e
	.byte	0x1
	.uleb128 0x3f
	.uleb128 0x19
	.uleb128 0x3
	.uleb128 0xe
	.uleb128 0x3a
	.uleb128 0xb
	.uleb128 0x3b
	.uleb128 0xb
	.uleb128 0x6e
	.uleb128 0xe
	.uleb128 0x49
	.uleb128 0x13
	.uleb128 0x32
	.uleb128 0xb
	.uleb128 0x3c
	.uleb128 0x19
	.uleb128 0x63
	.uleb128 0x19
	.uleb128 0x64
	.uleb128 0x13
	.uleb128 0x1
	.uleb128 0x13
	.byte	0
	.byte	0
	.uleb128 0x69
	.uleb128 0x2e
	.byte	0x1
	.uleb128 0x3f
	.uleb128 0x19
	.uleb128 0x3
	.uleb128 0xe
	.uleb128 0x3a
	.uleb128 0xb
	.uleb128 0x3b
	.uleb128 0xb
	.uleb128 0x6e
	.uleb128 0xe
	.uleb128 0x49
	.uleb128 0x13
	.uleb128 0x32
	.uleb128 0xb
	.uleb128 0x3c
	.uleb128 0x19
	.uleb128 0x64
	.uleb128 0x13
	.byte	0
	.byte	0
	.uleb128 0x6a
	.uleb128 0x2e
	.byte	0x1
	.uleb128 0x3f
	.uleb128 0x19
	.uleb128 0x3
	.uleb128 0xe
	.uleb128 0x3a
	.uleb128 0xb
	.uleb128 0x3b
	.uleb128 0xb
	.uleb128 0x6e
	.uleb128 0xe
	.uleb128 0x87
	.uleb128 0x19
	.uleb128 0x3c
	.uleb128 0x19
	.uleb128 0x1
	.uleb128 0x13
	.byte	0
	.byte	0
	.uleb128 0x6b
	.uleb128 0x34
	.byte	0
	.uleb128 0x3
	.uleb128 0xe
	.uleb128 0x3a
	.uleb128 0xb
	.uleb128 0x3b
	.uleb128 0xb
	.uleb128 0x49
	.uleb128 0x13
	.uleb128 0x3c
	.uleb128 0x19
	.uleb128 0x1c
	.uleb128 0xa
	.uleb128 0x6c
	.uleb128 0x19
	.byte	0
	.byte	0
	.uleb128 0x6c
	.uleb128 0x39
	.byte	0x1
	.uleb128 0x3
	.uleb128 0xe
	.uleb128 0x3a
	.uleb128 0xb
	.uleb128 0x3b
	.uleb128 0x5
	.uleb128 0x1
	.uleb128 0x13
	.byte	0
	.byte	0
	.uleb128 0x6d
	.uleb128 0x39
	.byte	0
	.uleb128 0x3
	.uleb128 0x8
	.uleb128 0x3a
	.uleb128 0xb
	.uleb128 0x3b
	.uleb128 0xb
	.byte	0
	.byte	0
	.uleb128 0x6e
	.uleb128 0x2
	.byte	0x1
	.uleb128 0x3
	.uleb128 0xe
	.uleb128 0xb
	.uleb128 0xb
	.uleb128 0x3a
	.uleb128 0xb
	.uleb128 0x3b
	.uleb128 0x5
	.uleb128 0x32
	.uleb128 0xb
	.byte	0
	.byte	0
	.uleb128 0x6f
	.uleb128 0x2e
	.byte	0x1
	.uleb128 0x3f
	.uleb128 0x19
	.uleb128 0x3
	.uleb128 0xe
	.uleb128 0x3a
	.uleb128 0xb
	.uleb128 0x3b
	.uleb128 0x5
	.uleb128 0x6e
	.uleb128 0xe
	.uleb128 0x32
	.uleb128 0xb
	.uleb128 0x3c
	.uleb128 0x19
	.uleb128 0x64
	.uleb128 0x13
	.byte	0
	.byte	0
	.uleb128 0x70
	.uleb128 0x34
	.byte	0
	.uleb128 0x3
	.uleb128 0x8
	.uleb128 0x3a
	.uleb128 0xb
	.uleb128 0x3b
	.uleb128 0xb
	.uleb128 0x6e
	.uleb128 0xe
	.uleb128 0x49
	.uleb128 0x13
	.uleb128 0x3f
	.uleb128 0x19
	.uleb128 0x3c
	.uleb128 0x19
	.byte	0
	.byte	0
	.uleb128 0x71
	.uleb128 0x34
	.byte	0
	.uleb128 0x3
	.uleb128 0xe
	.uleb128 0x3a
	.uleb128 0xb
	.uleb128 0x3b
	.uleb128 0xb
	.uleb128 0x49
	.uleb128 0x13
	.uleb128 0x3c
	.uleb128 0x19
	.byte	0
	.byte	0
	.uleb128 0x72
	.uleb128 0x2e
	.byte	0x1
	.uleb128 0x3f
	.uleb128 0x19
	.uleb128 0x3
	.uleb128 0xe
	.uleb128 0x3a
	.uleb128 0xb
	.uleb128 0x3b
	.uleb128 0xb
	.uleb128 0x6e
	.uleb128 0xe
	.uleb128 0x3c
	.uleb128 0x19
	.byte	0
	.byte	0
	.uleb128 0x73
	.uleb128 0x2e
	.byte	0x1
	.uleb128 0x3f
	.uleb128 0x19
	.uleb128 0x3
	.uleb128 0xe
	.uleb128 0x3a
	.uleb128 0xb
	.uleb128 0x3b
	.uleb128 0xb
	.uleb128 0x6e
	.uleb128 0xe
	.uleb128 0x32
	.uleb128 0xb
	.uleb128 0x3c
	.uleb128 0x19
	.uleb128 0x64
	.uleb128 0x13
	.byte	0
	.byte	0
	.uleb128 0x74
	.uleb128 0x2e
	.byte	0x1
	.uleb128 0x3f
	.uleb128 0x19
	.uleb128 0x3
	.uleb128 0x8
	.uleb128 0x3a
	.uleb128 0xb
	.uleb128 0x3b
	.uleb128 0xb
	.uleb128 0x6e
	.uleb128 0xe
	.uleb128 0x49
	.uleb128 0x13
	.uleb128 0x3c
	.uleb128 0x19
	.uleb128 0x1
	.uleb128 0x13
	.byte	0
	.byte	0
	.uleb128 0x75
	.uleb128 0xf
	.byte	0
	.uleb128 0xb
	.uleb128 0xb
	.byte	0
	.byte	0
	.uleb128 0x76
	.uleb128 0x17
	.byte	0x1
	.uleb128 0xb
	.uleb128 0xb
	.uleb128 0x3a
	.uleb128 0xb
	.uleb128 0x3b
	.uleb128 0xb
	.uleb128 0x1
	.uleb128 0x13
	.byte	0
	.byte	0
	.uleb128 0x77
	.uleb128 0x24
	.byte	0
	.uleb128 0xb
	.uleb128 0xb
	.uleb128 0x3e
	.uleb128 0xb
	.uleb128 0x3
	.uleb128 0x8
	.byte	0
	.byte	0
	.uleb128 0x78
	.uleb128 0x13
	.byte	0x1
	.uleb128 0x3
	.uleb128 0x8
	.uleb128 0xb
	.uleb128 0xb
	.uleb128 0x3a
	.uleb128 0xb
	.uleb128 0x3b
	.uleb128 0xb
	.uleb128 0x1
	.uleb128 0x13
	.byte	0
	.byte	0
	.uleb128 0x79
	.uleb128 0x3b
	.byte	0
	.uleb128 0x3
	.uleb128 0xe
	.byte	0
	.byte	0
	.uleb128 0x7a
	.uleb128 0x34
	.byte	0
	.uleb128 0x47
	.uleb128 0x13
	.byte	0
	.byte	0
	.uleb128 0x7b
	.uleb128 0x26
	.byte	0
	.byte	0
	.byte	0
	.uleb128 0x7c
	.uleb128 0x15
	.byte	0x1
	.uleb128 0x49
	.uleb128 0x13
	.uleb128 0x1
	.uleb128 0x13
	.byte	0
	.byte	0
	.uleb128 0x7d
	.uleb128 0x15
	.byte	0
	.byte	0
	.byte	0
	.uleb128 0x7e
	.uleb128 0x2e
	.byte	0x1
	.uleb128 0x3f
	.uleb128 0x19
	.uleb128 0x3
	.uleb128 0x8
	.uleb128 0x3a
	.uleb128 0xb
	.uleb128 0x3b
	.uleb128 0x5
	.uleb128 0x49
	.uleb128 0x13
	.uleb128 0x3c
	.uleb128 0x19
	.uleb128 0x1
	.uleb128 0x13
	.byte	0
	.byte	0
	.uleb128 0x7f
	.uleb128 0x2e
	.byte	0x1
	.uleb128 0x3f
	.uleb128 0x19
	.uleb128 0x3
	.uleb128 0xe
	.uleb128 0x3a
	.uleb128 0xb
	.uleb128 0x3b
	.uleb128 0x5
	.uleb128 0x87
	.uleb128 0x19
	.uleb128 0x3c
	.uleb128 0x19
	.uleb128 0x1
	.uleb128 0x13
	.byte	0
	.byte	0
	.uleb128 0x80
	.uleb128 0x16
	.byte	0
	.uleb128 0x3
	.uleb128 0xe
	.uleb128 0x3a
	.uleb128 0xb
	.uleb128 0x3b
	.uleb128 0xb
	.byte	0
	.byte	0
	.uleb128 0x81
	.uleb128 0x13
	.byte	0
	.uleb128 0x3
	.uleb128 0xe
	.uleb128 0x3c
	.uleb128 0x19
	.byte	0
	.byte	0
	.uleb128 0x82
	.uleb128 0x21
	.byte	0
	.byte	0
	.byte	0
	.uleb128 0x83
	.uleb128 0x34
	.byte	0
	.uleb128 0x47
	.uleb128 0x13
	.uleb128 0x2
	.uleb128 0x18
	.byte	0
	.byte	0
	.uleb128 0x84
	.uleb128 0x2e
	.byte	0x1
	.uleb128 0x3f
	.uleb128 0x19
	.uleb128 0x3
	.uleb128 0xe
	.uleb128 0x6e
	.uleb128 0xe
	.uleb128 0x34
	.uleb128 0x19
	.uleb128 0x3c
	.uleb128 0x19
	.uleb128 0x64
	.uleb128 0x13
	.uleb128 0x1
	.uleb128 0x13
	.byte	0
	.byte	0
	.uleb128 0x85
	.uleb128 0xd
	.byte	0
	.uleb128 0x3
	.uleb128 0xe
	.uleb128 0x3a
	.uleb128 0xb
	.uleb128 0x3b
	.uleb128 0xb
	.uleb128 0x49
	.uleb128 0x13
	.uleb128 0x38
	.uleb128 0x5
	.byte	0
	.byte	0
	.uleb128 0x86
	.uleb128 0x34
	.byte	0
	.uleb128 0x3
	.uleb128 0xe
	.uleb128 0x49
	.uleb128 0x13
	.uleb128 0x3f
	.uleb128 0x19
	.uleb128 0x34
	.uleb128 0x19
	.uleb128 0x3c
	.uleb128 0x19
	.byte	0
	.byte	0
	.uleb128 0x87
	.uleb128 0x34
	.byte	0
	.uleb128 0x6e
	.uleb128 0xe
	.uleb128 0x47
	.uleb128 0x13
	.uleb128 0x1c
	.uleb128 0x6
	.byte	0
	.byte	0
	.uleb128 0x88
	.uleb128 0x34
	.byte	0
	.uleb128 0x6e
	.uleb128 0xe
	.uleb128 0x47
	.uleb128 0x13
	.uleb128 0x1c
	.uleb128 0x7
	.byte	0
	.byte	0
	.uleb128 0x89
	.uleb128 0x2e
	.byte	0
	.uleb128 0x3
	.uleb128 0xe
	.uleb128 0x34
	.uleb128 0x19
	.uleb128 0x11
	.uleb128 0x1
	.uleb128 0x12
	.uleb128 0x7
	.uleb128 0x40
	.uleb128 0x18
	.uleb128 0x2116
	.uleb128 0x19
	.byte	0
	.byte	0
	.uleb128 0x8a
	.uleb128 0x2e
	.byte	0x1
	.uleb128 0x3
	.uleb128 0xe
	.uleb128 0x34
	.uleb128 0x19
	.uleb128 0x11
	.uleb128 0x1
	.uleb128 0x12
	.uleb128 0x7
	.uleb128 0x40
	.uleb128 0x18
	.uleb128 0x2116
	.uleb128 0x19
	.uleb128 0x1
	.uleb128 0x13
	.byte	0
	.byte	0
	.uleb128 0x8b
	.uleb128 0x4108
	.byte	0x1
	.uleb128 0x3a
	.uleb128 0xb
	.uleb128 0x3b
	.uleb128 0x5
	.uleb128 0x1
	.uleb128 0x13
	.byte	0
	.byte	0
	.uleb128 0x8c
	.uleb128 0x4108
	.byte	0x1
	.uleb128 0x3a
	.uleb128 0xb
	.uleb128 0x3b
	.uleb128 0x5
	.byte	0
	.byte	0
	.uleb128 0x8d
	.uleb128 0xb
	.byte	0x1
	.uleb128 0x55
	.uleb128 0x17
	.byte	0
	.byte	0
	.uleb128 0x8e
	.uleb128 0x2e
	.byte	0x1
	.uleb128 0x3f
	.uleb128 0x19
	.uleb128 0x3
	.uleb128 0xe
	.uleb128 0x3a
	.uleb128 0xb
	.uleb128 0x3b
	.uleb128 0xb
	.uleb128 0x49
	.uleb128 0x13
	.uleb128 0x11
	.uleb128 0x1
	.uleb128 0x12
	.uleb128 0x7
	.uleb128 0x40
	.uleb128 0x18
	.uleb128 0x2116
	.uleb128 0x19
	.uleb128 0x1
	.uleb128 0x13
	.byte	0
	.byte	0
	.uleb128 0x8f
	.uleb128 0xb
	.byte	0x1
	.uleb128 0x11
	.uleb128 0x1
	.uleb128 0x12
	.uleb128 0x7
	.uleb128 0x1
	.uleb128 0x13
	.byte	0
	.byte	0
	.uleb128 0x90
	.uleb128 0x2e
	.byte	0x1
	.uleb128 0x3f
	.uleb128 0x19
	.uleb128 0x3
	.uleb128 0xe
	.uleb128 0x3a
	.uleb128 0xb
	.uleb128 0x3b
	.uleb128 0xb
	.uleb128 0x6e
	.uleb128 0xe
	.uleb128 0x11
	.uleb128 0x1
	.uleb128 0x12
	.uleb128 0x7
	.uleb128 0x40
	.uleb128 0x18
	.uleb128 0x2116
	.uleb128 0x19
	.uleb128 0x1
	.uleb128 0x13
	.byte	0
	.byte	0
	.uleb128 0x91
	.uleb128 0x2e
	.byte	0x1
	.uleb128 0x3f
	.uleb128 0x19
	.uleb128 0x3
	.uleb128 0xe
	.uleb128 0x3a
	.uleb128 0xb
	.uleb128 0x3b
	.uleb128 0xb
	.uleb128 0x6e
	.uleb128 0xe
	.uleb128 0x49
	.uleb128 0x13
	.uleb128 0x11
	.uleb128 0x1
	.uleb128 0x12
	.uleb128 0x7
	.uleb128 0x40
	.uleb128 0x18
	.uleb128 0x2117
	.uleb128 0x19
	.byte	0
	.byte	0
	.byte	0
	.section	.debug_aranges,"",@progbits
	.long	0x45c
	.value	0x2
	.long	.Ldebug_info0
	.byte	0x8
	.byte	0
	.value	0
	.value	0
	.quad	.Ltext0
	.quad	.Letext0-.Ltext0
	.quad	.LFB38
	.quad	.LFE38-.LFB38
	.quad	.LFB1841
	.quad	.LFE1841-.LFB1841
	.quad	.LFB1844
	.quad	.LFE1844-.LFB1844
	.quad	.LFB2086
	.quad	.LFE2086-.LFB2086
	.quad	.LFB2089
	.quad	.LFE2089-.LFB2089
	.quad	.LFB2092
	.quad	.LFE2092-.LFB2092
	.quad	.LFB2091
	.quad	.LFE2091-.LFB2091
	.quad	.LFB2094
	.quad	.LFE2094-.LFB2094
	.quad	.LFB2096
	.quad	.LFE2096-.LFB2096
	.quad	.LFB2097
	.quad	.LFE2097-.LFB2097
	.quad	.LFB2212
	.quad	.LFE2212-.LFB2212
	.quad	.LFB2214
	.quad	.LFE2214-.LFB2214
	.quad	.LFB2217
	.quad	.LFE2217-.LFB2217
	.quad	.LFB2219
	.quad	.LFE2219-.LFB2219
	.quad	.LFB2220
	.quad	.LFE2220-.LFB2220
	.quad	.LFB2222
	.quad	.LFE2222-.LFB2222
	.quad	.LFB2221
	.quad	.LFE2221-.LFB2221
	.quad	.LFB2224
	.quad	.LFE2224-.LFB2224
	.quad	.LFB2225
	.quad	.LFE2225-.LFB2225
	.quad	.LFB2262
	.quad	.LFE2262-.LFB2262
	.quad	.LFB2265
	.quad	.LFE2265-.LFB2265
	.quad	.LFB2267
	.quad	.LFE2267-.LFB2267
	.quad	.LFB2268
	.quad	.LFE2268-.LFB2268
	.quad	.LFB2269
	.quad	.LFE2269-.LFB2269
	.quad	.LFB2270
	.quad	.LFE2270-.LFB2270
	.quad	.LFB2271
	.quad	.LFE2271-.LFB2271
	.quad	.LFB2273
	.quad	.LFE2273-.LFB2273
	.quad	.LFB2274
	.quad	.LFE2274-.LFB2274
	.quad	.LFB2275
	.quad	.LFE2275-.LFB2275
	.quad	.LFB2276
	.quad	.LFE2276-.LFB2276
	.quad	.LFB2312
	.quad	.LFE2312-.LFB2312
	.quad	.LFB2315
	.quad	.LFE2315-.LFB2315
	.quad	.LFB2317
	.quad	.LFE2317-.LFB2317
	.quad	.LFB2318
	.quad	.LFE2318-.LFB2318
	.quad	.LFB2319
	.quad	.LFE2319-.LFB2319
	.quad	.LFB2321
	.quad	.LFE2321-.LFB2321
	.quad	.LFB2323
	.quad	.LFE2323-.LFB2323
	.quad	.LFB2324
	.quad	.LFE2324-.LFB2324
	.quad	.LFB2325
	.quad	.LFE2325-.LFB2325
	.quad	.LFB2326
	.quad	.LFE2326-.LFB2326
	.quad	.LFB2327
	.quad	.LFE2327-.LFB2327
	.quad	.LFB2328
	.quad	.LFE2328-.LFB2328
	.quad	.LFB2329
	.quad	.LFE2329-.LFB2329
	.quad	.LFB2330
	.quad	.LFE2330-.LFB2330
	.quad	.LFB2331
	.quad	.LFE2331-.LFB2331
	.quad	.LFB2332
	.quad	.LFE2332-.LFB2332
	.quad	.LFB2367
	.quad	.LFE2367-.LFB2367
	.quad	.LFB2369
	.quad	.LFE2369-.LFB2369
	.quad	.LFB2370
	.quad	.LFE2370-.LFB2370
	.quad	.LFB2371
	.quad	.LFE2371-.LFB2371
	.quad	.LFB2372
	.quad	.LFE2372-.LFB2372
	.quad	.LFB2373
	.quad	.LFE2373-.LFB2373
	.quad	.LFB2374
	.quad	.LFE2374-.LFB2374
	.quad	.LFB2376
	.quad	.LFE2376-.LFB2376
	.quad	.LFB2378
	.quad	.LFE2378-.LFB2378
	.quad	.LFB2404
	.quad	.LFE2404-.LFB2404
	.quad	.LFB2405
	.quad	.LFE2405-.LFB2405
	.quad	.LFB2406
	.quad	.LFE2406-.LFB2406
	.quad	.LFB2415
	.quad	.LFE2415-.LFB2415
	.quad	.LFB2416
	.quad	.LFE2416-.LFB2416
	.quad	.LFB2417
	.quad	.LFE2417-.LFB2417
	.quad	.LFB2420
	.quad	.LFE2420-.LFB2420
	.quad	.LFB2421
	.quad	.LFE2421-.LFB2421
	.quad	.LFB2422
	.quad	.LFE2422-.LFB2422
	.quad	.LFB2423
	.quad	.LFE2423-.LFB2423
	.quad	.LFB2424
	.quad	.LFE2424-.LFB2424
	.quad	.LFB2425
	.quad	.LFE2425-.LFB2425
	.quad	0
	.quad	0
	.section	.debug_ranges,"",@progbits
.Ldebug_ranges0:
	.quad	.LBB14
	.quad	.LBE14
	.quad	.LBB15
	.quad	.LBE15
	.quad	0
	.quad	0
	.quad	.Ltext0
	.quad	.Letext0
	.quad	.LFB38
	.quad	.LFE38
	.quad	.LFB1841
	.quad	.LFE1841
	.quad	.LFB1844
	.quad	.LFE1844
	.quad	.LFB2086
	.quad	.LFE2086
	.quad	.LFB2089
	.quad	.LFE2089
	.quad	.LFB2092
	.quad	.LFE2092
	.quad	.LFB2091
	.quad	.LFE2091
	.quad	.LFB2094
	.quad	.LFE2094
	.quad	.LFB2096
	.quad	.LFE2096
	.quad	.LFB2097
	.quad	.LFE2097
	.quad	.LFB2212
	.quad	.LFE2212
	.quad	.LFB2214
	.quad	.LFE2214
	.quad	.LFB2217
	.quad	.LFE2217
	.quad	.LFB2219
	.quad	.LFE2219
	.quad	.LFB2220
	.quad	.LFE2220
	.quad	.LFB2222
	.quad	.LFE2222
	.quad	.LFB2221
	.quad	.LFE2221
	.quad	.LFB2224
	.quad	.LFE2224
	.quad	.LFB2225
	.quad	.LFE2225
	.quad	.LFB2262
	.quad	.LFE2262
	.quad	.LFB2265
	.quad	.LFE2265
	.quad	.LFB2267
	.quad	.LFE2267
	.quad	.LFB2268
	.quad	.LFE2268
	.quad	.LFB2269
	.quad	.LFE2269
	.quad	.LFB2270
	.quad	.LFE2270
	.quad	.LFB2271
	.quad	.LFE2271
	.quad	.LFB2273
	.quad	.LFE2273
	.quad	.LFB2274
	.quad	.LFE2274
	.quad	.LFB2275
	.quad	.LFE2275
	.quad	.LFB2276
	.quad	.LFE2276
	.quad	.LFB2312
	.quad	.LFE2312
	.quad	.LFB2315
	.quad	.LFE2315
	.quad	.LFB2317
	.quad	.LFE2317
	.quad	.LFB2318
	.quad	.LFE2318
	.quad	.LFB2319
	.quad	.LFE2319
	.quad	.LFB2321
	.quad	.LFE2321
	.quad	.LFB2323
	.quad	.LFE2323
	.quad	.LFB2324
	.quad	.LFE2324
	.quad	.LFB2325
	.quad	.LFE2325
	.quad	.LFB2326
	.quad	.LFE2326
	.quad	.LFB2327
	.quad	.LFE2327
	.quad	.LFB2328
	.quad	.LFE2328
	.quad	.LFB2329
	.quad	.LFE2329
	.quad	.LFB2330
	.quad	.LFE2330
	.quad	.LFB2331
	.quad	.LFE2331
	.quad	.LFB2332
	.quad	.LFE2332
	.quad	.LFB2367
	.quad	.LFE2367
	.quad	.LFB2369
	.quad	.LFE2369
	.quad	.LFB2370
	.quad	.LFE2370
	.quad	.LFB2371
	.quad	.LFE2371
	.quad	.LFB2372
	.quad	.LFE2372
	.quad	.LFB2373
	.quad	.LFE2373
	.quad	.LFB2374
	.quad	.LFE2374
	.quad	.LFB2376
	.quad	.LFE2376
	.quad	.LFB2378
	.quad	.LFE2378
	.quad	.LFB2404
	.quad	.LFE2404
	.quad	.LFB2405
	.quad	.LFE2405
	.quad	.LFB2406
	.quad	.LFE2406
	.quad	.LFB2415
	.quad	.LFE2415
	.quad	.LFB2416
	.quad	.LFE2416
	.quad	.LFB2417
	.quad	.LFE2417
	.quad	.LFB2420
	.quad	.LFE2420
	.quad	.LFB2421
	.quad	.LFE2421
	.quad	.LFB2422
	.quad	.LFE2422
	.quad	.LFB2423
	.quad	.LFE2423
	.quad	.LFB2424
	.quad	.LFE2424
	.quad	.LFB2425
	.quad	.LFE2425
	.quad	0
	.quad	0
	.section	.debug_line,"",@progbits
.Ldebug_line0:
	.section	.debug_str,"MS",@progbits,1
.LASF670:
	.string	"int_p_sep_by_space"
.LASF176:
	.string	"~_Vector_impl"
.LASF636:
	.string	"int_fast8_t"
.LASF746:
	.string	"fgetc"
.LASF620:
	.string	"int8_t"
.LASF77:
	.string	"size_t"
.LASF748:
	.string	"fgets"
.LASF562:
	.string	"tm_hour"
.LASF44:
	.string	"__value"
.LASF45:
	.string	"__is_integer<float>"
.LASF184:
	.string	"_Vector_base"
.LASF406:
	.string	"__numeric_traits_integer<int>"
.LASF127:
	.string	"wclog"
.LASF354:
	.string	"_ZNKSt13move_iteratorIPsEmiEl"
.LASF294:
	.string	"_M_fill_assign"
.LASF314:
	.string	"_ZNSt6vectorIsSaIsEE14_M_move_assignEOS1_St17integral_constantIbLb1EE"
.LASF335:
	.string	"_ZNSt13move_iteratorIPsEC4Ev"
.LASF733:
	.string	"fpos_t"
.LASF791:
	.string	"_ZN9__gnu_cxx24__numeric_traits_integerIiE5__maxE"
.LASF732:
	.string	"_IO_2_1_stderr_"
.LASF379:
	.string	"uninitialized_copy<std::move_iterator<short int*>, short int*>"
.LASF643:
	.string	"uint_fast64_t"
.LASF604:
	.string	"signed char"
.LASF316:
	.string	"_M_realloc_insert<short int>"
.LASF303:
	.string	"_ZNSt6vectorIsSaIsEE14_M_insert_rvalEN9__gnu_cxx17__normal_iteratorIPKsS1_EEOs"
.LASF508:
	.string	"_IO_save_end"
.LASF472:
	.string	"__enable_if<true, short int*>"
.LASF425:
	.string	"_S_on_swap"
.LASF401:
	.string	"_ZSt8_DestroyIPssEvT_S1_RSaIT0_E"
.LASF716:
	.string	"lldiv"
.LASF186:
	.string	"_ZNSt12_Vector_baseIsSaIsEEC4ERKS0_"
.LASF558:
	.string	"wcscspn"
.LASF459:
	.string	"_ZNK9__gnu_cxx17__normal_iteratorIPsSt6vectorIsSaIsEEEptEv"
.LASF677:
	.string	"localeconv"
.LASF5:
	.string	"_M_addref"
.LASF9:
	.string	"_M_get"
.LASF614:
	.string	"__int64_t"
.LASF224:
	.string	"_ZNSt6vectorIsSaIsEE6assignESt16initializer_listIsE"
.LASF721:
	.string	"strtold"
.LASF280:
	.string	"_ZNSt6vectorIsSaIsEE6insertEN9__gnu_cxx17__normal_iteratorIPKsS1_EERS4_"
.LASF722:
	.string	"9_G_fpos_t"
.LASF832:
	.string	"_ZNSt12_Vector_baseIsSaIsEEC2Ev"
.LASF718:
	.string	"strtoll"
.LASF276:
	.string	"_ZNSt6vectorIsSaIsEE9push_backEOs"
.LASF390:
	.string	"__uninitialized_move_if_noexcept_a<short int*, short int*, std::allocator<short int> >"
.LASF360:
	.string	"__copy_m<short int>"
.LASF317:
	.string	"_ZNSt6vectorIsSaIsEE17_M_realloc_insertIJsEEEvN9__gnu_cxx17__normal_iteratorIPsS1_EEDpOT_"
.LASF764:
	.string	"tmpnam"
.LASF192:
	.string	"~_Vector_base"
.LASF389:
	.string	"_ZSt25__uninitialized_default_nIPsmET_S1_T0_"
.LASF815:
	.string	"__lhs"
.LASF463:
	.string	"_ZN9__gnu_cxx17__normal_iteratorIPsSt6vectorIsSaIsEEEmmEi"
.LASF392:
	.string	"_Allocator"
.LASF517:
	.string	"_lock"
.LASF696:
	.string	"at_quick_exit"
.LASF654:
	.string	"int_curr_symbol"
.LASF462:
	.string	"_ZN9__gnu_cxx17__normal_iteratorIPsSt6vectorIsSaIsEEEmmEv"
.LASF441:
	.string	"new_allocator"
.LASF804:
	.string	"__last"
.LASF297:
	.string	"_ZNSt6vectorIsSaIsEE14_M_fill_insertEN9__gnu_cxx17__normal_iteratorIPsS1_EEmRKs"
.LASF238:
	.string	"cend"
.LASF436:
	.string	"_ZN9__gnu_cxx14__alloc_traitsISaIsEE15_S_nothrow_moveEv"
.LASF231:
	.string	"_ZNSt6vectorIsSaIsEE6rbeginEv"
.LASF326:
	.string	"type"
.LASF665:
	.string	"n_cs_precedes"
.LASF694:
	.string	"__compar_fn_t"
.LASF126:
	.string	"_ZSt5wcerr"
.LASF195:
	.string	"_ZNSt12_Vector_baseIsSaIsEE11_M_allocateEm"
.LASF587:
	.string	"wmemmove"
.LASF257:
	.string	"_ZNSt6vectorIsSaIsEE7reserveEm"
.LASF318:
	.string	"_Args"
.LASF156:
	.string	"_ZNSt16allocator_traitsISaIsEE9constructIsJsEEEvRS0_PT_DpOT0_"
.LASF511:
	.string	"_fileno"
.LASF790:
	.string	"_ZN9__gnu_cxx24__numeric_traits_integerIiE5__minE"
.LASF698:
	.string	"atoi"
.LASF848:
	.string	"GNU C++14 7.5.0 -mtune=generic -march=x86-64 -g -fstack-protector-strong"
.LASF583:
	.string	"wcsxfrm"
.LASF86:
	.string	"_ZNSt11char_traitsIwE4copyEPwPKwm"
.LASF717:
	.string	"atoll"
.LASF661:
	.string	"int_frac_digits"
.LASF4:
	.string	"_ZNSt15__exception_ptr13exception_ptrC4EPv"
.LASF134:
	.string	"__uninitialized_default_n_1<true>"
.LASF97:
	.string	"string_literals"
.LASF747:
	.string	"fgetpos"
.LASF723:
	.string	"__pos"
.LASF510:
	.string	"_chain"
.LASF556:
	.string	"wcscoll"
.LASF741:
	.string	"clearerr"
.LASF36:
	.string	"_ZNKSt17integral_constantIbLb1EEcvbEv"
.LASF514:
	.string	"_cur_column"
.LASF642:
	.string	"uint_fast32_t"
.LASF737:
	.string	"sys_nerr"
.LASF659:
	.string	"positive_sign"
.LASF442:
	.string	"_ZN9__gnu_cxx13new_allocatorIsEC4Ev"
.LASF817:
	.string	"_ZN9__gnu_cxx17__normal_iteratorIPsSt6vectorIsSaIsEEEC2ERKS1_"
.LASF63:
	.string	"_ZNSt11char_traitsIcE4moveEPcPKcm"
.LASF609:
	.string	"__uint8_t"
.LASF227:
	.string	"_ZNKSt6vectorIsSaIsEE5beginEv"
.LASF321:
	.string	"type_info"
.LASF697:
	.string	"atof"
.LASF501:
	.string	"_IO_write_base"
.LASF793:
	.string	"_ZN9__gnu_cxx25__numeric_traits_floatingIdE16__max_exponent10E"
.LASF393:
	.string	"__uninitialized_default_n_a<short int*, long unsigned int, short int>"
.LASF699:
	.string	"atol"
.LASF205:
	.string	"const_reverse_iterator"
.LASF739:
	.string	"_sys_nerr"
.LASF489:
	.string	"__wch"
.LASF782:
	.string	"_ZN9TestInputC4Ev"
.LASF119:
	.string	"wistream"
.LASF622:
	.string	"int32_t"
.LASF71:
	.string	"_ZNSt11char_traitsIcE11to_int_typeERKc"
.LASF799:
	.string	"_ZN9__gnu_cxx24__numeric_traits_integerIlE5__minE"
.LASF656:
	.string	"mon_decimal_point"
.LASF336:
	.string	"_ZNSt13move_iteratorIPsEC4ES0_"
.LASF444:
	.string	"~new_allocator"
.LASF581:
	.string	"long int"
.LASF417:
	.string	"__numeric_traits_floating<long double>"
.LASF16:
	.string	"_ZNSt15__exception_ptr13exception_ptraSERKS0_"
.LASF668:
	.string	"n_sign_posn"
.LASF163:
	.string	"_ZNSaIsED4Ev"
.LASF1:
	.string	"nothrow_t"
.LASF251:
	.string	"_ZNSt6vectorIsSaIsEE13shrink_to_fitEv"
.LASF419:
	.string	"__numeric_traits_integer<char>"
.LASF551:
	.string	"vwprintf"
.LASF323:
	.string	"reverse_iterator<__gnu_cxx::__normal_iterator<short int*, std::vector<short int, std::allocator<short int> > > >"
.LASF823:
	.string	"__position"
.LASF292:
	.string	"_M_default_initialize"
.LASF639:
	.string	"int_fast64_t"
.LASF715:
	.string	"wctomb"
.LASF247:
	.string	"resize"
.LASF53:
	.string	"int_type"
.LASF414:
	.string	"__digits10"
.LASF726:
	.string	"_IO_marker"
.LASF837:
	.string	"main"
.LASF671:
	.string	"int_n_cs_precedes"
.LASF101:
	.string	"~Init"
.LASF591:
	.string	"wcschr"
.LASF771:
	.string	"towctrans"
.LASF80:
	.string	"_ZNSt11char_traitsIwE2eqERKwS2_"
.LASF64:
	.string	"copy"
.LASF708:
	.string	"rand"
.LASF241:
	.string	"_ZNKSt6vectorIsSaIsEE7crbeginEv"
.LASF57:
	.string	"length"
.LASF596:
	.string	"wcstold"
.LASF55:
	.string	"_ZNSt11char_traitsIcE2ltERKcS2_"
.LASF359:
	.string	"__copy_move<true, true, std::random_access_iterator_tag>"
.LASF774:
	.string	"__ioinit"
.LASF828:
	.string	"_ZNSt12_Vector_baseIsSaIsEE12_Vector_implC2Ev"
.LASF229:
	.string	"_ZNKSt6vectorIsSaIsEE3endEv"
.LASF744:
	.string	"ferror"
.LASF27:
	.string	"nullptr_t"
.LASF100:
	.string	"_S_synced_with_stdio"
.LASF461:
	.string	"_ZN9__gnu_cxx17__normal_iteratorIPsSt6vectorIsSaIsEEEppEi"
.LASF279:
	.string	"insert"
.LASF411:
	.string	"_Value"
.LASF179:
	.string	"_M_get_Tp_allocator"
.LASF635:
	.string	"uint_least64_t"
.LASF460:
	.string	"_ZN9__gnu_cxx17__normal_iteratorIPsSt6vectorIsSaIsEEEppEv"
.LASF849:
	.string	"main.cpp"
.LASF118:
	.string	"_ZSt4clog"
.LASF311:
	.string	"_ZNSt6vectorIsSaIsEE8_M_eraseEN9__gnu_cxx17__normal_iteratorIPsS1_EE"
.LASF567:
	.string	"tm_yday"
.LASF719:
	.string	"strtoull"
.LASF624:
	.string	"uint8_t"
.LASF339:
	.string	"operator*"
.LASF349:
	.string	"operator+"
.LASF124:
	.string	"_ZSt5wcout"
.LASF353:
	.string	"operator-"
.LASF194:
	.string	"_M_allocate"
.LASF496:
	.string	"_IO_FILE"
.LASF680:
	.string	"__timezone"
.LASF758:
	.string	"remove"
.LASF713:
	.string	"system"
.LASF104:
	.string	"basic_ostream<char, std::char_traits<char> >"
.LASF768:
	.string	"wctype_t"
.LASF15:
	.string	"operator="
.LASF529:
	.string	"fgetwc"
.LASF365:
	.string	"__miter_base<short int*>"
.LASF338:
	.string	"_ZNKSt13move_iteratorIPsE4baseEv"
.LASF676:
	.string	"getwchar"
.LASF115:
	.string	"cerr"
.LASF298:
	.string	"_M_default_append"
.LASF320:
	.string	"_ZNSt6vectorIsSaIsEE12emplace_backIJsEEEvDpOT_"
.LASF250:
	.string	"shrink_to_fit"
.LASF458:
	.string	"_ZNK9__gnu_cxx17__normal_iteratorIPsSt6vectorIsSaIsEEEdeEv"
.LASF52:
	.string	"char_type"
.LASF602:
	.string	"unsigned char"
.LASF295:
	.string	"_ZNSt6vectorIsSaIsEE14_M_fill_assignEmRKs"
.LASF603:
	.string	"__int128 unsigned"
.LASF666:
	.string	"n_sep_by_space"
.LASF742:
	.string	"fclose"
.LASF595:
	.string	"wmemchr"
.LASF21:
	.string	"_ZNSt15__exception_ptr13exception_ptr4swapERS0_"
.LASF648:
	.string	"char16_t"
.LASF842:
	.string	"_ZN9TestInputD2Ev"
.LASF180:
	.string	"_ZNSt12_Vector_baseIsSaIsEE19_M_get_Tp_allocatorEv"
.LASF147:
	.string	"_ZNSt16allocator_traitsISaIsEE10deallocateERS0_Psm"
.LASF299:
	.string	"_ZNSt6vectorIsSaIsEE17_M_default_appendEm"
.LASF798:
	.string	"_ZN9__gnu_cxx24__numeric_traits_integerIsE5__maxE"
.LASF820:
	.string	"_ZNSaIsEC2Ev"
.LASF784:
	.string	"MainTest"
.LASF148:
	.string	"max_size"
.LASF248:
	.string	"_ZNSt6vectorIsSaIsEE6resizeEm"
.LASF454:
	.string	"__normal_iterator<short int*, std::vector<short int, std::allocator<short int> > >"
.LASF709:
	.string	"srand"
.LASF304:
	.string	"_M_emplace_aux"
.LASF74:
	.string	"not_eof"
.LASF544:
	.string	"swprintf"
.LASF200:
	.string	"vector<short int, std::allocator<short int> >"
.LASF434:
	.string	"_ZN9__gnu_cxx14__alloc_traitsISaIsEE15_S_always_equalEv"
.LASF678:
	.string	"__tzname"
.LASF592:
	.string	"wcspbrk"
.LASF24:
	.string	"rethrow_exception"
.LASF703:
	.string	"mblen"
.LASF858:
	.string	"_IO_FILE_plus"
.LASF424:
	.string	"_ZN9__gnu_cxx14__alloc_traitsISaIsEE17_S_select_on_copyERKS1_"
.LASF409:
	.string	"__is_signed"
.LASF437:
	.string	"rebind<short int>"
.LASF34:
	.string	"value"
.LASF161:
	.string	"_ZNSaIsEC4ERKS_"
.LASF422:
	.string	"__alloc_traits<std::allocator<short int> >"
.LASF371:
	.string	"_ZSt4copyISt13move_iteratorIPsES1_ET0_T_S4_S3_"
.LASF3:
	.string	"_ZNSt9nothrow_tC4Ev"
.LASF492:
	.string	"char"
.LASF138:
	.string	"allocator_traits<std::allocator<short int> >"
.LASF106:
	.string	"basic_ostream<wchar_t, std::char_traits<wchar_t> >"
.LASF223:
	.string	"_ZNSt6vectorIsSaIsEE6assignEmRKs"
.LASF325:
	.string	"remove_reference<short int&>"
.LASF786:
	.string	"output"
.LASF154:
	.string	"_ZNSt16allocator_traitsISaIsEE7destroyIsEEvRS0_PT_"
.LASF29:
	.string	"operator std::integral_constant<bool, false>::value_type"
.LASF494:
	.string	"mbstate_t"
.LASF199:
	.string	"_ZNSt12_Vector_baseIsSaIsEE17_M_create_storageEm"
.LASF82:
	.string	"_ZNSt11char_traitsIwE7compareEPKwS2_m"
.LASF322:
	.string	"reverse_iterator<__gnu_cxx::__normal_iterator<short int const*, std::vector<short int, std::allocator<short int> > > >"
.LASF281:
	.string	"_ZNSt6vectorIsSaIsEE6insertEN9__gnu_cxx17__normal_iteratorIPKsS1_EEOs"
.LASF773:
	.string	"wctype"
.LASF634:
	.string	"uint_least32_t"
.LASF340:
	.string	"_ZNKSt13move_iteratorIPsEdeEv"
.LASF816:
	.string	"__rhs"
.LASF252:
	.string	"capacity"
.LASF573:
	.string	"wcsncmp"
.LASF857:
	.string	"_IO_lock_t"
.LASF611:
	.string	"__uint16_t"
.LASF789:
	.string	"_ZNSt17integral_constantIbLb1EE5valueE"
.LASF457:
	.string	"_ZN9__gnu_cxx17__normal_iteratorIPsSt6vectorIsSaIsEEEC4ERKS1_"
.LASF102:
	.string	"_ZNSt8ios_base4InitD4Ev"
.LASF239:
	.string	"_ZNKSt6vectorIsSaIsEE4cendEv"
.LASF375:
	.string	"__niter_base<short int*>"
.LASF580:
	.string	"wcstol"
.LASF243:
	.string	"_ZNKSt6vectorIsSaIsEE5crendEv"
.LASF261:
	.string	"_M_range_check"
.LASF438:
	.string	"other"
.LASF175:
	.string	"__destroy<short int*>"
.LASF687:
	.string	"5div_t"
.LASF783:
	.string	"TestOutput"
.LASF755:
	.string	"getc"
.LASF171:
	.string	"_ZNSt12_Vector_baseIsSaIsEE12_Vector_implC4ERKS0_"
.LASF172:
	.string	"_ZNSt12_Vector_baseIsSaIsEE12_Vector_implC4EOS0_"
.LASF407:
	.string	"__min"
.LASF432:
	.string	"_ZN9__gnu_cxx14__alloc_traitsISaIsEE20_S_propagate_on_swapEv"
.LASF561:
	.string	"tm_min"
.LASF288:
	.string	"clear"
.LASF108:
	.string	"basic_istream<char, std::char_traits<char> >"
.LASF498:
	.string	"_IO_read_ptr"
.LASF590:
	.string	"wscanf"
.LASF310:
	.string	"_M_erase"
.LASF657:
	.string	"mon_thousands_sep"
.LASF448:
	.string	"_ZNK9__gnu_cxx13new_allocatorIsE7addressERKs"
.LASF546:
	.string	"ungetwc"
.LASF484:
	.string	"fp_offset"
.LASF387:
	.string	"_ZSt3maxImERKT_S2_S2_"
.LASF132:
	.string	"__uninit_copy<std::move_iterator<short int*>, short int*>"
.LASF94:
	.string	"ptrdiff_t"
.LASF146:
	.string	"deallocate"
.LASF769:
	.string	"wctrans_t"
.LASF538:
	.string	"mbrlen"
.LASF729:
	.string	"_pos"
.LASF734:
	.string	"stdin"
.LASF372:
	.string	"__fill_n_a<short int*, long unsigned int, short int>"
.LASF660:
	.string	"negative_sign"
.LASF333:
	.string	"iterator_type"
.LASF174:
	.string	"_ZNSt12_Vector_baseIsSaIsEE12_Vector_impl12_M_swap_dataERS2_"
.LASF738:
	.string	"sys_errlist"
.LASF669:
	.string	"int_p_cs_precedes"
.LASF140:
	.string	"pointer"
.LASF220:
	.string	"_ZNSt6vectorIsSaIsEEaSERKS1_"
.LASF312:
	.string	"_ZNSt6vectorIsSaIsEE8_M_eraseEN9__gnu_cxx17__normal_iteratorIPsS1_EES5_"
.LASF838:
	.string	"input"
.LASF630:
	.string	"int_least32_t"
.LASF79:
	.string	"_ZNSt11char_traitsIwE6assignERwRKw"
.LASF112:
	.string	"cout"
.LASF509:
	.string	"_markers"
.LASF471:
	.string	"__normal_iterator<short int const*, std::vector<short int, std::allocator<short int> > >"
.LASF599:
	.string	"wcstoull"
.LASF794:
	.string	"_ZN9__gnu_cxx25__numeric_traits_floatingIeE16__max_exponent10E"
.LASF447:
	.string	"_ZNK9__gnu_cxx13new_allocatorIsE7addressERs"
.LASF56:
	.string	"compare"
.LASF384:
	.string	"_ZSt32__make_move_if_noexcept_iteratorIsSt13move_iteratorIPsEET0_PT_"
.LASF725:
	.string	"_G_fpos_t"
.LASF313:
	.string	"_M_move_assign"
.LASF557:
	.string	"wcscpy"
.LASF293:
	.string	"_ZNSt6vectorIsSaIsEE21_M_default_initializeEm"
.LASF105:
	.string	"_CharT"
.LASF155:
	.string	"construct<short int, short int>"
.LASF549:
	.string	"vswprintf"
.LASF256:
	.string	"reserve"
.LASF33:
	.string	"integral_constant<bool, true>"
.LASF712:
	.string	"strtoul"
.LASF35:
	.string	"operator std::integral_constant<bool, true>::value_type"
.LASF189:
	.string	"_ZNSt12_Vector_baseIsSaIsEEC4EOS0_"
.LASF377:
	.string	"fill_n<short int*, long unsigned int, short int>"
.LASF588:
	.string	"wmemset"
.LASF368:
	.string	"_ZSt14__copy_move_a2ILb1EPsS0_ET1_T0_S2_S1_"
.LASF309:
	.string	"_ZNSt6vectorIsSaIsEE15_M_erase_at_endEPs"
.LASF342:
	.string	"_ZNKSt13move_iteratorIPsEptEv"
.LASF122:
	.string	"wostream"
.LASF534:
	.string	"fwide"
.LASF150:
	.string	"select_on_container_copy_construction"
.LASF535:
	.string	"fwprintf"
.LASF618:
	.string	"__off_t"
.LASF456:
	.string	"_ZN9__gnu_cxx17__normal_iteratorIPsSt6vectorIsSaIsEEEC4Ev"
.LASF497:
	.string	"_flags"
.LASF608:
	.string	"__int8_t"
.LASF766:
	.string	"program_invocation_name"
.LASF399:
	.string	"_ZSt7forwardIsEOT_RNSt16remove_referenceIS0_E4typeE"
.LASF22:
	.string	"__cxa_exception_type"
.LASF518:
	.string	"_offset"
.LASF681:
	.string	"tzname"
.LASF228:
	.string	"_ZNSt6vectorIsSaIsEE3endEv"
.LASF363:
	.string	"_ZSt13__copy_move_aILb1EPsS0_ET1_T0_S2_S1_"
.LASF265:
	.string	"front"
.LASF810:
	.string	"__niter"
.LASF525:
	.string	"_unused2"
.LASF543:
	.string	"putwchar"
.LASF792:
	.string	"_ZN9__gnu_cxx25__numeric_traits_floatingIfE16__max_exponent10E"
.LASF17:
	.string	"_ZNSt15__exception_ptr13exception_ptraSEOS0_"
.LASF585:
	.string	"wmemcmp"
.LASF128:
	.string	"_ZSt5wclog"
.LASF65:
	.string	"_ZNSt11char_traitsIcE4copyEPcPKcm"
.LASF202:
	.string	"const_reference"
.LASF245:
	.string	"_ZNKSt6vectorIsSaIsEE4sizeEv"
.LASF860:
	.string	"_GLOBAL__sub_I__Z5printi"
.LASF60:
	.string	"find"
.LASF380:
	.string	"_ZSt18uninitialized_copyISt13move_iteratorIPsES1_ET0_T_S4_S3_"
.LASF430:
	.string	"_ZN9__gnu_cxx14__alloc_traitsISaIsEE27_S_propagate_on_move_assignEv"
.LASF615:
	.string	"__uint64_t"
.LASF701:
	.string	"getenv"
.LASF802:
	.string	"__priority"
.LASF633:
	.string	"uint_least16_t"
.LASF730:
	.string	"_IO_2_1_stdin_"
.LASF62:
	.string	"move"
.LASF481:
	.string	"long unsigned int"
.LASF693:
	.string	"lldiv_t"
.LASF214:
	.string	"_ZNSt6vectorIsSaIsEEC4EOS1_"
.LASF11:
	.string	"_ZNSt15__exception_ptr13exception_ptrC4Ev"
.LASF352:
	.string	"_ZNSt13move_iteratorIPsEpLEl"
.LASF254:
	.string	"empty"
.LASF201:
	.string	"reference"
.LASF6:
	.string	"_M_release"
.LASF48:
	.string	"nothrow"
.LASF512:
	.string	"_flags2"
.LASF506:
	.string	"_IO_save_base"
.LASF446:
	.string	"address"
.LASF607:
	.string	"__gnu_debug"
.LASF690:
	.string	"6ldiv_t"
.LASF500:
	.string	"_IO_read_base"
.LASF258:
	.string	"operator[]"
.LASF776:
	.string	"TestInput"
.LASF631:
	.string	"int_least64_t"
.LASF116:
	.string	"_ZSt4cerr"
.LASF274:
	.string	"push_back"
.LASF427:
	.string	"_S_propagate_on_copy_assign"
.LASF811:
	.string	"this"
.LASF267:
	.string	"_ZNKSt6vectorIsSaIsEE5frontEv"
.LASF84:
	.string	"_ZNSt11char_traitsIwE4findEPKwmRS1_"
.LASF327:
	.string	"remove_reference<short int>"
.LASF594:
	.string	"wcsstr"
.LASF714:
	.string	"wcstombs"
.LASF385:
	.string	"_ReturnType"
.LASF754:
	.string	"ftell"
.LASF328:
	.string	"iterator_traits<short int*>"
.LASF246:
	.string	"_ZNKSt6vectorIsSaIsEE8max_sizeEv"
.LASF853:
	.string	"_ZSt3cin"
.LASF28:
	.string	"value_type"
.LASF645:
	.string	"uintptr_t"
.LASF329:
	.string	"difference_type"
.LASF46:
	.string	"piecewise_construct_t"
.LASF72:
	.string	"eq_int_type"
.LASF83:
	.string	"_ZNSt11char_traitsIwE6lengthEPKw"
.LASF10:
	.string	"_ZNKSt15__exception_ptr13exception_ptr6_M_getEv"
.LASF477:
	.string	"__float128"
.LASF366:
	.string	"_ZSt12__miter_baseIPsET_S1_"
.LASF187:
	.string	"_ZNSt12_Vector_baseIsSaIsEEC4Em"
.LASF215:
	.string	"_ZNSt6vectorIsSaIsEEC4ERKS1_RKS0_"
.LASF453:
	.string	"_ZN9__gnu_cxx13new_allocatorIsE9constructIsJsEEEvPT_DpOT0_"
.LASF185:
	.string	"_ZNSt12_Vector_baseIsSaIsEEC4Ev"
.LASF99:
	.string	"_S_refcount"
.LASF234:
	.string	"_ZNSt6vectorIsSaIsEE4rendEv"
.LASF513:
	.string	"_old_offset"
.LASF788:
	.string	"_ZNSt17integral_constantIbLb0EE5valueE"
.LASF507:
	.string	"_IO_backup_base"
.LASF269:
	.string	"_ZNSt6vectorIsSaIsEE4backEv"
.LASF397:
	.string	"_ZSt8_DestroyIPsEvT_S1_"
.LASF356:
	.string	"_ZNSt13move_iteratorIPsEmIEl"
.LASF249:
	.string	"_ZNSt6vectorIsSaIsEE6resizeEmRKs"
.LASF672:
	.string	"int_n_sep_by_space"
.LASF260:
	.string	"_ZNKSt6vectorIsSaIsEEixEm"
.LASF107:
	.string	"_Traits"
.LASF283:
	.string	"_ZNSt6vectorIsSaIsEE6insertEN9__gnu_cxx17__normal_iteratorIPKsS1_EEmRS4_"
.LASF30:
	.string	"_ZNKSt17integral_constantIbLb0EEcvbEv"
.LASF217:
	.string	"_ZNSt6vectorIsSaIsEEC4ESt16initializer_listIsERKS0_"
.LASF801:
	.string	"__initialize_p"
.LASF219:
	.string	"_ZNSt6vectorIsSaIsEED4Ev"
.LASF197:
	.string	"_ZNSt12_Vector_baseIsSaIsEE13_M_deallocateEPsm"
.LASF613:
	.string	"__uint32_t"
.LASF598:
	.string	"long long int"
.LASF177:
	.string	"_Tp_alloc_type"
.LASF555:
	.string	"wcscmp"
.LASF493:
	.string	"__mbstate_t"
.LASF290:
	.string	"_M_fill_initialize"
.LASF415:
	.string	"__max_exponent10"
.LASF206:
	.string	"reverse_iterator"
.LASF586:
	.string	"wmemcpy"
.LASF564:
	.string	"tm_mon"
.LASF381:
	.string	"__uninitialized_copy_a<std::move_iterator<short int*>, short int*, short int>"
.LASF12:
	.string	"_ZNSt15__exception_ptr13exception_ptrC4ERKS0_"
.LASF350:
	.string	"_ZNKSt13move_iteratorIPsEplEl"
.LASF426:
	.string	"_ZN9__gnu_cxx14__alloc_traitsISaIsEE10_S_on_swapERS1_S3_"
.LASF578:
	.string	"wcstof"
.LASF579:
	.string	"wcstok"
.LASF42:
	.string	"__is_integer<long double>"
.LASF133:
	.string	"_InputIterator"
.LASF443:
	.string	"_ZN9__gnu_cxx13new_allocatorIsEC4ERKS1_"
.LASF479:
	.string	"double"
.LASF61:
	.string	"_ZNSt11char_traitsIcE4findEPKcmRS1_"
.LASF705:
	.string	"mbtowc"
.LASF287:
	.string	"_ZNSt6vectorIsSaIsEE4swapERS1_"
.LASF503:
	.string	"_IO_write_end"
.LASF188:
	.string	"_ZNSt12_Vector_baseIsSaIsEEC4EmRKS0_"
.LASF780:
	.string	"~TestInput"
.LASF469:
	.string	"_ZNK9__gnu_cxx17__normal_iteratorIPsSt6vectorIsSaIsEEE4baseEv"
.LASF812:
	.string	"__assignable"
.LASF797:
	.string	"_ZN9__gnu_cxx24__numeric_traits_integerIsE5__minE"
.LASF117:
	.string	"clog"
.LASF647:
	.string	"uintmax_t"
.LASF49:
	.string	"piecewise_construct"
.LASF584:
	.string	"wctob"
.LASF483:
	.string	"gp_offset"
.LASF455:
	.string	"__normal_iterator"
.LASF431:
	.string	"_S_propagate_on_swap"
.LASF795:
	.string	"_ZN9__gnu_cxx24__numeric_traits_integerImE8__digitsE"
.LASF285:
	.string	"_ZNSt6vectorIsSaIsEE5eraseEN9__gnu_cxx17__normal_iteratorIPKsS1_EE"
.LASF850:
	.string	"/home/joana/Documents/JoanaLearning/C++/Udemy-LearnAdvancedC++Programming/LearnCPP/CompilerOptimization"
.LASF478:
	.string	"float"
.LASF785:
	.string	"someU8"
.LASF334:
	.string	"move_iterator"
.LASF856:
	.string	"decltype(nullptr)"
.LASF775:
	.string	"sizeTest"
.LASF2:
	.string	"exception_ptr"
.LASF667:
	.string	"p_sign_posn"
.LASF255:
	.string	"_ZNKSt6vectorIsSaIsEE5emptyEv"
.LASF400:
	.string	"_Destroy<short int*, short int>"
.LASF302:
	.string	"_M_insert_rval"
.LASF114:
	.string	"_ZSt4cout"
.LASF547:
	.string	"vfwprintf"
.LASF616:
	.string	"__intmax_t"
.LASF167:
	.string	"_M_start"
.LASF504:
	.string	"_IO_buf_base"
.LASF216:
	.string	"_ZNSt6vectorIsSaIsEEC4EOS1_RKS0_"
.LASF198:
	.string	"_M_create_storage"
.LASF487:
	.string	"unsigned int"
.LASF191:
	.string	"_ZNSt12_Vector_baseIsSaIsEEC4EOS1_RKS0_"
.LASF98:
	.string	"Init"
.LASF221:
	.string	"_ZNSt6vectorIsSaIsEEaSEOS1_"
.LASF51:
	.string	"char_traits<char>"
.LASF757:
	.string	"perror"
.LASF846:
	.string	"operator new"
.LASF831:
	.string	"_ZNSt12_Vector_baseIsSaIsEED2Ev"
.LASF644:
	.string	"intptr_t"
.LASF706:
	.string	"qsort"
.LASF576:
	.string	"wcsspn"
.LASF135:
	.string	"__uninit_default_n<short int*, long unsigned int>"
.LASF851:
	.string	"operator bool"
.LASF263:
	.string	"_ZNSt6vectorIsSaIsEE2atEm"
.LASF468:
	.string	"_ZNK9__gnu_cxx17__normal_iteratorIPsSt6vectorIsSaIsEEEmiEl"
.LASF300:
	.string	"_M_shrink_to_fit"
.LASF284:
	.string	"erase"
.LASF834:
	.string	"__new_size"
.LASF464:
	.string	"_ZNK9__gnu_cxx17__normal_iteratorIPsSt6vectorIsSaIsEEEixEl"
.LASF519:
	.string	"__pad1"
.LASF520:
	.string	"__pad2"
.LASF521:
	.string	"__pad3"
.LASF522:
	.string	"__pad4"
.LASF523:
	.string	"__pad5"
.LASF452:
	.string	"_ZN9__gnu_cxx13new_allocatorIsE7destroyIsEEvPT_"
.LASF836:
	.string	"_ZNSt6vectorIsSaIsEEC2Ev"
.LASF762:
	.string	"setvbuf"
.LASF728:
	.string	"_sbuf"
.LASF470:
	.string	"_Container"
.LASF282:
	.string	"_ZNSt6vectorIsSaIsEE6insertEN9__gnu_cxx17__normal_iteratorIPKsS1_EESt16initializer_listIsE"
.LASF539:
	.string	"mbrtowc"
.LASF395:
	.string	"_Destroy<short int*>"
.LASF69:
	.string	"_ZNSt11char_traitsIcE12to_char_typeERKi"
.LASF170:
	.string	"_ZNSt12_Vector_baseIsSaIsEE12_Vector_implC4Ev"
.LASF332:
	.string	"_M_current"
.LASF575:
	.string	"wcsrtombs"
.LASF278:
	.string	"_ZNSt6vectorIsSaIsEE8pop_backEv"
.LASF439:
	.string	"new_allocator<short int>"
.LASF90:
	.string	"_ZNSt11char_traitsIwE11eq_int_typeERKjS2_"
.LASF685:
	.string	"_Atomic_word"
.LASF272:
	.string	"_ZNSt6vectorIsSaIsEE4dataEv"
.LASF485:
	.string	"overflow_arg_area"
.LASF759:
	.string	"rename"
.LASF291:
	.string	"_ZNSt6vectorIsSaIsEE18_M_fill_initializeEmRKs"
.LASF230:
	.string	"rbegin"
.LASF203:
	.string	"iterator"
.LASF767:
	.string	"program_invocation_short_name"
.LASF753:
	.string	"fsetpos"
.LASF307:
	.string	"_ZNKSt6vectorIsSaIsEE12_M_check_lenEmPKc"
.LASF152:
	.string	"rebind_alloc"
.LASF524:
	.string	"_mode"
.LASF125:
	.string	"wcerr"
.LASF429:
	.string	"_ZN9__gnu_cxx14__alloc_traitsISaIsEE27_S_propagate_on_copy_assignEv"
.LASF18:
	.string	"~exception_ptr"
.LASF111:
	.string	"ostream"
.LASF651:
	.string	"decimal_point"
.LASF222:
	.string	"_ZNSt6vectorIsSaIsEEaSESt16initializer_listIsE"
.LASF378:
	.string	"_ZSt6fill_nIPsmsET_S1_T0_RKT1_"
.LASF756:
	.string	"getchar"
.LASF451:
	.string	"_ZNK9__gnu_cxx13new_allocatorIsE8max_sizeEv"
.LASF47:
	.string	"_ZNSt21piecewise_construct_tC4Ev"
.LASF824:
	.string	"__elems_before"
.LASF491:
	.string	"__count"
.LASF445:
	.string	"_ZN9__gnu_cxx13new_allocatorIsED4Ev"
.LASF781:
	.string	"_ZNSt12_Vector_baseIsSaIsEE12_Vector_implD4Ev"
.LASF821:
	.string	"__alloc"
.LASF32:
	.string	"_ZNKSt17integral_constantIbLb0EEclEv"
.LASF844:
	.string	"print"
.LASF601:
	.string	"bool"
.LASF81:
	.string	"_ZNSt11char_traitsIwE2ltERKwS2_"
.LASF632:
	.string	"uint_least8_t"
.LASF357:
	.string	"_ZNKSt13move_iteratorIPsEixEl"
.LASF358:
	.string	"conditional<true, short int&&, short int&>"
.LASF628:
	.string	"int_least8_t"
.LASF476:
	.string	"__unknown__"
.LASF67:
	.string	"_ZNSt11char_traitsIcE6assignEPcmc"
.LASF306:
	.string	"_M_check_len"
.LASF178:
	.string	"_M_impl"
.LASF382:
	.string	"_ZSt22__uninitialized_copy_aISt13move_iteratorIPsES1_sET0_T_S4_S3_RSaIT1_E"
.LASF528:
	.string	"btowc"
.LASF859:
	.string	"_ZN9TestInputD4Ev"
.LASF237:
	.string	"_ZNKSt6vectorIsSaIsEE6cbeginEv"
.LASF73:
	.string	"_ZNSt11char_traitsIcE11eq_int_typeERKiS2_"
.LASF646:
	.string	"intmax_t"
.LASF38:
	.string	"false_type"
.LASF480:
	.string	"long double"
.LASF160:
	.string	"_ZNSaIsEC4Ev"
.LASF542:
	.string	"putwc"
.LASF151:
	.string	"_ZNSt16allocator_traitsISaIsEE37select_on_container_copy_constructionERKS0_"
.LASF829:
	.string	"__size"
.LASF526:
	.string	"FILE"
.LASF777:
	.string	"data1"
.LASF778:
	.string	"data2"
.LASF779:
	.string	"data3"
.LASF806:
	.string	"_Num"
.LASF225:
	.string	"begin"
.LASF638:
	.string	"int_fast32_t"
.LASF416:
	.string	"__numeric_traits_floating<double>"
.LASF691:
	.string	"ldiv_t"
.LASF563:
	.string	"tm_mday"
.LASF574:
	.string	"wcsncpy"
.LASF490:
	.string	"__wchb"
.LASF130:
	.string	"_ForwardIterator"
.LASF142:
	.string	"size_type"
.LASF700:
	.string	"bsearch"
.LASF37:
	.string	"_ZNKSt17integral_constantIbLb1EEclEv"
.LASF684:
	.string	"getdate_err"
.LASF211:
	.string	"_ZNSt6vectorIsSaIsEEC4EmRKS0_"
.LASF43:
	.string	"__is_integer<double>"
.LASF803:
	.string	"__first"
.LASF861:
	.string	"__static_initialization_and_destruction_0"
.LASF244:
	.string	"size"
.LASF20:
	.string	"swap"
.LASF58:
	.string	"_ZNSt11char_traitsIcE7compareEPKcS2_m"
.LASF600:
	.string	"long long unsigned int"
.LASF833:
	.string	"_ZNSt12_Vector_baseIsSaIsEE12_Vector_implD2Ev"
.LASF113:
	.string	"_ZSt7nothrow"
.LASF568:
	.string	"tm_isdst"
.LASF466:
	.string	"_ZNK9__gnu_cxx17__normal_iteratorIPsSt6vectorIsSaIsEEEplEl"
.LASF486:
	.string	"reg_save_area"
.LASF830:
	.string	"__destroy_from"
.LASF800:
	.string	"_ZN9__gnu_cxx24__numeric_traits_integerIlE5__maxE"
.LASF808:
	.string	"__it"
.LASF308:
	.string	"_M_erase_at_end"
.LASF625:
	.string	"uint16_t"
.LASF597:
	.string	"wcstoll"
.LASF153:
	.string	"destroy<short int>"
.LASF139:
	.string	"allocator_type"
.LASF168:
	.string	"_M_finish"
.LASF218:
	.string	"~vector"
.LASF692:
	.string	"7lldiv_t"
.LASF796:
	.string	"_ZN9__gnu_cxx24__numeric_traits_integerIcE5__maxE"
.LASF386:
	.string	"max<long unsigned int>"
.LASF13:
	.string	"_ZNSt15__exception_ptr13exception_ptrC4EDn"
.LASF25:
	.string	"_ZSt17rethrow_exceptionNSt15__exception_ptr13exception_ptrE"
.LASF331:
	.string	"move_iterator<short int*>"
.LASF761:
	.string	"setbuf"
.LASF560:
	.string	"tm_sec"
.LASF569:
	.string	"tm_gmtoff"
.LASF814:
	.string	"_ZN9__gnu_cxx13new_allocatorIsEC2Ev"
.LASF664:
	.string	"p_sep_by_space"
.LASF428:
	.string	"_S_propagate_on_move_assign"
.LASF330:
	.string	"_Iterator"
.LASF683:
	.string	"timezone"
.LASF566:
	.string	"tm_wday"
.LASF296:
	.string	"_M_fill_insert"
.LASF394:
	.string	"_ZSt27__uninitialized_default_n_aIPsmsET_S1_T0_RSaIT1_E"
.LASF54:
	.string	"_ZNSt11char_traitsIcE2eqERKcS2_"
.LASF210:
	.string	"_ZNSt6vectorIsSaIsEEC4ERKS0_"
.LASF343:
	.string	"operator++"
.LASF348:
	.string	"_ZNSt13move_iteratorIPsEmmEi"
.LASF305:
	.string	"_ZNSt6vectorIsSaIsEE14_M_emplace_auxEN9__gnu_cxx17__normal_iteratorIPKsS1_EEOs"
.LASF123:
	.string	"wcout"
.LASF835:
	.string	"_ZNSt6vectorIsSaIsEED2Ev"
.LASF540:
	.string	"mbsinit"
.LASF474:
	.string	"operator-<short int*, std::vector<short int> >"
.LASF545:
	.string	"swscanf"
.LASF207:
	.string	"vector"
.LASF410:
	.string	"__digits"
.LASF577:
	.string	"wcstod"
.LASF347:
	.string	"_ZNSt13move_iteratorIPsEmmEv"
.LASF266:
	.string	"_ZNSt6vectorIsSaIsEE5frontEv"
.LASF26:
	.string	"integral_constant<bool, false>"
.LASF839:
	.string	"test"
.LASF39:
	.string	"__cxx11"
.LASF629:
	.string	"int_least16_t"
.LASF226:
	.string	"_ZNSt6vectorIsSaIsEE5beginEv"
.LASF169:
	.string	"_M_end_of_storage"
.LASF688:
	.string	"quot"
.LASF351:
	.string	"operator+="
.LASF495:
	.string	"__FILE"
.LASF236:
	.string	"cbegin"
.LASF301:
	.string	"_ZNSt6vectorIsSaIsEE16_M_shrink_to_fitEv"
.LASF109:
	.string	"basic_istream<wchar_t, std::char_traits<wchar_t> >"
.LASF610:
	.string	"__int16_t"
.LASF827:
	.string	"_ZNSaIsED2Ev"
.LASF675:
	.string	"setlocale"
.LASF516:
	.string	"_shortbuf"
.LASF423:
	.string	"_S_select_on_copy"
.LASF731:
	.string	"_IO_2_1_stdout_"
.LASF212:
	.string	"_ZNSt6vectorIsSaIsEEC4EmRKsRKS0_"
.LASF593:
	.string	"wcsrchr"
.LASF213:
	.string	"_ZNSt6vectorIsSaIsEEC4ERKS1_"
.LASF181:
	.string	"_ZNKSt12_Vector_baseIsSaIsEE19_M_get_Tp_allocatorEv"
.LASF536:
	.string	"fwscanf"
.LASF488:
	.string	"wint_t"
.LASF449:
	.string	"_ZN9__gnu_cxx13new_allocatorIsE8allocateEmPKv"
.LASF324:
	.string	"initializer_list<short int>"
.LASF162:
	.string	"~allocator"
.LASF606:
	.string	"__int128"
.LASF727:
	.string	"_next"
.LASF103:
	.string	"ios_base"
.LASF619:
	.string	"__off64_t"
.LASF268:
	.string	"back"
.LASF275:
	.string	"_ZNSt6vectorIsSaIsEE9push_backERKs"
.LASF854:
	.string	"_ZNSt12_Destroy_auxILb1EE9__destroyIPsEEvT_S3_"
.LASF23:
	.string	"_ZNKSt15__exception_ptr13exception_ptr20__cxa_exception_typeEv"
.LASF749:
	.string	"fopen"
.LASF383:
	.string	"__make_move_if_noexcept_iterator<short int>"
.LASF159:
	.string	"allocator"
.LASF772:
	.string	"wctrans"
.LASF652:
	.string	"thousands_sep"
.LASF376:
	.string	"_ZSt12__niter_baseIPsET_S1_"
.LASF208:
	.string	"_ZNSt8ios_base4InitC4Ev"
.LASF40:
	.string	"__swappable_details"
.LASF840:
	.string	"joana1"
.LASF841:
	.string	"joana2"
.LASF649:
	.string	"char32_t"
.LASF760:
	.string	"rewind"
.LASF505:
	.string	"_IO_buf_end"
.LASF253:
	.string	"_ZNKSt6vectorIsSaIsEE8capacityEv"
.LASF743:
	.string	"feof"
.LASF571:
	.string	"wcslen"
.LASF403:
	.string	"_ZSt4moveIRsEONSt16remove_referenceIT_E4typeEOS2_"
.LASF149:
	.string	"_ZNSt16allocator_traitsISaIsEE8max_sizeERKS0_"
.LASF559:
	.string	"wcsftime"
.LASF93:
	.string	"_ZNSt11char_traitsIwE7not_eofERKj"
.LASF845:
	.string	"_Z5printi"
.LASF710:
	.string	"strtod"
.LASF70:
	.string	"to_int_type"
.LASF720:
	.string	"strtof"
.LASF805:
	.string	"__result"
.LASF450:
	.string	"_ZN9__gnu_cxx13new_allocatorIsE10deallocateEPsm"
.LASF640:
	.string	"uint_fast8_t"
.LASF157:
	.string	"_Alloc"
.LASF68:
	.string	"to_char_type"
.LASF711:
	.string	"strtol"
.LASF50:
	.string	"__debug"
.LASF662:
	.string	"frac_digits"
.LASF373:
	.string	"_ZSt10__fill_n_aIPsmsEN9__gnu_cxx11__enable_ifIXsrSt11__is_scalarIT1_E7__valueET_E6__typeES6_T0_RKS4_"
.LASF88:
	.string	"_ZNSt11char_traitsIwE12to_char_typeERKj"
.LASF655:
	.string	"currency_symbol"
.LASF736:
	.string	"stderr"
.LASF605:
	.string	"short int"
.LASF129:
	.string	"_Destroy_aux<true>"
.LASF475:
	.string	"_ZN9__gnu_cxxmiIPsSt6vectorIsSaIsEEEENS_17__normal_iteratorIT_T0_E15difference_typeERKS8_SB_"
.LASF166:
	.string	"_M_exception_object"
.LASF467:
	.string	"_ZN9__gnu_cxx17__normal_iteratorIPsSt6vectorIsSaIsEEEmIEl"
.LASF59:
	.string	"_ZNSt11char_traitsIcE6lengthEPKc"
.LASF627:
	.string	"uint64_t"
.LASF87:
	.string	"_ZNSt11char_traitsIwE6assignEPwmw"
.LASF289:
	.string	"_ZNSt6vectorIsSaIsEE5clearEv"
.LASF235:
	.string	"_ZNKSt6vectorIsSaIsEE4rendEv"
.LASF85:
	.string	"_ZNSt11char_traitsIwE4moveEPwPKwm"
.LASF204:
	.string	"const_iterator"
.LASF315:
	.string	"_ZNSt6vectorIsSaIsEE14_M_move_assignEOS1_St17integral_constantIbLb0EE"
.LASF435:
	.string	"_S_nothrow_move"
.LASF270:
	.string	"_ZNKSt6vectorIsSaIsEE4backEv"
.LASF724:
	.string	"__state"
.LASF362:
	.string	"__copy_move_a<true, short int*, short int*>"
.LASF242:
	.string	"crend"
.LASF752:
	.string	"fseek"
.LASF621:
	.string	"int16_t"
.LASF695:
	.string	"atexit"
.LASF232:
	.string	"_ZNKSt6vectorIsSaIsEE6rbeginEv"
.LASF361:
	.string	"_ZNSt11__copy_moveILb1ELb1ESt26random_access_iterator_tagE8__copy_mIsEEPT_PKS3_S6_S4_"
.LASF852:
	.string	"_ZNKSt15__exception_ptr13exception_ptrcvbEv"
.LASF388:
	.string	"__uninitialized_default_n<short int*, long unsigned int>"
.LASF121:
	.string	"_ZSt4wcin"
.LASF515:
	.string	"_vtable_offset"
.LASF658:
	.string	"mon_grouping"
.LASF369:
	.string	"_ZSt12__miter_baseIPsEDTcl12__miter_basecldtfp_4baseEEESt13move_iteratorIT_E"
.LASF433:
	.string	"_S_always_equal"
.LASF740:
	.string	"_sys_errlist"
.LASF617:
	.string	"__uintmax_t"
.LASF190:
	.string	"_ZNSt12_Vector_baseIsSaIsEEC4EOS1_"
.LASF345:
	.string	"_ZNSt13move_iteratorIPsEppEi"
.LASF75:
	.string	"_ZNSt11char_traitsIcE6assignERcRKc"
.LASF809:
	.string	"__tmp"
.LASF277:
	.string	"pop_back"
.LASF344:
	.string	"_ZNSt13move_iteratorIPsEppEv"
.LASF554:
	.string	"wcscat"
.LASF473:
	.string	"__type"
.LASF826:
	.string	"__new_finish"
.LASF763:
	.string	"tmpfile"
.LASF686:
	.string	"11__mbstate_t"
.LASF131:
	.string	"__uninitialized_copy<true>"
.LASF264:
	.string	"_ZNKSt6vectorIsSaIsEE2atEm"
.LASF144:
	.string	"_ZNSt16allocator_traitsISaIsEE8allocateERS0_m"
.LASF673:
	.string	"int_p_sign_posn"
.LASF143:
	.string	"allocate"
.LASF41:
	.string	"__swappable_with_details"
.LASF679:
	.string	"__daylight"
.LASF136:
	.string	"_ZNSt27__uninitialized_default_n_1ILb1EE18__uninit_default_nIPsmEET_S3_T0_"
.LASF570:
	.string	"tm_zone"
.LASF173:
	.string	"_M_swap_data"
.LASF765:
	.string	"ungetc"
.LASF165:
	.string	"_Vector_impl"
.LASF319:
	.string	"emplace_back<short int>"
.LASF552:
	.string	"vwscanf"
.LASF259:
	.string	"_ZNSt6vectorIsSaIsEEixEm"
.LASF553:
	.string	"wcrtomb"
.LASF650:
	.string	"lconv"
.LASF847:
	.string	"_ZnwmPv"
.LASF421:
	.string	"__numeric_traits_integer<long int>"
.LASF499:
	.string	"_IO_read_end"
.LASF704:
	.string	"mbstowcs"
.LASF572:
	.string	"wcsncat"
.LASF420:
	.string	"__numeric_traits_integer<short int>"
.LASF78:
	.string	"char_traits<wchar_t>"
.LASF346:
	.string	"operator--"
.LASF787:
	.string	"__dso_handle"
.LASF398:
	.string	"forward<short int>"
.LASF626:
	.string	"uint32_t"
.LASF367:
	.string	"__copy_move_a2<true, short int*, short int*>"
.LASF674:
	.string	"int_n_sign_posn"
.LASF355:
	.string	"operator-="
.LASF341:
	.string	"operator->"
.LASF807:
	.string	"__simple"
.LASF370:
	.string	"copy<std::move_iterator<short int*>, short int*>"
.LASF641:
	.string	"uint_fast16_t"
.LASF533:
	.string	"fputws"
.LASF364:
	.string	"_IsMove"
.LASF550:
	.string	"vswscanf"
.LASF164:
	.string	"_Vector_base<short int, std::allocator<short int> >"
.LASF31:
	.string	"operator()"
.LASF541:
	.string	"mbsrtowcs"
.LASF412:
	.string	"__numeric_traits_floating<float>"
.LASF8:
	.string	"_ZNSt15__exception_ptr13exception_ptr10_M_releaseEv"
.LASF530:
	.string	"fgetws"
.LASF262:
	.string	"_ZNKSt6vectorIsSaIsEE14_M_range_checkEm"
.LASF96:
	.string	"literals"
.LASF19:
	.string	"_ZNSt15__exception_ptr13exception_ptrD4Ev"
.LASF182:
	.string	"get_allocator"
.LASF240:
	.string	"crbegin"
.LASF413:
	.string	"__max_digits10"
.LASF110:
	.string	"istream"
.LASF532:
	.string	"fputwc"
.LASF663:
	.string	"p_cs_precedes"
.LASF418:
	.string	"__numeric_traits_integer<long unsigned int>"
.LASF565:
	.string	"tm_year"
.LASF14:
	.string	"_ZNSt15__exception_ptr13exception_ptrC4EOS0_"
.LASF527:
	.string	"short unsigned int"
.LASF735:
	.string	"stdout"
.LASF337:
	.string	"base"
.LASF440:
	.string	"const_pointer"
.LASF750:
	.string	"fread"
.LASF465:
	.string	"_ZN9__gnu_cxx17__normal_iteratorIPsSt6vectorIsSaIsEEEpLEl"
.LASF702:
	.string	"ldiv"
.LASF405:
	.string	"__ops"
.LASF548:
	.string	"vfwscanf"
.LASF502:
	.string	"_IO_write_ptr"
.LASF120:
	.string	"wcin"
.LASF843:
	.string	"_ZN9TestInputC2Ev"
.LASF89:
	.string	"_ZNSt11char_traitsIwE11to_int_typeERKw"
.LASF91:
	.string	"_ZNSt11char_traitsIcE3eofEv"
.LASF92:
	.string	"_ZNSt11char_traitsIwE3eofEv"
.LASF0:
	.string	"__exception_ptr"
.LASF612:
	.string	"__int32_t"
.LASF273:
	.string	"_ZNKSt6vectorIsSaIsEE4dataEv"
.LASF623:
	.string	"int64_t"
.LASF818:
	.string	"__in_chrg"
.LASF396:
	.string	"_ZNSt20__uninitialized_copyILb1EE13__uninit_copyISt13move_iteratorIPsES3_EET0_T_S6_S5_"
.LASF183:
	.string	"_ZNKSt12_Vector_baseIsSaIsEE13get_allocatorEv"
.LASF682:
	.string	"daylight"
.LASF391:
	.string	"_ZSt34__uninitialized_move_if_noexcept_aIPsS0_SaIsEET0_T_S3_S2_RT1_"
.LASF7:
	.string	"_ZNSt15__exception_ptr13exception_ptr9_M_addrefEv"
.LASF537:
	.string	"getwc"
.LASF95:
	.string	"true_type"
.LASF770:
	.string	"iswctype"
.LASF408:
	.string	"__max"
.LASF66:
	.string	"assign"
.LASF653:
	.string	"grouping"
.LASF193:
	.string	"_ZNSt12_Vector_baseIsSaIsEED4Ev"
.LASF822:
	.string	"__len"
.LASF158:
	.string	"allocator<short int>"
.LASF402:
	.string	"move<short int&>"
.LASF637:
	.string	"int_fast16_t"
.LASF589:
	.string	"wprintf"
.LASF374:
	.string	"_OutputIterator"
.LASF271:
	.string	"data"
.LASF286:
	.string	"_ZNSt6vectorIsSaIsEE5eraseEN9__gnu_cxx17__normal_iteratorIPKsS1_EES6_"
.LASF76:
	.string	"_ZNSt11char_traitsIcE7not_eofERKi"
.LASF745:
	.string	"fflush"
.LASF233:
	.string	"rend"
.LASF145:
	.string	"_ZNSt16allocator_traitsISaIsEE8allocateERS0_mPKv"
.LASF209:
	.string	"_ZNSt6vectorIsSaIsEEC4Ev"
.LASF825:
	.string	"__new_start"
.LASF707:
	.string	"quick_exit"
.LASF196:
	.string	"_M_deallocate"
.LASF531:
	.string	"wchar_t"
.LASF482:
	.string	"typedef __va_list_tag __va_list_tag"
.LASF855:
	.string	"_ZN9__gnu_cxx3divExx"
.LASF137:
	.string	"_Size"
.LASF141:
	.string	"const_void_pointer"
.LASF819:
	.string	"_ZN9__gnu_cxx13new_allocatorIsED2Ev"
.LASF404:
	.string	"__gnu_cxx"
.LASF582:
	.string	"wcstoul"
.LASF689:
	.string	"div_t"
.LASF751:
	.string	"freopen"
.LASF813:
	.string	"_ZNSt13move_iteratorIPsEC2ES0_"
	.hidden	DW.ref.__gxx_personality_v0
	.weak	DW.ref.__gxx_personality_v0
	.section	.data.rel.local.DW.ref.__gxx_personality_v0,"awG",@progbits,DW.ref.__gxx_personality_v0,comdat
	.align 8
	.type	DW.ref.__gxx_personality_v0, @object
	.size	DW.ref.__gxx_personality_v0, 8
DW.ref.__gxx_personality_v0:
	.quad	__gxx_personality_v0
	.hidden	__dso_handle
	.ident	"GCC: (Ubuntu 7.5.0-3ubuntu1~18.04) 7.5.0"
	.section	.note.GNU-stack,"",@progbits
