	.file	"main.cpp"
# GNU C++14 (Ubuntu 7.5.0-3ubuntu1~18.04) version 7.5.0 (x86_64-linux-gnu)
#	compiled by GNU C version 7.5.0, GMP version 6.1.2, MPFR version 4.0.1, MPC version 1.1.0, isl version isl-0.19-GMP

# GGC heuristics: --param ggc-min-expand=100 --param ggc-min-heapsize=131072
# options passed:  -imultiarch x86_64-linux-gnu -D_GNU_SOURCE main.cpp
# -mtune=generic -march=x86-64 -auxbase-strip main_o3.s -g -O3
# -fverbose-asm -fstack-protector-strong -Wformat -Wformat-security
# options enabled:  -fPIC -fPIE -faggressive-loop-optimizations
# -falign-labels -fasynchronous-unwind-tables -fauto-inc-dec
# -fbranch-count-reg -fcaller-saves -fchkp-check-incomplete-type
# -fchkp-check-read -fchkp-check-write -fchkp-instrument-calls
# -fchkp-narrow-bounds -fchkp-optimize -fchkp-store-bounds
# -fchkp-use-static-bounds -fchkp-use-static-const-bounds
# -fchkp-use-wrappers -fcode-hoisting -fcombine-stack-adjustments -fcommon
# -fcompare-elim -fcprop-registers -fcrossjumping -fcse-follow-jumps
# -fdefer-pop -fdelete-null-pointer-checks -fdevirtualize
# -fdevirtualize-speculatively -fdwarf2-cfi-asm -fearly-inlining
# -feliminate-unused-debug-types -fexceptions -fexpensive-optimizations
# -fforward-propagate -ffp-int-builtin-inexact -ffunction-cse -fgcse
# -fgcse-after-reload -fgcse-lm -fgnu-runtime -fgnu-unique
# -fguess-branch-probability -fhoist-adjacent-loads -fident -fif-conversion
# -fif-conversion2 -findirect-inlining -finline -finline-atomics
# -finline-functions -finline-functions-called-once
# -finline-small-functions -fipa-bit-cp -fipa-cp -fipa-cp-clone -fipa-icf
# -fipa-icf-functions -fipa-icf-variables -fipa-profile -fipa-pure-const
# -fipa-ra -fipa-reference -fipa-sra -fipa-vrp -fira-hoist-pressure
# -fira-share-save-slots -fira-share-spill-slots
# -fisolate-erroneous-paths-dereference -fivopts -fkeep-static-consts
# -fleading-underscore -flifetime-dse -flra-remat -flto-odr-type-merging
# -fmath-errno -fmerge-constants -fmerge-debug-strings
# -fmove-loop-invariants -fomit-frame-pointer -foptimize-sibling-calls
# -foptimize-strlen -fpartial-inlining -fpeel-loops -fpeephole -fpeephole2
# -fplt -fpredictive-commoning -fprefetch-loop-arrays -free
# -freg-struct-return -freorder-blocks -freorder-functions
# -frerun-cse-after-loop -fsched-critical-path-heuristic
# -fsched-dep-count-heuristic -fsched-group-heuristic -fsched-interblock
# -fsched-last-insn-heuristic -fsched-rank-heuristic -fsched-spec
# -fsched-spec-insn-heuristic -fsched-stalled-insns-dep -fschedule-fusion
# -fschedule-insns2 -fsemantic-interposition -fshow-column -fshrink-wrap
# -fshrink-wrap-separate -fsigned-zeros -fsplit-ivs-in-unroller
# -fsplit-loops -fsplit-paths -fsplit-wide-types -fssa-backprop
# -fssa-phiopt -fstack-protector-strong -fstdarg-opt -fstore-merging
# -fstrict-aliasing -fstrict-overflow -fstrict-volatile-bitfields
# -fsync-libcalls -fthread-jumps -ftoplevel-reorder -ftrapping-math
# -ftree-bit-ccp -ftree-builtin-call-dce -ftree-ccp -ftree-ch
# -ftree-coalesce-vars -ftree-copy-prop -ftree-cselim -ftree-dce
# -ftree-dominator-opts -ftree-dse -ftree-forwprop -ftree-fre
# -ftree-loop-distribute-patterns -ftree-loop-if-convert -ftree-loop-im
# -ftree-loop-ivcanon -ftree-loop-optimize -ftree-loop-vectorize
# -ftree-parallelize-loops= -ftree-partial-pre -ftree-phiprop -ftree-pre
# -ftree-pta -ftree-reassoc -ftree-scev-cprop -ftree-sink
# -ftree-slp-vectorize -ftree-slsr -ftree-sra -ftree-switch-conversion
# -ftree-tail-merge -ftree-ter -ftree-vrp -funit-at-a-time -funswitch-loops
# -funwind-tables -fvar-tracking -fvar-tracking-assignments -fverbose-asm
# -fzero-initialized-in-bss -m128bit-long-double -m64 -m80387
# -malign-stringops -mavx256-split-unaligned-load
# -mavx256-split-unaligned-store -mfancy-math-387 -mfp-ret-in-387 -mfxsr
# -mglibc -mieee-fp -mlong-double-80 -mmmx -mno-sse4 -mpush-args -mred-zone
# -msse -msse2 -mstv -mtls-direct-seg-refs -mvzeroupper

	.text
.Ltext0:
	.section	.text._ZNKSt5ctypeIcE8do_widenEc,"axG",@progbits,_ZNKSt5ctypeIcE8do_widenEc,comdat
	.align 2
	.p2align 4,,15
	.weak	_ZNKSt5ctypeIcE8do_widenEc
	.type	_ZNKSt5ctypeIcE8do_widenEc, @function
_ZNKSt5ctypeIcE8do_widenEc:
.LFB1321:
	.file 1 "/usr/include/c++/7/bits/locale_facets.h"
	.loc 1 1082 0
	.cfi_startproc
.LVL0:
# /usr/include/c++/7/bits/locale_facets.h:1083:       { return __c; }
	.loc 1 1083 0
	movl	%esi, %eax	# __c,
	ret
	.cfi_endproc
.LFE1321:
	.size	_ZNKSt5ctypeIcE8do_widenEc, .-_ZNKSt5ctypeIcE8do_widenEc
	.text
	.p2align 4,,15
	.globl	_Z5printi
	.type	_Z5printi, @function
_Z5printi:
.LFB1909:
	.file 2 "main.cpp"
	.loc 2 5 0
	.cfi_startproc
.LVL1:
	pushq	%rbp	#
	.cfi_def_cfa_offset 16
	.cfi_offset 6, -16
	pushq	%rbx	#
	.cfi_def_cfa_offset 24
	.cfi_offset 3, -24
	movl	%edi, %esi	# v, v
# main.cpp:6:     std::cout << v << std::endl;
	.loc 2 6 0
	leaq	_ZSt4cout(%rip), %rdi	#,
.LVL2:
# main.cpp:5: {
	.loc 2 5 0
	subq	$8, %rsp	#,
	.cfi_def_cfa_offset 32
# main.cpp:6:     std::cout << v << std::endl;
	.loc 2 6 0
	call	_ZNSolsEi@PLT	#
.LVL3:
	movq	%rax, %rbp	#, _4
.LVL4:
.LBB620:
.LBB621:
.LBB622:
# /usr/include/c++/7/ostream:591:     { return flush(__os.put(__os.widen('\n'))); }
	.file 3 "/usr/include/c++/7/ostream"
	.loc 3 591 0
	movq	(%rax), %rax	# _4->_vptr.basic_ostream, _4->_vptr.basic_ostream
.LVL5:
.LBB623:
.LBB624:
# /usr/include/c++/7/bits/basic_ios.h:450:       { return __check_facet(_M_ctype).widen(__c); }
	.file 4 "/usr/include/c++/7/bits/basic_ios.h"
	.loc 4 450 0
	movq	-24(%rax), %rax	# MEM[(long int *)_6 + -24B], MEM[(long int *)_6 + -24B]
.LVL6:
	movq	240(%rbp,%rax), %rbx	# MEM[(const struct basic_ios *)_9]._M_ctype, _14
.LVL7:
.LBB625:
.LBB626:
# /usr/include/c++/7/bits/basic_ios.h:49:       if (!__f)
	.loc 4 49 0
	testq	%rbx, %rbx	# _14
	je	.L9	#,
.LVL8:
.LBE626:
.LBE625:
.LBB628:
.LBB629:
# /usr/include/c++/7/bits/locale_facets.h:874: 	if (_M_widen_ok)
	.loc 1 874 0
	cmpb	$0, 56(%rbx)	#, MEM[(const struct ctype *)_14]._M_widen_ok
	je	.L5	#,
	movsbl	67(%rbx), %esi	# MEM[(const struct ctype *)_14]._M_widen, _13
.LVL9:
.L6:
.LBE629:
.LBE628:
.LBE624:
.LBE623:
# /usr/include/c++/7/ostream:591:     { return flush(__os.put(__os.widen('\n'))); }
	.loc 3 591 0
	movq	%rbp, %rdi	# _4,
	call	_ZNSo3putEc@PLT	#
.LVL10:
.LBE622:
.LBE621:
.LBE620:
# main.cpp:7: }
	.loc 2 7 0
	addq	$8, %rsp	#,
	.cfi_remember_state
	.cfi_def_cfa_offset 24
.LBB645:
.LBB643:
.LBB641:
.LBB636:
.LBB637:
# /usr/include/c++/7/ostream:613:     { return __os.flush(); }
	.loc 3 613 0
	movq	%rax, %rdi	# _12,
.LBE637:
.LBE636:
.LBE641:
.LBE643:
.LBE645:
# main.cpp:7: }
	.loc 2 7 0
	popq	%rbx	#
	.cfi_def_cfa_offset 16
	popq	%rbp	#
	.cfi_def_cfa_offset 8
.LVL11:
.LBB646:
.LBB644:
.LBB642:
.LBB639:
.LBB638:
# /usr/include/c++/7/ostream:613:     { return __os.flush(); }
	.loc 3 613 0
	jmp	_ZNSo5flushEv@PLT	#
.LVL12:
	.p2align 4,,10
	.p2align 3
.L5:
	.cfi_restore_state
.LBE638:
.LBE639:
.LBB640:
.LBB635:
.LBB633:
.LBB632:
.LBB630:
.LBB631:
# /usr/include/c++/7/bits/locale_facets.h:876: 	this->_M_widen_init();
	.loc 1 876 0
	movq	%rbx, %rdi	# _14,
	call	_ZNKSt5ctypeIcE13_M_widen_initEv@PLT	#
.LVL13:
# /usr/include/c++/7/bits/locale_facets.h:877: 	return this->do_widen(__c);
	.loc 1 877 0
	movq	(%rbx), %rax	# MEM[(const struct ctype *)_14].D.29884._vptr.facet, MEM[(const struct ctype *)_14].D.29884._vptr.facet
	leaq	_ZNKSt5ctypeIcE8do_widenEc(%rip), %rdx	#, tmp105
	movl	$10, %esi	#, _13
	movq	48(%rax), %rax	# MEM[(int (*__vtbl_ptr_type) () *)_23 + 48B], _24
	cmpq	%rdx, %rax	# tmp105, _24
	je	.L6	#,
	movq	%rbx, %rdi	# _14,
	call	*%rax	# _24
.LVL14:
	movsbl	%al, %esi	# _30, _13
	jmp	.L6	#
.LVL15:
.L9:
.LBE631:
.LBE630:
.LBE632:
.LBE633:
.LBB634:
.LBB627:
# /usr/include/c++/7/bits/basic_ios.h:50: 	__throw_bad_cast();
	.loc 4 50 0
	call	_ZSt16__throw_bad_castv@PLT	#
.LVL16:
.LBE627:
.LBE634:
.LBE635:
.LBE640:
.LBE642:
.LBE644:
.LBE646:
	.cfi_endproc
.LFE1909:
	.size	_Z5printi, .-_Z5printi
	.section	.text._ZN9TestInputD2Ev,"axG",@progbits,_ZN9TestInputD5Ev,comdat
	.align 2
	.p2align 4,,15
	.weak	_ZN9TestInputD2Ev
	.type	_ZN9TestInputD2Ev, @function
_ZN9TestInputD2Ev:
.LFB1915:
	.loc 2 10 0
	.cfi_startproc
.LVL17:
	pushq	%rbx	#
	.cfi_def_cfa_offset 16
	.cfi_offset 3, -16
# main.cpp:10: struct TestInput
	.loc 2 10 0
	movq	%rdi, %rbx	# this, this
.LBB647:
.LBB648:
# /usr/include/c++/7/bits/stl_vector.h:434:       { std::_Destroy(this->_M_impl._M_start, this->_M_impl._M_finish,
	.file 5 "/usr/include/c++/7/bits/stl_vector.h"
	.loc 5 434 0
	movq	48(%rdi), %rdi	# MEM[(struct vector *)this_1(D) + 48B].D.41411._M_impl._M_start, _6
.LVL18:
.LBB649:
.LBB650:
.LBB651:
# /usr/include/c++/7/bits/stl_vector.h:179: 	if (__p)
	.loc 5 179 0
	testq	%rdi, %rdi	# _6
	je	.L11	#,
.LVL19:
.LBB652:
.LBB653:
.LBB654:
# /usr/include/c++/7/ext/new_allocator.h:125: 	::operator delete(__p);
	.file 6 "/usr/include/c++/7/ext/new_allocator.h"
	.loc 6 125 0
	call	_ZdlPv@PLT	#
.LVL20:
.L11:
.LBE654:
.LBE653:
.LBE652:
.LBE651:
.LBE650:
.LBE649:
.LBE648:
.LBE647:
.LBB655:
.LBB656:
# /usr/include/c++/7/bits/stl_vector.h:434:       { std::_Destroy(this->_M_impl._M_start, this->_M_impl._M_finish,
	.loc 5 434 0
	movq	24(%rbx), %rdi	# MEM[(struct vector *)this_1(D) + 24B].D.41411._M_impl._M_start, _5
.LVL21:
.LBB657:
.LBB658:
.LBB659:
# /usr/include/c++/7/bits/stl_vector.h:179: 	if (__p)
	.loc 5 179 0
	testq	%rdi, %rdi	# _5
	je	.L12	#,
.LVL22:
.LBB660:
.LBB661:
.LBB662:
# /usr/include/c++/7/ext/new_allocator.h:125: 	::operator delete(__p);
	.loc 6 125 0
	call	_ZdlPv@PLT	#
.LVL23:
.L12:
.LBE662:
.LBE661:
.LBE660:
.LBE659:
.LBE658:
.LBE657:
.LBE656:
.LBE655:
.LBB663:
.LBB664:
# /usr/include/c++/7/bits/stl_vector.h:434:       { std::_Destroy(this->_M_impl._M_start, this->_M_impl._M_finish,
	.loc 5 434 0
	movq	(%rbx), %rdi	# MEM[(struct vector *)this_1(D)].D.41411._M_impl._M_start, _4
.LVL24:
.LBB665:
.LBB666:
.LBB667:
# /usr/include/c++/7/bits/stl_vector.h:179: 	if (__p)
	.loc 5 179 0
	testq	%rdi, %rdi	# _4
	je	.L10	#,
.LVL25:
.LBE667:
.LBE666:
.LBE665:
.LBE664:
.LBE663:
# main.cpp:10: struct TestInput
	.loc 2 10 0
	popq	%rbx	#
	.cfi_remember_state
	.cfi_def_cfa_offset 8
.LVL26:
.LBB675:
.LBB674:
.LBB673:
.LBB672:
.LBB671:
.LBB668:
.LBB669:
.LBB670:
# /usr/include/c++/7/ext/new_allocator.h:125: 	::operator delete(__p);
	.loc 6 125 0
	jmp	_ZdlPv@PLT	#
.LVL27:
	.p2align 4,,10
	.p2align 3
.L10:
	.cfi_restore_state
.LBE670:
.LBE669:
.LBE668:
.LBE671:
.LBE672:
.LBE673:
.LBE674:
.LBE675:
# main.cpp:10: struct TestInput
	.loc 2 10 0
	popq	%rbx	#
	.cfi_def_cfa_offset 8
.LVL28:
	ret
	.cfi_endproc
.LFE1915:
	.size	_ZN9TestInputD2Ev, .-_ZN9TestInputD2Ev
	.weak	_ZN9TestInputD1Ev
	.set	_ZN9TestInputD1Ev,_ZN9TestInputD2Ev
	.section	.rodata._ZNSt6vectorIsSaIsEE6resizeEm.str1.1,"aMS",@progbits,1
.LC0:
	.string	"vector::_M_default_append"
	.section	.text._ZNSt6vectorIsSaIsEE6resizeEm,"axG",@progbits,_ZNSt6vectorIsSaIsEE6resizeEm,comdat
	.align 2
	.p2align 4,,15
	.weak	_ZNSt6vectorIsSaIsEE6resizeEm
	.type	_ZNSt6vectorIsSaIsEE6resizeEm, @function
_ZNSt6vectorIsSaIsEE6resizeEm:
.LFB2166:
	.loc 5 689 0
	.cfi_startproc
.LVL29:
	pushq	%r15	#
	.cfi_def_cfa_offset 16
	.cfi_offset 15, -16
	pushq	%r14	#
	.cfi_def_cfa_offset 24
	.cfi_offset 14, -24
	pushq	%r13	#
	.cfi_def_cfa_offset 32
	.cfi_offset 13, -32
	pushq	%r12	#
	.cfi_def_cfa_offset 40
	.cfi_offset 12, -40
	pushq	%rbp	#
	.cfi_def_cfa_offset 48
	.cfi_offset 6, -48
	pushq	%rbx	#
	.cfi_def_cfa_offset 56
	.cfi_offset 3, -56
	subq	$40, %rsp	#,
	.cfi_def_cfa_offset 96
# /usr/include/c++/7/bits/stl_vector.h:691: 	if (__new_size > size())
	.loc 5 691 0
	movq	8(%rdi), %r13	# MEM[(short int * *)this_6(D) + 8B], prephitmp_77
	movq	(%rdi), %r15	# MEM[(short int * *)this_6(D)], prephitmp_106
.LVL30:
.LBB736:
.LBB737:
# /usr/include/c++/7/bits/stl_vector.h:671:       { return size_type(this->_M_impl._M_finish - this->_M_impl._M_start); }
	.loc 5 671 0
	movq	%r13, %rcx	# prephitmp_77, _13
	subq	%r15, %rcx	# prephitmp_106, _13
	movq	%rcx, %rax	# _13, tmp124
	sarq	%rax	# tmp124
.LBE737:
.LBE736:
# /usr/include/c++/7/bits/stl_vector.h:691: 	if (__new_size > size())
	.loc 5 691 0
	cmpq	%rax, %rsi	# tmp124, __new_size
	ja	.L41	#,
.LVL31:
# /usr/include/c++/7/bits/stl_vector.h:693: 	else if (__new_size < size())
	.loc 5 693 0
	jnb	.L21	#,
.LVL32:
# /usr/include/c++/7/bits/stl_vector.h:694: 	  _M_erase_at_end(this->_M_impl._M_start + __new_size);
	.loc 5 694 0
	leaq	(%r15,%rsi,2), %rax	#, tmp147
.LVL33:
	movq	%rax, 8(%rdi)	# tmp147, MEM[(short int * *)this_6(D) + 8B]
.LVL34:
.L21:
# /usr/include/c++/7/bits/stl_vector.h:695:       }
	.loc 5 695 0
	addq	$40, %rsp	#,
	.cfi_remember_state
	.cfi_def_cfa_offset 56
	popq	%rbx	#
	.cfi_def_cfa_offset 48
	popq	%rbp	#
	.cfi_def_cfa_offset 40
	popq	%r12	#
	.cfi_def_cfa_offset 32
	popq	%r13	#
	.cfi_def_cfa_offset 24
	popq	%r14	#
	.cfi_def_cfa_offset 16
	popq	%r15	#
	.cfi_def_cfa_offset 8
	ret
.LVL35:
	.p2align 4,,10
	.p2align 3
.L41:
	.cfi_restore_state
# /usr/include/c++/7/bits/stl_vector.h:692: 	  _M_default_append(__new_size - size());
	.loc 5 692 0
	movq	%rsi, %rdx	# __new_size, _1
	movq	%rsi, %r12	# __new_size, __new_size
.LBB738:
.LBB739:
# /usr/include/c++/7/bits/vector.tcc:560: 			- this->_M_impl._M_finish) >= __n)
	.file 7 "/usr/include/c++/7/bits/vector.tcc"
	.loc 7 560 0
	movq	16(%rdi), %rsi	# this_6(D)->D.41411._M_impl._M_end_of_storage, tmp125
.LVL36:
.LBE739:
.LBE738:
# /usr/include/c++/7/bits/stl_vector.h:692: 	  _M_default_append(__new_size - size());
	.loc 5 692 0
	subq	%rax, %rdx	# tmp124, _1
.LVL37:
	movq	%rdi, %rbx	# this, this
.LVL38:
.LBB792:
.LBB790:
# /usr/include/c++/7/bits/vector.tcc:560: 			- this->_M_impl._M_finish) >= __n)
	.loc 7 560 0
	subq	%r13, %rsi	# prephitmp_77, tmp125
	sarq	%rsi	# tmp128
# /usr/include/c++/7/bits/vector.tcc:559: 	  if (size_type(this->_M_impl._M_end_of_storage
	.loc 7 559 0
	cmpq	%rsi, %rdx	# tmp128, _1
	ja	.L23	#,
.LVL39:
.LBB740:
.LBB741:
.LBB742:
.LBB743:
.LBB744:
.LBB745:
.LBB746:
.LBB747:
.LBB748:
# /usr/include/c++/7/bits/stl_algobase.h:754: 	*__first = __tmp;
	.file 8 "/usr/include/c++/7/bits/stl_algobase.h"
	.loc 8 754 0
	leaq	(%rdx,%rdx), %rbp	#, _104
	movq	%r13, %rdi	# prephitmp_77,
	xorl	%esi, %esi	#
	movq	%rbp, %rdx	# _104,
.LVL40:
	call	memset@PLT	#
.LVL41:
.LBE748:
.LBE747:
.LBE746:
.LBE745:
.LBE744:
.LBE743:
.LBE742:
.LBE741:
.LBE740:
# /usr/include/c++/7/bits/vector.tcc:562: 	      this->_M_impl._M_finish =
	.loc 7 562 0
	leaq	0(%r13,%rbp), %rdx	#, tmp133
	movq	%rdx, 8(%rbx)	# tmp133, this_6(D)->D.41411._M_impl._M_finish
.LBE790:
.LBE792:
# /usr/include/c++/7/bits/stl_vector.h:695:       }
	.loc 5 695 0
	addq	$40, %rsp	#,
	.cfi_remember_state
	.cfi_def_cfa_offset 56
	popq	%rbx	#
	.cfi_def_cfa_offset 48
.LVL42:
	popq	%rbp	#
	.cfi_def_cfa_offset 40
	popq	%r12	#
	.cfi_def_cfa_offset 32
.LVL43:
	popq	%r13	#
	.cfi_def_cfa_offset 24
.LVL44:
	popq	%r14	#
	.cfi_def_cfa_offset 16
	popq	%r15	#
	.cfi_def_cfa_offset 8
	ret
.LVL45:
	.p2align 4,,10
	.p2align 3
.L23:
	.cfi_restore_state
.LBB793:
.LBB791:
.LBB749:
.LBB750:
.LBB751:
# /usr/include/c++/7/bits/stl_vector.h:1504: 	if (max_size() - size() < __n)
	.loc 5 1504 0
	movabsq	$9223372036854775807, %rsi	#, tmp135
	subq	%rax, %rsi	# tmp124, tmp134
	cmpq	%rsi, %rdx	# tmp134, _1
	ja	.L42	#,
.LVL46:
	cmpq	%rax, %rdx	# tmp124, _1
	movq	%rax, %rsi	# tmp124, tmp136
	cmovnb	%rdx, %rsi	# _1,, tmp136
	addq	%rsi, %rax	# tmp136, tmp137
	jc	.L34	#,
.LVL47:
# /usr/include/c++/7/bits/stl_vector.h:1508: 	return (__len < size() || __len > max_size()) ? max_size() : __len;
	.loc 5 1508 0
	testq	%rax, %rax	# tmp137
	js	.L34	#,
.LVL48:
.LBE751:
.LBE750:
.LBB754:
.LBB755:
# /usr/include/c++/7/bits/stl_vector.h:172: 	return __n != 0 ? _Tr::allocate(_M_impl, __n) : pointer();
	.loc 5 172 0
	je	.L35	#,
	leaq	(%rax,%rax), %rbp	#, prephitmp_107
.LVL49:
.L28:
.LBB756:
.LBB757:
.LBB758:
# /usr/include/c++/7/ext/new_allocator.h:111: 	return static_cast<_Tp*>(::operator new(__n * sizeof(_Tp)));
	.loc 6 111 0
	movq	%rbp, %rdi	# prephitmp_107,
	movq	%rcx, 16(%rsp)	# _13, %sfp
	movq	%rdx, 8(%rsp)	# _1, %sfp
.LVL50:
	call	_Znwm@PLT	#
.LVL51:
	movq	8(%rbx), %r13	# this_6(D)->D.41411._M_impl._M_finish, prephitmp_77
	movq	(%rbx), %r15	# this_6(D)->D.41411._M_impl._M_start, prephitmp_106
	movq	%rax, %r14	#, _58
	movq	8(%rsp), %rdx	# %sfp, _1
	movq	16(%rsp), %rcx	# %sfp, _13
	addq	%r14, %rbp	# _58, _56
	movq	%r13, %rax	# prephitmp_77, _74
	subq	%r15, %rax	# prephitmp_106, _74
	movq	%rax, 24(%rsp)	# _74, %sfp
.LVL52:
.L29:
	leaq	(%r14,%rcx), %rdi	#, tmp139
.LBE758:
.LBE757:
.LBE756:
.LBE755:
.LBE754:
.LBB760:
.LBB761:
.LBB762:
.LBB763:
.LBB764:
.LBB765:
.LBB766:
.LBB767:
.LBB768:
# /usr/include/c++/7/bits/stl_algobase.h:754: 	*__first = __tmp;
	.loc 8 754 0
	addq	%rdx, %rdx	# tmp138
.LVL53:
	xorl	%esi, %esi	#
	call	memset@PLT	#
.LVL54:
.LBE768:
.LBE767:
.LBE766:
.LBE765:
.LBE764:
.LBE763:
.LBE762:
.LBE761:
.LBE760:
.LBB769:
.LBB770:
.LBB771:
.LBB772:
.LBB773:
.LBB774:
.LBB775:
.LBB776:
.LBB777:
.LBB778:
.LBB779:
# /usr/include/c++/7/bits/stl_algobase.h:367: 	  if (_Num)
	.loc 8 367 0
	cmpq	%r13, %r15	# prephitmp_77, prephitmp_106
	je	.L30	#,
# /usr/include/c++/7/bits/stl_algobase.h:368: 	    __builtin_memmove(__result, __first, sizeof(_Tp) * _Num);
	.loc 8 368 0
	movq	24(%rsp), %rdx	# %sfp,
	movq	%r15, %rsi	# prephitmp_106,
	movq	%r14, %rdi	# _58,
	call	memmove@PLT	#
.LVL55:
.L31:
.LBE779:
.LBE778:
.LBE777:
.LBE776:
.LBE775:
.LBE774:
.LBE773:
.LBE772:
.LBE771:
.LBE770:
.LBE769:
.LBB780:
.LBB781:
.LBB782:
.LBB783:
.LBB784:
# /usr/include/c++/7/ext/new_allocator.h:125: 	::operator delete(__p);
	.loc 6 125 0
	movq	%r15, %rdi	# prephitmp_106,
	call	_ZdlPv@PLT	#
.LVL56:
.L32:
.LBE784:
.LBE783:
.LBE782:
.LBE781:
.LBE780:
# /usr/include/c++/7/bits/vector.tcc:596: 	      this->_M_impl._M_finish = __new_start + __size + __n;
	.loc 7 596 0
	leaq	(%r14,%r12,2), %rax	#, tmp145
# /usr/include/c++/7/bits/vector.tcc:595: 	      this->_M_impl._M_start = __new_start;
	.loc 7 595 0
	movq	%r14, (%rbx)	# _58, this_6(D)->D.41411._M_impl._M_start
# /usr/include/c++/7/bits/vector.tcc:597: 	      this->_M_impl._M_end_of_storage = __new_start + __len;
	.loc 7 597 0
	movq	%rbp, 16(%rbx)	# _56, this_6(D)->D.41411._M_impl._M_end_of_storage
# /usr/include/c++/7/bits/vector.tcc:596: 	      this->_M_impl._M_finish = __new_start + __size + __n;
	.loc 7 596 0
	movq	%rax, 8(%rbx)	# tmp145, this_6(D)->D.41411._M_impl._M_finish
	jmp	.L21	#
.LVL57:
	.p2align 4,,10
	.p2align 3
.L34:
.LBB786:
.LBB752:
# /usr/include/c++/7/bits/stl_vector.h:1508: 	return (__len < size() || __len > max_size()) ? max_size() : __len;
	.loc 5 1508 0
	movq	$-2, %rbp	#, prephitmp_107
	jmp	.L28	#
.LVL58:
	.p2align 4,,10
	.p2align 3
.L30:
.LBE752:
.LBE786:
.LBB787:
.LBB785:
# /usr/include/c++/7/bits/stl_vector.h:179: 	if (__p)
	.loc 5 179 0
	testq	%r15, %r15	# prephitmp_106
	je	.L32	#,
	jmp	.L31	#
.LVL59:
.L35:
.LBE785:
.LBE787:
.LBB788:
.LBB759:
# /usr/include/c++/7/bits/stl_vector.h:172: 	return __n != 0 ? _Tr::allocate(_M_impl, __n) : pointer();
	.loc 5 172 0
	movq	%rcx, 24(%rsp)	# _13, %sfp
	xorl	%ebp, %ebp	# _56
	xorl	%r14d, %r14d	# _58
	jmp	.L29	#
.LVL60:
.L42:
.LBE759:
.LBE788:
.LBB789:
.LBB753:
# /usr/include/c++/7/bits/stl_vector.h:1505: 	  __throw_length_error(__N(__s));
	.loc 5 1505 0
	leaq	.LC0(%rip), %rdi	#,
	call	_ZSt20__throw_length_errorPKc@PLT	#
.LVL61:
.LBE753:
.LBE789:
.LBE749:
.LBE791:
.LBE793:
	.cfi_endproc
.LFE2166:
	.size	_ZNSt6vectorIsSaIsEE6resizeEm, .-_ZNSt6vectorIsSaIsEE6resizeEm
	.section	.rodata.str1.1,"aMS",@progbits,1
.LC1:
	.string	"Size input.data1: "
.LC2:
	.string	"Size input.data2: "
.LC3:
	.string	"Size input.data3: "
.LC4:
	.string	"Size MainTest: "
.LC5:
	.string	"Size test.output.data1: "
.LC6:
	.string	"Size test.output.data2: "
.LC7:
	.string	"Size test.output.data3: "
	.section	.text.startup,"ax",@progbits
	.p2align 4,,15
	.globl	main
	.type	main, @function
main:
.LFB1910:
	.loc 2 33 0
	.cfi_startproc
	.cfi_personality 0x9b,DW.ref.__gxx_personality_v0
	.cfi_lsda 0x1b,.LLSDA1910
	pushq	%r15	#
	.cfi_def_cfa_offset 16
	.cfi_offset 15, -16
	pushq	%r14	#
	.cfi_def_cfa_offset 24
	.cfi_offset 14, -24
	pushq	%r13	#
	.cfi_def_cfa_offset 32
	.cfi_offset 13, -32
	pushq	%r12	#
	.cfi_def_cfa_offset 40
	.cfi_offset 12, -40
	pushq	%rbp	#
	.cfi_def_cfa_offset 48
	.cfi_offset 6, -48
	pushq	%rbx	#
	.cfi_def_cfa_offset 56
	.cfi_offset 3, -56
.LBB1060:
# main.cpp:35:     for (int joana1 = 0; joana1 < sizeTest; joana1++)
	.loc 2 35 0
	xorl	%ebp, %ebp	# joana1
.LBE1060:
.LBB1341:
.LBB1342:
.LBB1343:
.LBB1344:
.LBB1345:
.LBB1346:
# /usr/include/c++/7/bits/stl_vector.h:89: 	: _Tp_alloc_type(), _M_start(), _M_finish(), _M_end_of_storage()
	.loc 5 89 0
	xorl	%ebx, %ebx	# pretmp_123
.LBE1346:
.LBE1345:
.LBE1344:
.LBE1343:
.LBE1342:
.LBE1341:
# main.cpp:33: {
	.loc 2 33 0
	subq	$136, %rsp	#,
	.cfi_def_cfa_offset 192
	leaq	48(%rsp), %rdx	#, tmp315
.LBB1367:
.LBB1351:
.LBB1352:
.LBB1353:
.LBB1354:
.LBB1355:
# /usr/include/c++/7/bits/stl_vector.h:89: 	: _Tp_alloc_type(), _M_start(), _M_finish(), _M_end_of_storage()
	.loc 5 89 0
	movq	$0, 48(%rsp)	#, MEM[(struct _Vector_impl *)&input]._M_start
	movq	$0, 56(%rsp)	#, MEM[(struct _Vector_impl *)&input]._M_finish
.LBE1355:
.LBE1354:
.LBE1353:
.LBE1352:
.LBE1351:
.LBE1367:
# main.cpp:33: {
	.loc 2 33 0
	movq	%fs:40, %rax	#, tmp279
	movq	%rax, 120(%rsp)	# tmp279, D.48805
	xorl	%eax, %eax	# tmp279
.LVL62:
.LBB1368:
.LBB1360:
.LBB1359:
.LBB1358:
.LBB1357:
.LBB1356:
# /usr/include/c++/7/bits/stl_vector.h:89: 	: _Tp_alloc_type(), _M_start(), _M_finish(), _M_end_of_storage()
	.loc 5 89 0
	movq	$0, 64(%rsp)	#, MEM[(struct _Vector_impl *)&input]._M_end_of_storage
.LVL63:
.LBE1356:
.LBE1357:
.LBE1358:
.LBE1359:
.LBE1360:
.LBB1361:
.LBB1362:
.LBB1363:
.LBB1364:
.LBB1365:
	movq	$0, 72(%rsp)	#, MEM[(struct _Vector_impl *)&input + 24B]._M_start
	movq	$0, 80(%rsp)	#, MEM[(struct _Vector_impl *)&input + 24B]._M_finish
	movq	$0, 88(%rsp)	#, MEM[(struct _Vector_impl *)&input + 24B]._M_end_of_storage
.LVL64:
.LBE1365:
.LBE1364:
.LBE1363:
.LBE1362:
.LBE1361:
.LBB1366:
.LBB1350:
.LBB1349:
.LBB1348:
.LBB1347:
	movq	$0, 96(%rsp)	#, MEM[(struct _Vector_impl *)&input + 48B]._M_start
	movq	$0, 104(%rsp)	#, MEM[(struct _Vector_impl *)&input + 48B]._M_finish
	movq	$0, 112(%rsp)	#, MEM[(struct _Vector_impl *)&input + 48B]._M_end_of_storage
.LVL65:
	movq	%rdx, 8(%rsp)	# tmp315, %sfp
	jmp	.L69	#
.LVL66:
	.p2align 4,,10
	.p2align 3
.L108:
.LBE1347:
.LBE1348:
.LBE1349:
.LBE1350:
.LBE1366:
.LBE1368:
.LBB1369:
.LBB1061:
.LBB1062:
.LBB1063:
.LBB1064:
.LBB1065:
.LBB1066:
# /usr/include/c++/7/ext/new_allocator.h:136: 	{ ::new((void *)__p) _Up(std::forward<_Args>(__args)...); }
	.loc 6 136 0
	testq	%rbx, %rbx	# pretmp_123
	je	.L45	#,
	movw	%bp, (%rbx)	# joana1, *prephitmp_270
.L45:
.LVL67:
.LBE1066:
.LBE1065:
.LBE1064:
# /usr/include/c++/7/bits/vector.tcc:102: 	    ++this->_M_impl._M_finish;
	.loc 7 102 0
	addq	$2, %rbx	#, tmp212
	movq	%rbx, 56(%rsp)	# tmp212, MEM[(struct vector *)&input].D.41411._M_impl._M_finish
.LVL68:
.LBE1063:
.LBE1062:
.LBE1061:
.LBB1145:
.LBB1146:
.LBB1147:
# /usr/include/c++/7/bits/vector.tcc:98: 	if (this->_M_impl._M_finish != this->_M_impl._M_end_of_storage)
	.loc 7 98 0
	movq	80(%rsp), %rbx	# MEM[(struct vector *)&input + 24B].D.41411._M_impl._M_finish, _134
	cmpq	88(%rsp), %rbx	# MEM[(struct vector *)&input + 24B].D.41411._M_impl._M_end_of_storage, _134
	je	.L52	#,
.LVL69:
.L110:
.LBB1148:
.LBB1149:
.LBB1150:
# /usr/include/c++/7/ext/new_allocator.h:136: 	{ ::new((void *)__p) _Up(std::forward<_Args>(__args)...); }
	.loc 6 136 0
	testq	%rbx, %rbx	# _134
	je	.L53	#,
	movw	%r12w, (%rbx)	# _1, *_134
.L53:
.LVL70:
.LBE1150:
.LBE1149:
.LBE1148:
# /usr/include/c++/7/bits/vector.tcc:102: 	    ++this->_M_impl._M_finish;
	.loc 7 102 0
	addq	$2, %rbx	#, tmp217
	movq	%rbx, 80(%rsp)	# tmp217, MEM[(struct vector *)&input + 24B].D.41411._M_impl._M_finish
.LVL71:
.LBE1147:
.LBE1146:
.LBE1145:
.LBB1231:
.LBB1232:
.LBB1233:
# /usr/include/c++/7/bits/vector.tcc:98: 	if (this->_M_impl._M_finish != this->_M_impl._M_end_of_storage)
	.loc 7 98 0
	movq	104(%rsp), %rbx	# MEM[(struct vector *)&input + 48B].D.41411._M_impl._M_finish, _182
	cmpq	112(%rsp), %rbx	# MEM[(struct vector *)&input + 48B].D.41411._M_impl._M_end_of_storage, _182
	je	.L60	#,
.LVL72:
.L112:
.LBB1234:
.LBB1235:
.LBB1236:
# /usr/include/c++/7/ext/new_allocator.h:136: 	{ ::new((void *)__p) _Up(std::forward<_Args>(__args)...); }
	.loc 6 136 0
	testq	%rbx, %rbx	# _182
	je	.L61	#,
	movw	%r12w, (%rbx)	# _1, *_182
.L61:
.LVL73:
.LBE1236:
.LBE1235:
.LBE1234:
.LBE1233:
.LBE1232:
.LBE1231:
# main.cpp:35:     for (int joana1 = 0; joana1 < sizeTest; joana1++)
	.loc 2 35 0
	addl	$1, %ebp	#, joana1
.LVL74:
.LBB1323:
.LBB1315:
.LBB1307:
# /usr/include/c++/7/bits/vector.tcc:102: 	    ++this->_M_impl._M_finish;
	.loc 7 102 0
	addq	$2, %rbx	#, tmp221
.LBE1307:
.LBE1315:
.LBE1323:
# main.cpp:35:     for (int joana1 = 0; joana1 < sizeTest; joana1++)
	.loc 2 35 0
	cmpl	$90, %ebp	#, joana1
.LBB1324:
.LBB1316:
.LBB1308:
# /usr/include/c++/7/bits/vector.tcc:102: 	    ++this->_M_impl._M_finish;
	.loc 7 102 0
	movq	%rbx, 104(%rsp)	# tmp221, MEM[(struct vector *)&input + 48B].D.41411._M_impl._M_finish
.LVL75:
.LBE1308:
.LBE1316:
.LBE1324:
# main.cpp:35:     for (int joana1 = 0; joana1 < sizeTest; joana1++)
	.loc 2 35 0
	je	.L68	#,
.LVL76:
.L114:
	movq	56(%rsp), %rbx	# MEM[(struct vector *)&input].D.41411._M_impl._M_finish, pretmp_123
	movq	64(%rsp), %rax	# MEM[(struct vector *)&input].D.41411._M_impl._M_end_of_storage, prephitmp_171
.LVL77:
.L69:
.LBB1325:
.LBB1140:
.LBB1135:
# /usr/include/c++/7/bits/vector.tcc:98: 	if (this->_M_impl._M_finish != this->_M_impl._M_end_of_storage)
	.loc 7 98 0
	cmpq	%rbx, %rax	# pretmp_123, prephitmp_171
.LBE1135:
.LBE1140:
.LBE1325:
# main.cpp:37:         input.data1.push_back(joana1);
	.loc 2 37 0
	movl	%ebp, %r12d	# joana1, _1
.LVL78:
.LBB1326:
.LBB1141:
.LBB1136:
# /usr/include/c++/7/bits/vector.tcc:98: 	if (this->_M_impl._M_finish != this->_M_impl._M_end_of_storage)
	.loc 7 98 0
	jne	.L108	#,
.LVL79:
.LBB1067:
.LBB1068:
.LBB1069:
.LBB1070:
# /usr/include/c++/7/bits/stl_vector.h:1504: 	if (max_size() - size() < __n)
	.loc 5 1504 0
	movq	48(%rsp), %rcx	# MEM[(short int * *)&input], pretmp_88
.LVL80:
.LBB1071:
.LBB1072:
# /usr/include/c++/7/bits/stl_vector.h:671:       { return size_type(this->_M_impl._M_finish - this->_M_impl._M_start); }
	.loc 5 671 0
	movq	%rbx, %r14	# pretmp_123, _120
	subq	%rcx, %r14	# pretmp_88, _120
.LBE1072:
.LBE1071:
.LBB1073:
.LBB1074:
# /usr/include/c++/7/bits/stl_algobase.h:224:       if (__a < __b)
	.loc 8 224 0
	movq	%r14, %rax	# _120, tmp213
	sarq	%rax	# tmp213
	je	.L75	#,
.LVL81:
.LBE1074:
.LBE1073:
# /usr/include/c++/7/bits/stl_vector.h:1508: 	return (__len < size() || __len > max_size()) ? max_size() : __len;
	.loc 5 1508 0
	cmpq	%r14, %rax	# _120, tmp213
# /usr/include/c++/7/bits/stl_vector.h:1507: 	const size_type __len = size() + std::max(size(), __n);
	.loc 5 1507 0
	movq	%r14, %r8	# _120, __len
.LVL82:
# /usr/include/c++/7/bits/stl_vector.h:1508: 	return (__len < size() || __len > max_size()) ? max_size() : __len;
	.loc 5 1508 0
	movq	$-2, %r15	#, prephitmp_310
	jbe	.L109	#,
.LVL83:
.L47:
.LBE1070:
.LBE1069:
.LBB1079:
.LBB1080:
.LBB1081:
.LBB1082:
.LBB1083:
# /usr/include/c++/7/ext/new_allocator.h:111: 	return static_cast<_Tp*>(::operator new(__n * sizeof(_Tp)));
	.loc 6 111 0
	movq	%r15, %rdi	# prephitmp_310,
	movq	8(%rsp), %r13	# %sfp, tmp250
.LEHB0:
	call	_Znwm@PLT	#
.LVL84:
	movq	56(%rsp), %r9	# MEM[(struct vector *)&input].D.41411._M_impl._M_finish, prephitmp_253
	movq	48(%rsp), %rcx	# MEM[(struct vector *)&input].D.41411._M_impl._M_start, pretmp_88
	movq	%rax, %r13	#, _132
	movq	%rbx, %r8	# pretmp_123, __len
	addq	%r13, %r15	# _132, prephitmp_226
.LVL85:
	movq	%r9, %rax	# prephitmp_253, prephitmp_251
.LVL86:
	subq	%rcx, %r8	# pretmp_88, __len
	subq	%rbx, %rax	# pretmp_123, prephitmp_251
.LBE1083:
.LBE1082:
.LBE1081:
.LBE1080:
.LBE1079:
.LBB1085:
.LBB1086:
.LBB1087:
# /usr/include/c++/7/ext/new_allocator.h:136: 	{ ::new((void *)__p) _Up(std::forward<_Args>(__args)...); }
	.loc 6 136 0
	addq	%r13, %r14	# _132, _98
.LVL87:
	movq	%rax, 16(%rsp)	# prephitmp_251, %sfp
	je	.L48	#,
	movw	%r12w, (%r14)	# _1, *_98
.LVL88:
.L48:
.LBE1087:
.LBE1086:
.LBE1085:
.LBB1088:
.LBB1089:
.LBB1090:
.LBB1091:
.LBB1092:
.LBB1093:
.LBB1094:
.LBB1095:
.LBB1096:
.LBB1097:
.LBB1098:
# /usr/include/c++/7/bits/stl_algobase.h:367: 	  if (_Num)
	.loc 8 367 0
	cmpq	%rcx, %rbx	# pretmp_88, pretmp_123
	je	.L49	#,
# /usr/include/c++/7/bits/stl_algobase.h:368: 	    __builtin_memmove(__result, __first, sizeof(_Tp) * _Num);
	.loc 8 368 0
	movq	%r8, %rdx	# __len,
	movq	%rcx, %rsi	# pretmp_88,
	movq	%r13, %rdi	# _132,
	movq	%r9, 40(%rsp)	# prephitmp_253, %sfp
	movq	%r8, 32(%rsp)	# __len, %sfp
	movq	%rcx, 24(%rsp)	# pretmp_88, %sfp
	call	memmove@PLT	#
.LVL89:
	movq	40(%rsp), %r9	# %sfp, prephitmp_253
	movq	32(%rsp), %r8	# %sfp, __len
	movq	24(%rsp), %rcx	# %sfp, pretmp_88
.L49:
.LVL90:
.LBE1098:
.LBE1097:
.LBE1096:
.LBE1095:
.LBE1094:
.LBE1093:
.LBE1092:
.LBE1091:
.LBE1090:
.LBE1089:
.LBE1088:
.LBB1099:
.LBB1100:
.LBB1101:
.LBB1102:
.LBB1103:
.LBB1104:
.LBB1105:
.LBB1106:
.LBB1107:
.LBB1108:
.LBB1109:
# /usr/include/c++/7/bits/stl_algobase.h:367: 	  if (_Num)
	.loc 8 367 0
	cmpq	%r9, %rbx	# prephitmp_253, pretmp_123
.LBE1109:
.LBE1108:
.LBE1107:
.LBE1106:
.LBE1105:
.LBE1104:
.LBE1103:
.LBE1102:
.LBE1101:
.LBE1100:
.LBE1099:
# /usr/include/c++/7/bits/vector.tcc:429: 	  ++__new_finish;
	.loc 7 429 0
	leaq	2(%r13,%r8), %r8	#, __new_finish
.LVL91:
.LBB1120:
.LBB1119:
.LBB1118:
.LBB1117:
.LBB1116:
.LBB1115:
.LBB1114:
.LBB1113:
.LBB1112:
.LBB1111:
.LBB1110:
# /usr/include/c++/7/bits/stl_algobase.h:367: 	  if (_Num)
	.loc 8 367 0
	je	.L50	#,
# /usr/include/c++/7/bits/stl_algobase.h:368: 	    __builtin_memmove(__result, __first, sizeof(_Tp) * _Num);
	.loc 8 368 0
	movq	16(%rsp), %rdx	# %sfp,
	movq	%r8, %rdi	# __new_finish,
	movq	%rbx, %rsi	# pretmp_123,
	movq	%rcx, 24(%rsp)	# pretmp_88, %sfp
	call	memmove@PLT	#
.LVL92:
	movq	24(%rsp), %rcx	# %sfp, pretmp_88
	movq	%rax, %r8	#, __new_finish
.L50:
# /usr/include/c++/7/bits/stl_algobase.h:369: 	  return __result + _Num;
	.loc 8 369 0
	movq	16(%rsp), %rbx	# %sfp, prephitmp_251
	addq	%r8, %rbx	# __new_finish, prephitmp_251
.LVL93:
.LBE1110:
.LBE1111:
.LBE1112:
.LBE1113:
.LBE1114:
.LBE1115:
.LBE1116:
.LBE1117:
.LBE1118:
.LBE1119:
.LBE1120:
.LBB1121:
.LBB1122:
# /usr/include/c++/7/bits/stl_vector.h:179: 	if (__p)
	.loc 5 179 0
	testq	%rcx, %rcx	# pretmp_88
	je	.L51	#,
.LVL94:
.LBB1123:
.LBB1124:
.LBB1125:
# /usr/include/c++/7/ext/new_allocator.h:125: 	::operator delete(__p);
	.loc 6 125 0
	movq	%rcx, %rdi	# pretmp_88,
	call	_ZdlPv@PLT	#
.LVL95:
.L51:
.LBE1125:
.LBE1124:
.LBE1123:
.LBE1122:
.LBE1121:
# /usr/include/c++/7/bits/vector.tcc:451:       this->_M_impl._M_start = __new_start;
	.loc 7 451 0
	movq	%r13, 16(%rsp)	# _132, %sfp
# /usr/include/c++/7/bits/vector.tcc:453:       this->_M_impl._M_end_of_storage = __new_start + __len;
	.loc 7 453 0
	movq	%r15, 64(%rsp)	# prephitmp_226, MEM[(struct vector *)&input].D.41411._M_impl._M_end_of_storage
.LVL96:
# /usr/include/c++/7/bits/vector.tcc:451:       this->_M_impl._M_start = __new_start;
	.loc 7 451 0
	movq	16(%rsp), %xmm0	# %sfp, tmp216
	movq	%rbx, 16(%rsp)	# _112, %sfp
.LBE1068:
.LBE1067:
.LBE1136:
.LBE1141:
.LBE1326:
.LBB1327:
.LBB1226:
.LBB1221:
# /usr/include/c++/7/bits/vector.tcc:98: 	if (this->_M_impl._M_finish != this->_M_impl._M_end_of_storage)
	.loc 7 98 0
	movq	80(%rsp), %rbx	# MEM[(struct vector *)&input + 24B].D.41411._M_impl._M_finish, _134
.LVL97:
	cmpq	88(%rsp), %rbx	# MEM[(struct vector *)&input + 24B].D.41411._M_impl._M_end_of_storage, _134
.LBE1221:
.LBE1226:
.LBE1327:
.LBB1328:
.LBB1142:
.LBB1137:
.LBB1132:
.LBB1129:
# /usr/include/c++/7/bits/vector.tcc:451:       this->_M_impl._M_start = __new_start;
	.loc 7 451 0
	movhps	16(%rsp), %xmm0	# %sfp, tmp216
	movaps	%xmm0, 48(%rsp)	# tmp216, MEM[(short int * *)&input]
.LBE1129:
.LBE1132:
.LBE1137:
.LBE1142:
.LBE1328:
.LBB1329:
.LBB1227:
.LBB1222:
# /usr/include/c++/7/bits/vector.tcc:98: 	if (this->_M_impl._M_finish != this->_M_impl._M_end_of_storage)
	.loc 7 98 0
	jne	.L110	#,
.LVL98:
	.p2align 4,,10
	.p2align 3
.L52:
.LBB1151:
.LBB1152:
.LBB1153:
.LBB1154:
.LBB1155:
.LBB1156:
# /usr/include/c++/7/bits/stl_vector.h:671:       { return size_type(this->_M_impl._M_finish - this->_M_impl._M_start); }
	.loc 5 671 0
	movq	%rbx, %r14	# _134, _168
.LBE1156:
.LBE1155:
# /usr/include/c++/7/bits/stl_vector.h:1504: 	if (max_size() - size() < __n)
	.loc 5 1504 0
	movq	72(%rsp), %rcx	# MEM[(short int * *)&input + 24B], pretmp_192
.LVL99:
.LBB1158:
.LBB1157:
# /usr/include/c++/7/bits/stl_vector.h:671:       { return size_type(this->_M_impl._M_finish - this->_M_impl._M_start); }
	.loc 5 671 0
	subq	%rcx, %r14	# pretmp_192, _168
.LBE1157:
.LBE1158:
.LBB1159:
.LBB1160:
# /usr/include/c++/7/bits/stl_algobase.h:224:       if (__a < __b)
	.loc 8 224 0
	movq	%r14, %rax	# _168, tmp218
	sarq	%rax	# tmp218
	je	.L79	#,
.LVL100:
.LBE1160:
.LBE1159:
# /usr/include/c++/7/bits/stl_vector.h:1508: 	return (__len < size() || __len > max_size()) ? max_size() : __len;
	.loc 5 1508 0
	cmpq	%r14, %rax	# _168, tmp218
# /usr/include/c++/7/bits/stl_vector.h:1507: 	const size_type __len = size() + std::max(size(), __n);
	.loc 5 1507 0
	movq	%r14, %r9	# _168, __len
.LVL101:
# /usr/include/c++/7/bits/stl_vector.h:1508: 	return (__len < size() || __len > max_size()) ? max_size() : __len;
	.loc 5 1508 0
	movq	$-2, %r15	#, prephitmp_297
	jbe	.L111	#,
.LVL102:
.L55:
.LBE1154:
.LBE1153:
.LBB1165:
.LBB1166:
.LBB1167:
.LBB1168:
.LBB1169:
# /usr/include/c++/7/ext/new_allocator.h:111: 	return static_cast<_Tp*>(::operator new(__n * sizeof(_Tp)));
	.loc 6 111 0
	movq	%r15, %rdi	# prephitmp_297,
	movq	8(%rsp), %r13	# %sfp, tmp250
	call	_Znwm@PLT	#
.LVL103:
	movq	80(%rsp), %r10	# MEM[(struct vector *)&input + 24B].D.41411._M_impl._M_finish, _136
	movq	72(%rsp), %rcx	# MEM[(struct vector *)&input + 24B].D.41411._M_impl._M_start, pretmp_192
	movq	%rbx, %r9	# _134, __len
	addq	%rax, %r15	# _180, prephitmp_289
.LVL104:
	movq	%rax, %r8	#, _180
	movq	%r10, %r13	# _136, prephitmp_273
	subq	%rcx, %r9	# pretmp_192, __len
	subq	%rbx, %r13	# _134, prephitmp_273
.LBE1169:
.LBE1168:
.LBE1167:
.LBE1166:
.LBE1165:
.LBB1171:
.LBB1172:
.LBB1173:
# /usr/include/c++/7/ext/new_allocator.h:136: 	{ ::new((void *)__p) _Up(std::forward<_Args>(__args)...); }
	.loc 6 136 0
	addq	%rax, %r14	# _180, _146
.LVL105:
	je	.L56	#,
	movw	%r12w, (%r14)	# _1, *_146
.LVL106:
.L56:
.LBE1173:
.LBE1172:
.LBE1171:
.LBB1174:
.LBB1175:
.LBB1176:
.LBB1177:
.LBB1178:
.LBB1179:
.LBB1180:
.LBB1181:
.LBB1182:
.LBB1183:
.LBB1184:
# /usr/include/c++/7/bits/stl_algobase.h:367: 	  if (_Num)
	.loc 8 367 0
	cmpq	%rcx, %rbx	# pretmp_192, _134
	je	.L57	#,
# /usr/include/c++/7/bits/stl_algobase.h:368: 	    __builtin_memmove(__result, __first, sizeof(_Tp) * _Num);
	.loc 8 368 0
	movq	%r9, %rdx	# __len,
	movq	%rcx, %rsi	# pretmp_192,
	movq	%r8, %rdi	# _180,
	movq	%r10, 32(%rsp)	# _136, %sfp
	movq	%r9, 24(%rsp)	# __len, %sfp
	movq	%rcx, 16(%rsp)	# pretmp_192, %sfp
	call	memmove@PLT	#
.LVL107:
	movq	32(%rsp), %r10	# %sfp, _136
	movq	24(%rsp), %r9	# %sfp, __len
	movq	%rax, %r8	#, _180
	movq	16(%rsp), %rcx	# %sfp, pretmp_192
.L57:
.LVL108:
.LBE1184:
.LBE1183:
.LBE1182:
.LBE1181:
.LBE1180:
.LBE1179:
.LBE1178:
.LBE1177:
.LBE1176:
.LBE1175:
.LBE1174:
.LBB1185:
.LBB1186:
.LBB1187:
.LBB1188:
.LBB1189:
.LBB1190:
.LBB1191:
.LBB1192:
.LBB1193:
.LBB1194:
.LBB1195:
# /usr/include/c++/7/bits/stl_algobase.h:367: 	  if (_Num)
	.loc 8 367 0
	cmpq	%r10, %rbx	# _136, _134
.LBE1195:
.LBE1194:
.LBE1193:
.LBE1192:
.LBE1191:
.LBE1190:
.LBE1189:
.LBE1188:
.LBE1187:
.LBE1186:
.LBE1185:
# /usr/include/c++/7/bits/vector.tcc:429: 	  ++__new_finish;
	.loc 7 429 0
	leaq	2(%r8,%r9), %r9	#, __new_finish
.LVL109:
.LBB1206:
.LBB1205:
.LBB1204:
.LBB1203:
.LBB1202:
.LBB1201:
.LBB1200:
.LBB1199:
.LBB1198:
.LBB1197:
.LBB1196:
# /usr/include/c++/7/bits/stl_algobase.h:367: 	  if (_Num)
	.loc 8 367 0
	je	.L58	#,
# /usr/include/c++/7/bits/stl_algobase.h:368: 	    __builtin_memmove(__result, __first, sizeof(_Tp) * _Num);
	.loc 8 368 0
	movq	%r9, %rdi	# __new_finish,
	movq	%r13, %rdx	# prephitmp_273,
	movq	%rbx, %rsi	# _134,
	movq	%rcx, 24(%rsp)	# pretmp_192, %sfp
	movq	%r8, 16(%rsp)	# _180, %sfp
	call	memmove@PLT	#
.LVL110:
	movq	24(%rsp), %rcx	# %sfp, pretmp_192
	movq	16(%rsp), %r8	# %sfp, _180
	movq	%rax, %r9	#, __new_finish
.L58:
# /usr/include/c++/7/bits/stl_algobase.h:369: 	  return __result + _Num;
	.loc 8 369 0
	addq	%r9, %r13	# __new_finish, _160
.LVL111:
.LBE1196:
.LBE1197:
.LBE1198:
.LBE1199:
.LBE1200:
.LBE1201:
.LBE1202:
.LBE1203:
.LBE1204:
.LBE1205:
.LBE1206:
.LBB1207:
.LBB1208:
# /usr/include/c++/7/bits/stl_vector.h:179: 	if (__p)
	.loc 5 179 0
	testq	%rcx, %rcx	# pretmp_192
	je	.L59	#,
.LBB1209:
.LBB1210:
.LBB1211:
# /usr/include/c++/7/ext/new_allocator.h:125: 	::operator delete(__p);
	.loc 6 125 0
	movq	%rcx, %rdi	# pretmp_192,
	movq	%r8, 16(%rsp)	# _180, %sfp
.LVL112:
	call	_ZdlPv@PLT	#
.LVL113:
	movq	16(%rsp), %r8	# %sfp, _180
.L59:
.LBE1211:
.LBE1210:
.LBE1209:
.LBE1208:
.LBE1207:
.LBE1152:
.LBE1151:
.LBE1222:
.LBE1227:
.LBE1329:
.LBB1330:
.LBB1317:
.LBB1309:
# /usr/include/c++/7/bits/vector.tcc:98: 	if (this->_M_impl._M_finish != this->_M_impl._M_end_of_storage)
	.loc 7 98 0
	movq	104(%rsp), %rbx	# MEM[(struct vector *)&input + 48B].D.41411._M_impl._M_finish, _182
.LVL114:
	cmpq	112(%rsp), %rbx	# MEM[(struct vector *)&input + 48B].D.41411._M_impl._M_end_of_storage, _182
.LBE1309:
.LBE1317:
.LBE1330:
.LBB1331:
.LBB1228:
.LBB1223:
.LBB1218:
.LBB1215:
# /usr/include/c++/7/bits/vector.tcc:451:       this->_M_impl._M_start = __new_start;
	.loc 7 451 0
	movq	%r8, 72(%rsp)	# _180, MEM[(struct vector *)&input + 24B].D.41411._M_impl._M_start
# /usr/include/c++/7/bits/vector.tcc:452:       this->_M_impl._M_finish = __new_finish;
	.loc 7 452 0
	movq	%r13, 80(%rsp)	# _160, MEM[(struct vector *)&input + 24B].D.41411._M_impl._M_finish
# /usr/include/c++/7/bits/vector.tcc:453:       this->_M_impl._M_end_of_storage = __new_start + __len;
	.loc 7 453 0
	movq	%r15, 88(%rsp)	# prephitmp_289, MEM[(struct vector *)&input + 24B].D.41411._M_impl._M_end_of_storage
.LVL115:
.LBE1215:
.LBE1218:
.LBE1223:
.LBE1228:
.LBE1331:
.LBB1332:
.LBB1318:
.LBB1310:
# /usr/include/c++/7/bits/vector.tcc:98: 	if (this->_M_impl._M_finish != this->_M_impl._M_end_of_storage)
	.loc 7 98 0
	jne	.L112	#,
.LVL116:
	.p2align 4,,10
	.p2align 3
.L60:
.LBB1237:
.LBB1238:
.LBB1239:
.LBB1240:
# /usr/include/c++/7/bits/stl_vector.h:1504: 	if (max_size() - size() < __n)
	.loc 5 1504 0
	movq	96(%rsp), %rcx	# MEM[(short int * *)&input + 48B], prephitmp_255
.LVL117:
.LBB1241:
.LBB1242:
# /usr/include/c++/7/bits/stl_vector.h:671:       { return size_type(this->_M_impl._M_finish - this->_M_impl._M_start); }
	.loc 5 671 0
	movq	%rbx, %r14	# _182, _216
	subq	%rcx, %r14	# prephitmp_255, _216
.LBE1242:
.LBE1241:
.LBB1243:
.LBB1244:
# /usr/include/c++/7/bits/stl_algobase.h:224:       if (__a < __b)
	.loc 8 224 0
	movq	%r14, %rax	# _216, tmp222
	sarq	%rax	# tmp222
	je	.L83	#,
.LVL118:
.LBE1244:
.LBE1243:
# /usr/include/c++/7/bits/stl_vector.h:1508: 	return (__len < size() || __len > max_size()) ? max_size() : __len;
	.loc 5 1508 0
	cmpq	%r14, %rax	# _216, tmp222
# /usr/include/c++/7/bits/stl_vector.h:1507: 	const size_type __len = size() + std::max(size(), __n);
	.loc 5 1507 0
	movq	%r14, %r8	# _216, __len
.LVL119:
# /usr/include/c++/7/bits/stl_vector.h:1508: 	return (__len < size() || __len > max_size()) ? max_size() : __len;
	.loc 5 1508 0
	movq	$-2, %r15	#, prephitmp_141
	jbe	.L113	#,
.LVL120:
.L63:
.LBE1240:
.LBE1239:
.LBB1249:
.LBB1250:
.LBB1251:
.LBB1252:
.LBB1253:
# /usr/include/c++/7/ext/new_allocator.h:111: 	return static_cast<_Tp*>(::operator new(__n * sizeof(_Tp)));
	.loc 6 111 0
	movq	%r15, %rdi	# prephitmp_141,
	movq	8(%rsp), %r13	# %sfp, tmp250
	call	_Znwm@PLT	#
.LVL121:
	movq	104(%rsp), %r9	# MEM[(struct vector *)&input + 48B].D.41411._M_impl._M_finish, _184
	movq	96(%rsp), %rcx	# MEM[(struct vector *)&input + 48B].D.41411._M_impl._M_start, prephitmp_255
	movq	%rax, %r13	#, _228
	movq	%rbx, %r8	# _182, __len
	addq	%r13, %r15	# _228, _259
.LVL122:
	movq	%r9, %rax	# _184, prephitmp_286
.LVL123:
	subq	%rcx, %r8	# prephitmp_255, __len
	subq	%rbx, %rax	# _182, prephitmp_286
.LBE1253:
.LBE1252:
.LBE1251:
.LBE1250:
.LBE1249:
.LBB1255:
.LBB1256:
.LBB1257:
# /usr/include/c++/7/ext/new_allocator.h:136: 	{ ::new((void *)__p) _Up(std::forward<_Args>(__args)...); }
	.loc 6 136 0
	addq	%r13, %r14	# _228, _194
.LVL124:
	movq	%rax, 16(%rsp)	# prephitmp_286, %sfp
	je	.L64	#,
	movw	%r12w, (%r14)	# _1, *_194
.LVL125:
.L64:
.LBE1257:
.LBE1256:
.LBE1255:
.LBB1258:
.LBB1259:
.LBB1260:
.LBB1261:
.LBB1262:
.LBB1263:
.LBB1264:
.LBB1265:
.LBB1266:
.LBB1267:
.LBB1268:
# /usr/include/c++/7/bits/stl_algobase.h:367: 	  if (_Num)
	.loc 8 367 0
	cmpq	%rcx, %rbx	# prephitmp_255, _182
	je	.L65	#,
# /usr/include/c++/7/bits/stl_algobase.h:368: 	    __builtin_memmove(__result, __first, sizeof(_Tp) * _Num);
	.loc 8 368 0
	movq	%r8, %rdx	# __len,
	movq	%rcx, %rsi	# prephitmp_255,
	movq	%r13, %rdi	# _228,
	movq	%r9, 40(%rsp)	# _184, %sfp
	movq	%r8, 32(%rsp)	# __len, %sfp
	movq	%rcx, 24(%rsp)	# prephitmp_255, %sfp
	call	memmove@PLT	#
.LVL126:
	movq	40(%rsp), %r9	# %sfp, _184
	movq	32(%rsp), %r8	# %sfp, __len
	movq	24(%rsp), %rcx	# %sfp, prephitmp_255
.L65:
.LVL127:
.LBE1268:
.LBE1267:
.LBE1266:
.LBE1265:
.LBE1264:
.LBE1263:
.LBE1262:
.LBE1261:
.LBE1260:
.LBE1259:
.LBE1258:
.LBB1269:
.LBB1270:
.LBB1271:
.LBB1272:
.LBB1273:
.LBB1274:
.LBB1275:
.LBB1276:
.LBB1277:
.LBB1278:
.LBB1279:
# /usr/include/c++/7/bits/stl_algobase.h:367: 	  if (_Num)
	.loc 8 367 0
	cmpq	%r9, %rbx	# _184, _182
.LBE1279:
.LBE1278:
.LBE1277:
.LBE1276:
.LBE1275:
.LBE1274:
.LBE1273:
.LBE1272:
.LBE1271:
.LBE1270:
.LBE1269:
# /usr/include/c++/7/bits/vector.tcc:429: 	  ++__new_finish;
	.loc 7 429 0
	leaq	2(%r13,%r8), %r8	#, __new_finish
.LVL128:
.LBB1290:
.LBB1289:
.LBB1288:
.LBB1287:
.LBB1286:
.LBB1285:
.LBB1284:
.LBB1283:
.LBB1282:
.LBB1281:
.LBB1280:
# /usr/include/c++/7/bits/stl_algobase.h:367: 	  if (_Num)
	.loc 8 367 0
	je	.L66	#,
# /usr/include/c++/7/bits/stl_algobase.h:368: 	    __builtin_memmove(__result, __first, sizeof(_Tp) * _Num);
	.loc 8 368 0
	movq	16(%rsp), %rdx	# %sfp,
	movq	%r8, %rdi	# __new_finish,
	movq	%rbx, %rsi	# _182,
	movq	%rcx, 24(%rsp)	# prephitmp_255, %sfp
	call	memmove@PLT	#
.LVL129:
	movq	24(%rsp), %rcx	# %sfp, prephitmp_255
	movq	%rax, %r8	#, __new_finish
.L66:
# /usr/include/c++/7/bits/stl_algobase.h:369: 	  return __result + _Num;
	.loc 8 369 0
	movq	16(%rsp), %rbx	# %sfp, prephitmp_286
.LVL130:
	addq	%r8, %rbx	# __new_finish, prephitmp_286
.LVL131:
.LBE1280:
.LBE1281:
.LBE1282:
.LBE1283:
.LBE1284:
.LBE1285:
.LBE1286:
.LBE1287:
.LBE1288:
.LBE1289:
.LBE1290:
.LBB1291:
.LBB1292:
# /usr/include/c++/7/bits/stl_vector.h:179: 	if (__p)
	.loc 5 179 0
	testq	%rcx, %rcx	# prephitmp_255
	je	.L67	#,
.LVL132:
.LBB1293:
.LBB1294:
.LBB1295:
# /usr/include/c++/7/ext/new_allocator.h:125: 	::operator delete(__p);
	.loc 6 125 0
	movq	%rcx, %rdi	# prephitmp_255,
	call	_ZdlPv@PLT	#
.LVL133:
.L67:
.LBE1295:
.LBE1294:
.LBE1293:
.LBE1292:
.LBE1291:
# /usr/include/c++/7/bits/vector.tcc:451:       this->_M_impl._M_start = __new_start;
	.loc 7 451 0
	movq	%r13, 16(%rsp)	# _228, %sfp
.LBE1238:
.LBE1237:
.LBE1310:
.LBE1318:
.LBE1332:
# main.cpp:35:     for (int joana1 = 0; joana1 < sizeTest; joana1++)
	.loc 2 35 0
	addl	$1, %ebp	#, joana1
.LVL134:
.LBB1333:
.LBB1319:
.LBB1311:
.LBB1303:
.LBB1299:
# /usr/include/c++/7/bits/vector.tcc:453:       this->_M_impl._M_end_of_storage = __new_start + __len;
	.loc 7 453 0
	movq	%r15, 112(%rsp)	# _259, MEM[(struct vector *)&input + 48B].D.41411._M_impl._M_end_of_storage
.LVL135:
# /usr/include/c++/7/bits/vector.tcc:451:       this->_M_impl._M_start = __new_start;
	.loc 7 451 0
	movq	16(%rsp), %xmm0	# %sfp, tmp225
	movq	%rbx, 16(%rsp)	# _208, %sfp
	movhps	16(%rsp), %xmm0	# %sfp, tmp225
.LBE1299:
.LBE1303:
.LBE1311:
.LBE1319:
.LBE1333:
# main.cpp:35:     for (int joana1 = 0; joana1 < sizeTest; joana1++)
	.loc 2 35 0
	cmpl	$90, %ebp	#, joana1
.LBB1334:
.LBB1320:
.LBB1312:
.LBB1304:
.LBB1300:
# /usr/include/c++/7/bits/vector.tcc:451:       this->_M_impl._M_start = __new_start;
	.loc 7 451 0
	movaps	%xmm0, 96(%rsp)	# tmp225, MEM[(short int * *)&input + 48B]
.LBE1300:
.LBE1304:
.LBE1312:
.LBE1320:
.LBE1334:
# main.cpp:35:     for (int joana1 = 0; joana1 < sizeTest; joana1++)
	.loc 2 35 0
	jne	.L114	#,
.LVL136:
	.p2align 4,,10
	.p2align 3
.L68:
.LBE1369:
.LBB1370:
.LBB1371:
# /usr/include/c++/7/ostream:561: 	__ostream_insert(__out, __s,
	.loc 3 561 0
	leaq	.LC1(%rip), %rsi	#,
	leaq	_ZSt4cout(%rip), %rdi	#,
	movl	$18, %edx	#,
	leaq	48(%rsp), %r13	#, tmp250
	call	_ZSt16__ostream_insertIcSt11char_traitsIcEERSt13basic_ostreamIT_T0_ES6_PKS3_l@PLT	#
.LVL137:
.LBE1371:
.LBE1370:
.LBB1372:
.LBB1373:
# /usr/include/c++/7/bits/stl_vector.h:671:       { return size_type(this->_M_impl._M_finish - this->_M_impl._M_start); }
	.loc 5 671 0
	movq	56(%rsp), %rsi	# MEM[(short int * *)&input + 8B], MEM[(short int * *)&input + 8B]
	subq	48(%rsp), %rsi	# MEM[(short int * *)&input], tmp226
.LBE1373:
.LBE1372:
.LBB1375:
.LBB1376:
# /usr/include/c++/7/ostream:171:       { return _M_insert(__n); }
	.loc 3 171 0
	leaq	_ZSt4cout(%rip), %rdi	#,
	leaq	48(%rsp), %r13	#, tmp250
.LBE1376:
.LBE1375:
.LBB1378:
.LBB1374:
# /usr/include/c++/7/bits/stl_vector.h:671:       { return size_type(this->_M_impl._M_finish - this->_M_impl._M_start); }
	.loc 5 671 0
	sarq	%rsi	# tmp229
.LBE1374:
.LBE1378:
.LBB1379:
.LBB1377:
# /usr/include/c++/7/ostream:171:       { return _M_insert(__n); }
	.loc 3 171 0
	call	_ZNSo9_M_insertImEERSoT_@PLT	#
.LVL138:
.LBE1377:
.LBE1379:
.LBB1380:
.LBB1381:
# /usr/include/c++/7/ostream:113: 	return __pf(*this);
	.loc 3 113 0
	movq	%rax, %rdi	# _20,
	leaq	48(%rsp), %r13	#, tmp250
	call	_ZSt4endlIcSt11char_traitsIcEERSt13basic_ostreamIT_T0_ES6_@PLT	#
.LVL139:
.LBE1381:
.LBE1380:
.LBB1382:
.LBB1383:
# /usr/include/c++/7/ostream:561: 	__ostream_insert(__out, __s,
	.loc 3 561 0
	leaq	.LC2(%rip), %rsi	#,
	leaq	_ZSt4cout(%rip), %rdi	#,
	movl	$18, %edx	#,
	leaq	48(%rsp), %r13	#, tmp250
	call	_ZSt16__ostream_insertIcSt11char_traitsIcEERSt13basic_ostreamIT_T0_ES6_PKS3_l@PLT	#
.LVL140:
.LBE1383:
.LBE1382:
.LBB1384:
.LBB1385:
# /usr/include/c++/7/bits/stl_vector.h:671:       { return size_type(this->_M_impl._M_finish - this->_M_impl._M_start); }
	.loc 5 671 0
	movq	80(%rsp), %rsi	# MEM[(short int * *)&input + 32B], MEM[(short int * *)&input + 32B]
	subq	72(%rsp), %rsi	# MEM[(short int * *)&input + 24B], tmp230
.LBE1385:
.LBE1384:
.LBB1387:
.LBB1388:
# /usr/include/c++/7/ostream:171:       { return _M_insert(__n); }
	.loc 3 171 0
	leaq	_ZSt4cout(%rip), %rdi	#,
	leaq	48(%rsp), %r13	#, tmp250
.LBE1388:
.LBE1387:
.LBB1390:
.LBB1386:
# /usr/include/c++/7/bits/stl_vector.h:671:       { return size_type(this->_M_impl._M_finish - this->_M_impl._M_start); }
	.loc 5 671 0
	sarq	%rsi	# tmp233
.LBE1386:
.LBE1390:
.LBB1391:
.LBB1389:
# /usr/include/c++/7/ostream:171:       { return _M_insert(__n); }
	.loc 3 171 0
	call	_ZNSo9_M_insertImEERSoT_@PLT	#
.LVL141:
.LBE1389:
.LBE1391:
.LBB1392:
.LBB1393:
# /usr/include/c++/7/ostream:113: 	return __pf(*this);
	.loc 3 113 0
	movq	%rax, %rdi	# _34,
	leaq	48(%rsp), %r13	#, tmp250
	call	_ZSt4endlIcSt11char_traitsIcEERSt13basic_ostreamIT_T0_ES6_@PLT	#
.LVL142:
.LBE1393:
.LBE1392:
.LBB1394:
.LBB1395:
# /usr/include/c++/7/ostream:561: 	__ostream_insert(__out, __s,
	.loc 3 561 0
	leaq	.LC3(%rip), %rsi	#,
	leaq	_ZSt4cout(%rip), %rdi	#,
	movl	$18, %edx	#,
	leaq	48(%rsp), %r13	#, tmp250
	call	_ZSt16__ostream_insertIcSt11char_traitsIcEERSt13basic_ostreamIT_T0_ES6_PKS3_l@PLT	#
.LVL143:
.LBE1395:
.LBE1394:
.LBB1396:
.LBB1397:
# /usr/include/c++/7/bits/stl_vector.h:671:       { return size_type(this->_M_impl._M_finish - this->_M_impl._M_start); }
	.loc 5 671 0
	movq	104(%rsp), %rsi	# MEM[(short int * *)&input + 56B], MEM[(short int * *)&input + 56B]
	subq	96(%rsp), %rsi	# MEM[(short int * *)&input + 48B], tmp234
.LBE1397:
.LBE1396:
.LBB1399:
.LBB1400:
# /usr/include/c++/7/ostream:171:       { return _M_insert(__n); }
	.loc 3 171 0
	leaq	_ZSt4cout(%rip), %rdi	#,
	leaq	48(%rsp), %r13	#, tmp250
.LBE1400:
.LBE1399:
.LBB1402:
.LBB1398:
# /usr/include/c++/7/bits/stl_vector.h:671:       { return size_type(this->_M_impl._M_finish - this->_M_impl._M_start); }
	.loc 5 671 0
	sarq	%rsi	# tmp237
.LBE1398:
.LBE1402:
.LBB1403:
.LBB1401:
# /usr/include/c++/7/ostream:171:       { return _M_insert(__n); }
	.loc 3 171 0
	call	_ZNSo9_M_insertImEERSoT_@PLT	#
.LVL144:
.LBE1401:
.LBE1403:
.LBB1404:
.LBB1405:
# /usr/include/c++/7/ostream:113: 	return __pf(*this);
	.loc 3 113 0
	movq	%rax, %rdi	# _40,
	leaq	48(%rsp), %r13	#, tmp250
	call	_ZSt4endlIcSt11char_traitsIcEERSt13basic_ostreamIT_T0_ES6_@PLT	#
.LVL145:
.LBE1405:
.LBE1404:
# main.cpp:45:     input.data1.resize(sizeTest);
	.loc 2 45 0
	leaq	48(%rsp), %r13	#, tmp250
	movl	$90, %esi	#,
	movq	%r13, %rdi	# tmp250,
	call	_ZNSt6vectorIsSaIsEE6resizeEm	#
.LVL146:
# main.cpp:46:     input.data2.resize(sizeTest);
	.loc 2 46 0
	leaq	24(%r13), %rdi	#, tmp240
	movl	$90, %esi	#,
	call	_ZNSt6vectorIsSaIsEE6resizeEm	#
.LVL147:
# main.cpp:47:     input.data3.resize(sizeTest);
	.loc 2 47 0
	leaq	48(%r13), %rdi	#, tmp242
	movl	$90, %esi	#,
	call	_ZNSt6vectorIsSaIsEE6resizeEm	#
.LVL148:
.LBB1406:
.LBB1407:
# /usr/include/c++/7/ostream:561: 	__ostream_insert(__out, __s,
	.loc 3 561 0
	leaq	.LC4(%rip), %rsi	#,
	leaq	_ZSt4cout(%rip), %rdi	#,
	movl	$15, %edx	#,
	call	_ZSt16__ostream_insertIcSt11char_traitsIcEERSt13basic_ostreamIT_T0_ES6_PKS3_l@PLT	#
.LVL149:
.LBE1407:
.LBE1406:
.LBB1408:
.LBB1409:
# /usr/include/c++/7/ostream:171:       { return _M_insert(__n); }
	.loc 3 171 0
	leaq	_ZSt4cout(%rip), %rdi	#,
	movl	$541, %esi	#,
	call	_ZNSo9_M_insertImEERSoT_@PLT	#
.LVL150:
.LBE1409:
.LBE1408:
.LBB1410:
.LBB1411:
# /usr/include/c++/7/ostream:113: 	return __pf(*this);
	.loc 3 113 0
	movq	%rax, %rdi	# _46,
	call	_ZSt4endlIcSt11char_traitsIcEERSt13basic_ostreamIT_T0_ES6_@PLT	#
.LVL151:
.LBE1411:
.LBE1410:
.LBB1412:
.LBB1413:
# /usr/include/c++/7/ostream:561: 	__ostream_insert(__out, __s,
	.loc 3 561 0
	leaq	.LC5(%rip), %rsi	#,
	leaq	_ZSt4cout(%rip), %rdi	#,
	movl	$24, %edx	#,
	call	_ZSt16__ostream_insertIcSt11char_traitsIcEERSt13basic_ostreamIT_T0_ES6_PKS3_l@PLT	#
.LVL152:
.LBE1413:
.LBE1412:
.LBB1414:
.LBB1415:
# /usr/include/c++/7/ostream:171:       { return _M_insert(__n); }
	.loc 3 171 0
	leaq	_ZSt4cout(%rip), %rdi	#,
	movl	$180, %esi	#,
	call	_ZNSo9_M_insertImEERSoT_@PLT	#
.LVL153:
.LBE1415:
.LBE1414:
.LBB1416:
.LBB1417:
# /usr/include/c++/7/ostream:113: 	return __pf(*this);
	.loc 3 113 0
	movq	%rax, %rdi	# _47,
	call	_ZSt4endlIcSt11char_traitsIcEERSt13basic_ostreamIT_T0_ES6_@PLT	#
.LVL154:
.LBE1417:
.LBE1416:
.LBB1418:
.LBB1419:
# /usr/include/c++/7/ostream:561: 	__ostream_insert(__out, __s,
	.loc 3 561 0
	leaq	.LC6(%rip), %rsi	#,
	leaq	_ZSt4cout(%rip), %rdi	#,
	movl	$24, %edx	#,
	call	_ZSt16__ostream_insertIcSt11char_traitsIcEERSt13basic_ostreamIT_T0_ES6_PKS3_l@PLT	#
.LVL155:
.LBE1419:
.LBE1418:
.LBB1420:
.LBB1421:
# /usr/include/c++/7/ostream:171:       { return _M_insert(__n); }
	.loc 3 171 0
	leaq	_ZSt4cout(%rip), %rdi	#,
	movl	$180, %esi	#,
	call	_ZNSo9_M_insertImEERSoT_@PLT	#
.LVL156:
.LBE1421:
.LBE1420:
.LBB1422:
.LBB1423:
# /usr/include/c++/7/ostream:113: 	return __pf(*this);
	.loc 3 113 0
	movq	%rax, %rdi	# _48,
	call	_ZSt4endlIcSt11char_traitsIcEERSt13basic_ostreamIT_T0_ES6_@PLT	#
.LVL157:
.LBE1423:
.LBE1422:
.LBB1424:
.LBB1425:
# /usr/include/c++/7/ostream:561: 	__ostream_insert(__out, __s,
	.loc 3 561 0
	leaq	.LC7(%rip), %rsi	#,
	leaq	_ZSt4cout(%rip), %rdi	#,
	movl	$24, %edx	#,
	call	_ZSt16__ostream_insertIcSt11char_traitsIcEERSt13basic_ostreamIT_T0_ES6_PKS3_l@PLT	#
.LVL158:
.LBE1425:
.LBE1424:
.LBB1426:
.LBB1427:
# /usr/include/c++/7/ostream:171:       { return _M_insert(__n); }
	.loc 3 171 0
	leaq	_ZSt4cout(%rip), %rdi	#,
	movl	$180, %esi	#,
	call	_ZNSo9_M_insertImEERSoT_@PLT	#
.LVL159:
.LBE1427:
.LBE1426:
.LBB1428:
.LBB1429:
# /usr/include/c++/7/ostream:113: 	return __pf(*this);
	.loc 3 113 0
	movq	%rax, %rdi	# _49,
	call	_ZSt4endlIcSt11char_traitsIcEERSt13basic_ostreamIT_T0_ES6_@PLT	#
.LVL160:
.LEHE0:
.LBE1429:
.LBE1428:
# main.cpp:34:     TestInput input;
	.loc 2 34 0
	movq	%r13, %rdi	# tmp250,
	call	_ZN9TestInputD1Ev	#
.LVL161:
# main.cpp:62: }
	.loc 2 62 0
	xorl	%eax, %eax	#
	movq	120(%rsp), %rdx	# D.48805, tmp280
	xorq	%fs:40, %rdx	#, tmp280
	jne	.L115	#,
	addq	$136, %rsp	#,
	.cfi_remember_state
	.cfi_def_cfa_offset 56
	popq	%rbx	#
	.cfi_def_cfa_offset 48
	popq	%rbp	#
	.cfi_def_cfa_offset 40
.LVL162:
	popq	%r12	#
	.cfi_def_cfa_offset 32
	popq	%r13	#
	.cfi_def_cfa_offset 24
	popq	%r14	#
	.cfi_def_cfa_offset 16
	popq	%r15	#
	.cfi_def_cfa_offset 8
	ret
.LVL163:
	.p2align 4,,10
	.p2align 3
.L83:
	.cfi_restore_state
.LBB1430:
.LBB1335:
.LBB1321:
.LBB1313:
.LBB1305:
.LBB1301:
.LBB1296:
.LBB1247:
.LBB1246:
.LBB1245:
# /usr/include/c++/7/bits/stl_algobase.h:224:       if (__a < __b)
	.loc 8 224 0
	movl	$2, %r15d	#, prephitmp_141
	jmp	.L63	#
.LVL164:
	.p2align 4,,10
	.p2align 3
.L79:
.LBE1245:
.LBE1246:
.LBE1247:
.LBE1296:
.LBE1301:
.LBE1305:
.LBE1313:
.LBE1321:
.LBE1335:
.LBB1336:
.LBB1229:
.LBB1224:
.LBB1219:
.LBB1216:
.LBB1212:
.LBB1163:
.LBB1162:
.LBB1161:
	movl	$2, %r15d	#, prephitmp_297
	jmp	.L55	#
.LVL165:
	.p2align 4,,10
	.p2align 3
.L75:
.LBE1161:
.LBE1162:
.LBE1163:
.LBE1212:
.LBE1216:
.LBE1219:
.LBE1224:
.LBE1229:
.LBE1336:
.LBB1337:
.LBB1143:
.LBB1138:
.LBB1133:
.LBB1130:
.LBB1126:
.LBB1077:
.LBB1076:
.LBB1075:
	movl	$2, %r15d	#, prephitmp_310
	jmp	.L47	#
.LVL166:
	.p2align 4,,10
	.p2align 3
.L111:
.LBE1075:
.LBE1076:
.LBE1077:
.LBE1126:
.LBE1130:
.LBE1133:
.LBE1138:
.LBE1143:
.LBE1337:
.LBB1338:
.LBB1230:
.LBB1225:
.LBB1220:
.LBB1217:
.LBB1213:
.LBB1164:
# /usr/include/c++/7/bits/stl_vector.h:1508: 	return (__len < size() || __len > max_size()) ? max_size() : __len;
	.loc 5 1508 0
	testq	%r14, %r14	# _168
	js	.L55	#,
.LVL167:
.LBE1164:
.LBE1213:
.LBB1214:
.LBB1170:
# /usr/include/c++/7/bits/stl_vector.h:172: 	return __n != 0 ? _Tr::allocate(_M_impl, __n) : pointer();
	.loc 5 172 0
	jne	.L116	#,
	xorl	%r13d, %r13d	# prephitmp_273
	movq	%rbx, %r10	# _134, _136
	xorl	%r15d, %r15d	# prephitmp_289
	xorl	%r8d, %r8d	# _180
	jmp	.L56	#
.LVL168:
	.p2align 4,,10
	.p2align 3
.L113:
.LBE1170:
.LBE1214:
.LBE1217:
.LBE1220:
.LBE1225:
.LBE1230:
.LBE1338:
.LBB1339:
.LBB1322:
.LBB1314:
.LBB1306:
.LBB1302:
.LBB1297:
.LBB1248:
# /usr/include/c++/7/bits/stl_vector.h:1508: 	return (__len < size() || __len > max_size()) ? max_size() : __len;
	.loc 5 1508 0
	testq	%r14, %r14	# _216
	js	.L63	#,
.LVL169:
.LBE1248:
.LBE1297:
.LBB1298:
.LBB1254:
# /usr/include/c++/7/bits/stl_vector.h:172: 	return __n != 0 ? _Tr::allocate(_M_impl, __n) : pointer();
	.loc 5 172 0
	jne	.L117	#,
	movq	$0, 16(%rsp)	#, %sfp
	movq	%rbx, %r9	# _182, _184
	xorl	%r13d, %r13d	# _228
	xorl	%r15d, %r15d	# _259
	jmp	.L64	#
.LVL170:
	.p2align 4,,10
	.p2align 3
.L109:
.LBE1254:
.LBE1298:
.LBE1302:
.LBE1306:
.LBE1314:
.LBE1322:
.LBE1339:
.LBB1340:
.LBB1144:
.LBB1139:
.LBB1134:
.LBB1131:
.LBB1127:
.LBB1078:
# /usr/include/c++/7/bits/stl_vector.h:1508: 	return (__len < size() || __len > max_size()) ? max_size() : __len;
	.loc 5 1508 0
	testq	%r14, %r14	# _120
	js	.L47	#,
.LVL171:
.LBE1078:
.LBE1127:
.LBB1128:
.LBB1084:
# /usr/include/c++/7/bits/stl_vector.h:172: 	return __n != 0 ? _Tr::allocate(_M_impl, __n) : pointer();
	.loc 5 172 0
	jne	.L118	#,
	movq	$0, 16(%rsp)	#, %sfp
	movq	%rbx, %r9	# pretmp_123, prephitmp_253
	xorl	%r15d, %r15d	# prephitmp_226
	xorl	%r13d, %r13d	# _132
	jmp	.L48	#
.LVL172:
.L87:
	movq	%rax, %rbx	#, tmp246
.LBE1084:
.LBE1128:
.LBE1131:
.LBE1134:
.LBE1139:
.LBE1144:
.LBE1340:
.LBE1430:
# main.cpp:34:     TestInput input;
	.loc 2 34 0
	movq	%r13, %rdi	# tmp250,
	call	_ZN9TestInputD1Ev	#
.LVL173:
	movq	%rbx, %rdi	# tmp246,
.LEHB1:
	call	_Unwind_Resume@PLT	#
.LVL174:
.LEHE1:
.L115:
# main.cpp:62: }
	.loc 2 62 0
	call	__stack_chk_fail@PLT	#
.LVL175:
.L118:
	leaq	(%r14,%r14), %r15	#, prephitmp_310
	jmp	.L47	#
.LVL176:
.L117:
	leaq	(%r14,%r14), %r15	#, prephitmp_141
	jmp	.L63	#
.LVL177:
.L116:
	leaq	(%r14,%r14), %r15	#, prephitmp_297
	jmp	.L55	#
	.cfi_endproc
.LFE1910:
	.globl	__gxx_personality_v0
	.section	.gcc_except_table,"a",@progbits
.LLSDA1910:
	.byte	0xff
	.byte	0xff
	.byte	0x1
	.uleb128 .LLSDACSE1910-.LLSDACSB1910
.LLSDACSB1910:
	.uleb128 .LEHB0-.LFB1910
	.uleb128 .LEHE0-.LEHB0
	.uleb128 .L87-.LFB1910
	.uleb128 0
	.uleb128 .LEHB1-.LFB1910
	.uleb128 .LEHE1-.LEHB1
	.uleb128 0
	.uleb128 0
.LLSDACSE1910:
	.section	.text.startup
	.size	main, .-main
	.p2align 4,,15
	.type	_GLOBAL__sub_I__Z5printi, @function
_GLOBAL__sub_I__Z5printi:
.LFB2497:
	.loc 2 62 0
	.cfi_startproc
.LVL178:
.LBB1431:
.LBB1432:
# /usr/include/c++/7/iostream:74:   static ios_base::Init __ioinit;
	.file 9 "/usr/include/c++/7/iostream"
	.loc 9 74 0
	leaq	_ZStL8__ioinit(%rip), %rdi	#,
.LBE1432:
.LBE1431:
# main.cpp:62: }
	.loc 2 62 0
	subq	$8, %rsp	#,
	.cfi_def_cfa_offset 16
.LBB1435:
.LBB1433:
# /usr/include/c++/7/iostream:74:   static ios_base::Init __ioinit;
	.loc 9 74 0
	call	_ZNSt8ios_base4InitC1Ev@PLT	#
.LVL179:
	movq	_ZNSt8ios_base4InitD1Ev@GOTPCREL(%rip), %rdi	#,
	leaq	__dso_handle(%rip), %rdx	#,
	leaq	_ZStL8__ioinit(%rip), %rsi	#,
.LBE1433:
.LBE1435:
# main.cpp:62: }
	.loc 2 62 0
	addq	$8, %rsp	#,
	.cfi_def_cfa_offset 8
.LBB1436:
.LBB1434:
# /usr/include/c++/7/iostream:74:   static ios_base::Init __ioinit;
	.loc 9 74 0
	jmp	__cxa_atexit@PLT	#
.LVL180:
.LBE1434:
.LBE1436:
	.cfi_endproc
.LFE2497:
	.size	_GLOBAL__sub_I__Z5printi, .-_GLOBAL__sub_I__Z5printi
	.section	.init_array,"aw"
	.align 8
	.quad	_GLOBAL__sub_I__Z5printi
	.local	_ZStL8__ioinit
	.comm	_ZStL8__ioinit,1,1
	.text
.Letext0:
	.file 10 "/usr/include/c++/7/cwchar"
	.file 11 "/usr/include/c++/7/new"
	.file 12 "/usr/include/c++/7/bits/exception_ptr.h"
	.file 13 "/usr/include/c++/7/type_traits"
	.file 14 "/usr/include/x86_64-linux-gnu/c++/7/bits/c++config.h"
	.file 15 "/usr/include/c++/7/bits/stl_pair.h"
	.file 16 "/usr/include/c++/7/debug/debug.h"
	.file 17 "/usr/include/c++/7/bits/char_traits.h"
	.file 18 "/usr/include/c++/7/cstdint"
	.file 19 "/usr/include/c++/7/clocale"
	.file 20 "/usr/include/c++/7/cstdlib"
	.file 21 "/usr/include/c++/7/cstdio"
	.file 22 "/usr/include/c++/7/bits/basic_string.h"
	.file 23 "/usr/include/c++/7/system_error"
	.file 24 "/usr/include/c++/7/bits/ios_base.h"
	.file 25 "/usr/include/c++/7/cwctype"
	.file 26 "/usr/include/c++/7/bits/ostream.tcc"
	.file 27 "/usr/include/c++/7/iosfwd"
	.file 28 "/usr/include/c++/7/bits/stl_construct.h"
	.file 29 "/usr/include/c++/7/bits/stl_uninitialized.h"
	.file 30 "/usr/include/c++/7/bits/alloc_traits.h"
	.file 31 "/usr/include/c++/7/bits/allocator.h"
	.file 32 "/usr/include/c++/7/bits/stl_iterator_base_types.h"
	.file 33 "/usr/include/c++/7/bits/stl_iterator.h"
	.file 34 "/usr/include/c++/7/bits/cpp_type_traits.h"
	.file 35 "/usr/include/c++/7/bits/move.h"
	.file 36 "/usr/include/c++/7/bits/functexcept.h"
	.file 37 "/usr/include/c++/7/bits/ostream_insert.h"
	.file 38 "/usr/include/c++/7/bits/predefined_ops.h"
	.file 39 "/usr/include/c++/7/ext/numeric_traits.h"
	.file 40 "/usr/include/c++/7/ext/alloc_traits.h"
	.file 41 "/usr/include/c++/7/ext/type_traits.h"
	.file 42 "/usr/lib/gcc/x86_64-linux-gnu/7/include/stddef.h"
	.file 43 "<built-in>"
	.file 44 "/usr/include/x86_64-linux-gnu/bits/types/wint_t.h"
	.file 45 "/usr/include/x86_64-linux-gnu/bits/types/__mbstate_t.h"
	.file 46 "/usr/include/x86_64-linux-gnu/bits/types/mbstate_t.h"
	.file 47 "/usr/include/x86_64-linux-gnu/bits/types/__FILE.h"
	.file 48 "/usr/include/x86_64-linux-gnu/bits/libio.h"
	.file 49 "/usr/include/x86_64-linux-gnu/bits/types/FILE.h"
	.file 50 "/usr/include/wchar.h"
	.file 51 "/usr/include/x86_64-linux-gnu/bits/wchar2.h"
	.file 52 "/usr/include/x86_64-linux-gnu/bits/types/struct_tm.h"
	.file 53 "/usr/include/x86_64-linux-gnu/bits/types.h"
	.file 54 "/usr/include/x86_64-linux-gnu/bits/stdint-intn.h"
	.file 55 "/usr/include/x86_64-linux-gnu/bits/stdint-uintn.h"
	.file 56 "/usr/include/stdint.h"
	.file 57 "/usr/include/locale.h"
	.file 58 "/usr/include/time.h"
	.file 59 "/usr/include/x86_64-linux-gnu/c++/7/bits/atomic_word.h"
	.file 60 "/usr/include/stdlib.h"
	.file 61 "/usr/include/x86_64-linux-gnu/bits/stdlib-float.h"
	.file 62 "/usr/include/x86_64-linux-gnu/bits/stdlib-bsearch.h"
	.file 63 "/usr/include/x86_64-linux-gnu/bits/stdlib.h"
	.file 64 "/usr/include/x86_64-linux-gnu/bits/_G_config.h"
	.file 65 "/usr/include/stdio.h"
	.file 66 "/usr/include/x86_64-linux-gnu/bits/sys_errlist.h"
	.file 67 "/usr/include/x86_64-linux-gnu/bits/stdio2.h"
	.file 68 "/usr/include/x86_64-linux-gnu/bits/stdio.h"
	.file 69 "/usr/include/errno.h"
	.file 70 "/usr/include/x86_64-linux-gnu/bits/wctype-wchar.h"
	.file 71 "/usr/include/wctype.h"
	.section	.debug_info,"",@progbits
.Ldebug_info0:
	.long	0x7fc3
	.value	0x4
	.long	.Ldebug_abbrev0
	.byte	0x8
	.uleb128 0x77
	.long	.LASF904
	.byte	0x4
	.long	.LASF905
	.long	.LASF906
	.long	.Ldebug_ranges0+0x9a0
	.quad	0
	.long	.Ldebug_line0
	.uleb128 0x78
	.string	"std"
	.byte	0x2b
	.byte	0
	.long	0x2736
	.uleb128 0x55
	.long	.LASF39
	.byte	0xe
	.byte	0xfd
	.uleb128 0x56
	.byte	0xe
	.byte	0xfd
	.long	0x34
	.uleb128 0x4
	.byte	0xa
	.byte	0x40
	.long	0x301d
	.uleb128 0x4
	.byte	0xa
	.byte	0x8b
	.long	0x2f99
	.uleb128 0x4
	.byte	0xa
	.byte	0x8d
	.long	0x31d5
	.uleb128 0x4
	.byte	0xa
	.byte	0x8e
	.long	0x31eb
	.uleb128 0x4
	.byte	0xa
	.byte	0x8f
	.long	0x3207
	.uleb128 0x4
	.byte	0xa
	.byte	0x90
	.long	0x3239
	.uleb128 0x4
	.byte	0xa
	.byte	0x91
	.long	0x3254
	.uleb128 0x4
	.byte	0xa
	.byte	0x92
	.long	0x3275
	.uleb128 0x4
	.byte	0xa
	.byte	0x93
	.long	0x3290
	.uleb128 0x4
	.byte	0xa
	.byte	0x94
	.long	0x32ac
	.uleb128 0x4
	.byte	0xa
	.byte	0x95
	.long	0x32c8
	.uleb128 0x4
	.byte	0xa
	.byte	0x96
	.long	0x32de
	.uleb128 0x4
	.byte	0xa
	.byte	0x97
	.long	0x32ea
	.uleb128 0x4
	.byte	0xa
	.byte	0x98
	.long	0x3310
	.uleb128 0x4
	.byte	0xa
	.byte	0x99
	.long	0x3335
	.uleb128 0x4
	.byte	0xa
	.byte	0x9a
	.long	0x3351
	.uleb128 0x4
	.byte	0xa
	.byte	0x9b
	.long	0x337c
	.uleb128 0x4
	.byte	0xa
	.byte	0x9c
	.long	0x3397
	.uleb128 0x4
	.byte	0xa
	.byte	0x9e
	.long	0x33ad
	.uleb128 0x4
	.byte	0xa
	.byte	0xa0
	.long	0x33ce
	.uleb128 0x4
	.byte	0xa
	.byte	0xa1
	.long	0x33ea
	.uleb128 0x4
	.byte	0xa
	.byte	0xa2
	.long	0x3405
	.uleb128 0x4
	.byte	0xa
	.byte	0xa4
	.long	0x342b
	.uleb128 0x4
	.byte	0xa
	.byte	0xa7
	.long	0x344b
	.uleb128 0x4
	.byte	0xa
	.byte	0xaa
	.long	0x3470
	.uleb128 0x4
	.byte	0xa
	.byte	0xac
	.long	0x3490
	.uleb128 0x4
	.byte	0xa
	.byte	0xae
	.long	0x34ab
	.uleb128 0x4
	.byte	0xa
	.byte	0xb0
	.long	0x34c6
	.uleb128 0x4
	.byte	0xa
	.byte	0xb1
	.long	0x34ec
	.uleb128 0x4
	.byte	0xa
	.byte	0xb2
	.long	0x3506
	.uleb128 0x4
	.byte	0xa
	.byte	0xb3
	.long	0x3520
	.uleb128 0x4
	.byte	0xa
	.byte	0xb4
	.long	0x353a
	.uleb128 0x4
	.byte	0xa
	.byte	0xb5
	.long	0x3554
	.uleb128 0x4
	.byte	0xa
	.byte	0xb6
	.long	0x356e
	.uleb128 0x4
	.byte	0xa
	.byte	0xb7
	.long	0x362f
	.uleb128 0x4
	.byte	0xa
	.byte	0xb8
	.long	0x3644
	.uleb128 0x4
	.byte	0xa
	.byte	0xb9
	.long	0x3664
	.uleb128 0x4
	.byte	0xa
	.byte	0xba
	.long	0x3683
	.uleb128 0x4
	.byte	0xa
	.byte	0xbb
	.long	0x36a2
	.uleb128 0x4
	.byte	0xa
	.byte	0xbc
	.long	0x36cd
	.uleb128 0x4
	.byte	0xa
	.byte	0xbd
	.long	0x36e7
	.uleb128 0x4
	.byte	0xa
	.byte	0xbf
	.long	0x3708
	.uleb128 0x4
	.byte	0xa
	.byte	0xc1
	.long	0x3723
	.uleb128 0x4
	.byte	0xa
	.byte	0xc2
	.long	0x3742
	.uleb128 0x4
	.byte	0xa
	.byte	0xc3
	.long	0x376e
	.uleb128 0x4
	.byte	0xa
	.byte	0xc4
	.long	0x378e
	.uleb128 0x4
	.byte	0xa
	.byte	0xc5
	.long	0x37ad
	.uleb128 0x4
	.byte	0xa
	.byte	0xc6
	.long	0x37c3
	.uleb128 0x4
	.byte	0xa
	.byte	0xc7
	.long	0x37e3
	.uleb128 0x4
	.byte	0xa
	.byte	0xc8
	.long	0x3802
	.uleb128 0x4
	.byte	0xa
	.byte	0xc9
	.long	0x3821
	.uleb128 0x4
	.byte	0xa
	.byte	0xca
	.long	0x3840
	.uleb128 0x4
	.byte	0xa
	.byte	0xcb
	.long	0x3857
	.uleb128 0x4
	.byte	0xa
	.byte	0xcc
	.long	0x386e
	.uleb128 0x4
	.byte	0xa
	.byte	0xcd
	.long	0x388c
	.uleb128 0x4
	.byte	0xa
	.byte	0xce
	.long	0x38aa
	.uleb128 0x4
	.byte	0xa
	.byte	0xcf
	.long	0x38c8
	.uleb128 0x4
	.byte	0xa
	.byte	0xd0
	.long	0x38e6
	.uleb128 0x32
	.byte	0xa
	.value	0x108
	.long	0x3909
	.uleb128 0x32
	.byte	0xa
	.value	0x109
	.long	0x3924
	.uleb128 0x32
	.byte	0xa
	.value	0x10a
	.long	0x394b
	.uleb128 0x32
	.byte	0xa
	.value	0x118
	.long	0x3708
	.uleb128 0x32
	.byte	0xa
	.value	0x11b
	.long	0x342b
	.uleb128 0x32
	.byte	0xa
	.value	0x11e
	.long	0x3470
	.uleb128 0x32
	.byte	0xa
	.value	0x121
	.long	0x34ab
	.uleb128 0x32
	.byte	0xa
	.value	0x125
	.long	0x3909
	.uleb128 0x32
	.byte	0xa
	.value	0x126
	.long	0x3924
	.uleb128 0x32
	.byte	0xa
	.value	0x127
	.long	0x394b
	.uleb128 0x1d
	.long	.LASF1
	.byte	0x1
	.byte	0xb
	.byte	0x56
	.long	0x24b
	.uleb128 0x62
	.long	.LASF1
	.byte	0xb
	.byte	0x59
	.long	.LASF3
	.byte	0x1
	.long	0x244
	.uleb128 0x5
	.long	0x3978
	.byte	0
	.byte	0
	.uleb128 0xc
	.long	0x228
	.uleb128 0x39
	.long	.LASF44
	.byte	0xb
	.byte	0x5d
	.long	.LASF131
	.long	0x24b
	.uleb128 0x57
	.long	.LASF0
	.byte	0xc
	.byte	0x34
	.long	0x430
	.uleb128 0x4c
	.long	.LASF2
	.byte	0x8
	.byte	0xc
	.byte	0x4f
	.long	0x423
	.uleb128 0x8
	.long	.LASF184
	.byte	0xc
	.byte	0x51
	.long	0x2f96
	.byte	0
	.uleb128 0x79
	.long	.LASF2
	.byte	0xc
	.byte	0x53
	.long	.LASF4
	.long	0x295
	.long	0x2a0
	.uleb128 0x5
	.long	0x397e
	.uleb128 0x1
	.long	0x2f96
	.byte	0
	.uleb128 0x2a
	.long	.LASF5
	.byte	0xc
	.byte	0x55
	.long	.LASF7
	.long	0x2b3
	.long	0x2b9
	.uleb128 0x5
	.long	0x397e
	.byte	0
	.uleb128 0x2a
	.long	.LASF6
	.byte	0xc
	.byte	0x56
	.long	.LASF8
	.long	0x2cc
	.long	0x2d2
	.uleb128 0x5
	.long	0x397e
	.byte	0
	.uleb128 0x37
	.long	.LASF9
	.byte	0xc
	.byte	0x58
	.long	.LASF10
	.long	0x2f96
	.long	0x2e9
	.long	0x2ef
	.uleb128 0x5
	.long	0x3984
	.byte	0
	.uleb128 0x24
	.long	.LASF2
	.byte	0xc
	.byte	0x60
	.long	.LASF11
	.byte	0x1
	.long	0x303
	.long	0x309
	.uleb128 0x5
	.long	0x397e
	.byte	0
	.uleb128 0x24
	.long	.LASF2
	.byte	0xc
	.byte	0x62
	.long	.LASF12
	.byte	0x1
	.long	0x31d
	.long	0x328
	.uleb128 0x5
	.long	0x397e
	.uleb128 0x1
	.long	0x398a
	.byte	0
	.uleb128 0x24
	.long	.LASF2
	.byte	0xc
	.byte	0x65
	.long	.LASF13
	.byte	0x1
	.long	0x33c
	.long	0x347
	.uleb128 0x5
	.long	0x397e
	.uleb128 0x1
	.long	0x44c
	.byte	0
	.uleb128 0x24
	.long	.LASF2
	.byte	0xc
	.byte	0x69
	.long	.LASF14
	.byte	0x1
	.long	0x35b
	.long	0x366
	.uleb128 0x5
	.long	0x397e
	.uleb128 0x1
	.long	0x3990
	.byte	0
	.uleb128 0x30
	.long	.LASF15
	.byte	0xc
	.byte	0x76
	.long	.LASF16
	.long	0x3996
	.byte	0x1
	.long	0x37e
	.long	0x389
	.uleb128 0x5
	.long	0x397e
	.uleb128 0x1
	.long	0x398a
	.byte	0
	.uleb128 0x30
	.long	.LASF15
	.byte	0xc
	.byte	0x7a
	.long	.LASF17
	.long	0x3996
	.byte	0x1
	.long	0x3a1
	.long	0x3ac
	.uleb128 0x5
	.long	0x397e
	.uleb128 0x1
	.long	0x3990
	.byte	0
	.uleb128 0x24
	.long	.LASF18
	.byte	0xc
	.byte	0x81
	.long	.LASF19
	.byte	0x1
	.long	0x3c0
	.long	0x3cb
	.uleb128 0x5
	.long	0x397e
	.uleb128 0x5
	.long	0x3005
	.byte	0
	.uleb128 0x24
	.long	.LASF20
	.byte	0xc
	.byte	0x84
	.long	.LASF21
	.byte	0x1
	.long	0x3df
	.long	0x3ea
	.uleb128 0x5
	.long	0x397e
	.uleb128 0x1
	.long	0x3996
	.byte	0
	.uleb128 0x7a
	.long	.LASF907
	.byte	0xc
	.byte	0x90
	.long	.LASF908
	.long	0x399c
	.byte	0x1
	.long	0x402
	.long	0x408
	.uleb128 0x5
	.long	0x3984
	.byte	0
	.uleb128 0x7b
	.long	.LASF22
	.byte	0xc
	.byte	0x99
	.long	.LASF23
	.long	0x39a8
	.byte	0x1
	.long	0x41c
	.uleb128 0x5
	.long	0x3984
	.byte	0
	.byte	0
	.uleb128 0xc
	.long	0x26a
	.uleb128 0x4
	.byte	0xc
	.byte	0x49
	.long	0x437
	.byte	0
	.uleb128 0x4
	.byte	0xc
	.byte	0x39
	.long	0x26a
	.uleb128 0x7c
	.long	.LASF24
	.byte	0xc
	.byte	0x45
	.long	.LASF25
	.long	0x44c
	.uleb128 0x1
	.long	0x26a
	.byte	0
	.uleb128 0x7
	.long	.LASF27
	.byte	0xe
	.byte	0xeb
	.long	0x3972
	.uleb128 0x45
	.long	.LASF340
	.uleb128 0xc
	.long	0x457
	.uleb128 0x1d
	.long	.LASF26
	.byte	0x1
	.byte	0xd
	.byte	0x45
	.long	0x4d2
	.uleb128 0x63
	.long	.LASF34
	.byte	0xd
	.byte	0x47
	.long	0x39a3
	.uleb128 0x7
	.long	.LASF28
	.byte	0xd
	.byte	0x48
	.long	0x399c
	.uleb128 0x37
	.long	.LASF29
	.byte	0xd
	.byte	0x4a
	.long	.LASF30
	.long	0x478
	.long	0x49a
	.long	0x4a0
	.uleb128 0x5
	.long	0x39ae
	.byte	0
	.uleb128 0x37
	.long	.LASF31
	.byte	0xd
	.byte	0x4f
	.long	.LASF32
	.long	0x478
	.long	0x4b7
	.long	0x4bd
	.uleb128 0x5
	.long	0x39ae
	.byte	0
	.uleb128 0x10
	.string	"_Tp"
	.long	0x399c
	.uleb128 0x64
	.string	"__v"
	.long	0x399c
	.byte	0x1
	.byte	0
	.byte	0
	.uleb128 0xc
	.long	0x461
	.uleb128 0x1d
	.long	.LASF33
	.byte	0x1
	.byte	0xd
	.byte	0x45
	.long	0x548
	.uleb128 0x63
	.long	.LASF34
	.byte	0xd
	.byte	0x47
	.long	0x39a3
	.uleb128 0x7
	.long	.LASF28
	.byte	0xd
	.byte	0x48
	.long	0x399c
	.uleb128 0x37
	.long	.LASF35
	.byte	0xd
	.byte	0x4a
	.long	.LASF36
	.long	0x4ee
	.long	0x510
	.long	0x516
	.uleb128 0x5
	.long	0x39b4
	.byte	0
	.uleb128 0x37
	.long	.LASF31
	.byte	0xd
	.byte	0x4f
	.long	.LASF37
	.long	0x4ee
	.long	0x52d
	.long	0x533
	.uleb128 0x5
	.long	0x39b4
	.byte	0
	.uleb128 0x10
	.string	"_Tp"
	.long	0x399c
	.uleb128 0x64
	.string	"__v"
	.long	0x399c
	.byte	0x1
	.byte	0x1
	.byte	0
	.uleb128 0xc
	.long	0x4d7
	.uleb128 0x7
	.long	.LASF38
	.byte	0xd
	.byte	0x5a
	.long	0x461
	.uleb128 0x4d
	.long	.LASF40
	.byte	0xd
	.value	0xa20
	.uleb128 0x4d
	.long	.LASF41
	.byte	0xd
	.value	0xa6e
	.uleb128 0x1d
	.long	.LASF42
	.byte	0x1
	.byte	0xf
	.byte	0x4c
	.long	0x58b
	.uleb128 0x62
	.long	.LASF42
	.byte	0xf
	.byte	0x4c
	.long	.LASF43
	.byte	0x1
	.long	0x584
	.uleb128 0x5
	.long	0x39e2
	.byte	0
	.byte	0
	.uleb128 0xc
	.long	0x568
	.uleb128 0x7d
	.long	.LASF45
	.byte	0xf
	.byte	0x4f
	.long	0x58b
	.byte	0x1
	.byte	0
	.uleb128 0x55
	.long	.LASF46
	.byte	0x10
	.byte	0x32
	.uleb128 0x3a
	.long	.LASF47
	.byte	0x1
	.byte	0x11
	.value	0x113
	.long	0x772
	.uleb128 0x2d
	.long	.LASF48
	.byte	0x11
	.value	0x115
	.long	0x2ff9
	.uleb128 0xc
	.long	0x5b1
	.uleb128 0x2d
	.long	.LASF49
	.byte	0x11
	.value	0x116
	.long	0x3005
	.uleb128 0xc
	.long	0x5c2
	.uleb128 0x46
	.long	.LASF62
	.byte	0x11
	.value	0x11c
	.long	.LASF71
	.long	0x5ee
	.uleb128 0x1
	.long	0x3a01
	.uleb128 0x1
	.long	0x3a07
	.byte	0
	.uleb128 0x4e
	.string	"eq"
	.byte	0x11
	.value	0x120
	.long	.LASF50
	.long	0x399c
	.long	0x60c
	.uleb128 0x1
	.long	0x3a07
	.uleb128 0x1
	.long	0x3a07
	.byte	0
	.uleb128 0x4e
	.string	"lt"
	.byte	0x11
	.value	0x124
	.long	.LASF51
	.long	0x399c
	.long	0x62a
	.uleb128 0x1
	.long	0x3a07
	.uleb128 0x1
	.long	0x3a07
	.byte	0
	.uleb128 0x11
	.long	.LASF52
	.byte	0x11
	.value	0x12c
	.long	.LASF54
	.long	0x3005
	.long	0x64e
	.uleb128 0x1
	.long	0x3a0d
	.uleb128 0x1
	.long	0x3a0d
	.uleb128 0x1
	.long	0x772
	.byte	0
	.uleb128 0x11
	.long	.LASF53
	.byte	0x11
	.value	0x13a
	.long	.LASF55
	.long	0x772
	.long	0x668
	.uleb128 0x1
	.long	0x3a0d
	.byte	0
	.uleb128 0x11
	.long	.LASF56
	.byte	0x11
	.value	0x144
	.long	.LASF57
	.long	0x3a0d
	.long	0x68c
	.uleb128 0x1
	.long	0x3a0d
	.uleb128 0x1
	.long	0x772
	.uleb128 0x1
	.long	0x3a07
	.byte	0
	.uleb128 0x11
	.long	.LASF58
	.byte	0x11
	.value	0x152
	.long	.LASF59
	.long	0x3a13
	.long	0x6b0
	.uleb128 0x1
	.long	0x3a13
	.uleb128 0x1
	.long	0x3a0d
	.uleb128 0x1
	.long	0x772
	.byte	0
	.uleb128 0x11
	.long	.LASF60
	.byte	0x11
	.value	0x15a
	.long	.LASF61
	.long	0x3a13
	.long	0x6d4
	.uleb128 0x1
	.long	0x3a13
	.uleb128 0x1
	.long	0x3a0d
	.uleb128 0x1
	.long	0x772
	.byte	0
	.uleb128 0x11
	.long	.LASF62
	.byte	0x11
	.value	0x162
	.long	.LASF63
	.long	0x3a13
	.long	0x6f8
	.uleb128 0x1
	.long	0x3a13
	.uleb128 0x1
	.long	0x772
	.uleb128 0x1
	.long	0x5b1
	.byte	0
	.uleb128 0x11
	.long	.LASF64
	.byte	0x11
	.value	0x16a
	.long	.LASF65
	.long	0x5b1
	.long	0x712
	.uleb128 0x1
	.long	0x3a19
	.byte	0
	.uleb128 0x11
	.long	.LASF66
	.byte	0x11
	.value	0x170
	.long	.LASF67
	.long	0x5c2
	.long	0x72c
	.uleb128 0x1
	.long	0x3a07
	.byte	0
	.uleb128 0x11
	.long	.LASF68
	.byte	0x11
	.value	0x174
	.long	.LASF69
	.long	0x399c
	.long	0x74b
	.uleb128 0x1
	.long	0x3a19
	.uleb128 0x1
	.long	0x3a19
	.byte	0
	.uleb128 0x65
	.string	"eof"
	.byte	0x11
	.value	0x178
	.long	.LASF87
	.long	0x5c2
	.uleb128 0x47
	.long	.LASF70
	.byte	0x11
	.value	0x17c
	.long	.LASF72
	.long	0x5c2
	.uleb128 0x1
	.long	0x3a19
	.byte	0
	.byte	0
	.uleb128 0x7
	.long	.LASF73
	.byte	0xe
	.byte	0xe7
	.long	0x2f46
	.uleb128 0x3a
	.long	.LASF74
	.byte	0x1
	.byte	0x11
	.value	0x184
	.long	0x94b
	.uleb128 0x2d
	.long	.LASF48
	.byte	0x11
	.value	0x186
	.long	0x322d
	.uleb128 0xc
	.long	0x78a
	.uleb128 0x2d
	.long	.LASF49
	.byte	0x11
	.value	0x187
	.long	0x2f99
	.uleb128 0xc
	.long	0x79b
	.uleb128 0x46
	.long	.LASF62
	.byte	0x11
	.value	0x18d
	.long	.LASF75
	.long	0x7c7
	.uleb128 0x1
	.long	0x3a1f
	.uleb128 0x1
	.long	0x3a25
	.byte	0
	.uleb128 0x4e
	.string	"eq"
	.byte	0x11
	.value	0x191
	.long	.LASF76
	.long	0x399c
	.long	0x7e5
	.uleb128 0x1
	.long	0x3a25
	.uleb128 0x1
	.long	0x3a25
	.byte	0
	.uleb128 0x4e
	.string	"lt"
	.byte	0x11
	.value	0x195
	.long	.LASF77
	.long	0x399c
	.long	0x803
	.uleb128 0x1
	.long	0x3a25
	.uleb128 0x1
	.long	0x3a25
	.byte	0
	.uleb128 0x11
	.long	.LASF52
	.byte	0x11
	.value	0x199
	.long	.LASF78
	.long	0x3005
	.long	0x827
	.uleb128 0x1
	.long	0x3a2b
	.uleb128 0x1
	.long	0x3a2b
	.uleb128 0x1
	.long	0x772
	.byte	0
	.uleb128 0x11
	.long	.LASF53
	.byte	0x11
	.value	0x1a8
	.long	.LASF79
	.long	0x772
	.long	0x841
	.uleb128 0x1
	.long	0x3a2b
	.byte	0
	.uleb128 0x11
	.long	.LASF56
	.byte	0x11
	.value	0x1b3
	.long	.LASF80
	.long	0x3a2b
	.long	0x865
	.uleb128 0x1
	.long	0x3a2b
	.uleb128 0x1
	.long	0x772
	.uleb128 0x1
	.long	0x3a25
	.byte	0
	.uleb128 0x11
	.long	.LASF58
	.byte	0x11
	.value	0x1c2
	.long	.LASF81
	.long	0x3a31
	.long	0x889
	.uleb128 0x1
	.long	0x3a31
	.uleb128 0x1
	.long	0x3a2b
	.uleb128 0x1
	.long	0x772
	.byte	0
	.uleb128 0x11
	.long	.LASF60
	.byte	0x11
	.value	0x1ca
	.long	.LASF82
	.long	0x3a31
	.long	0x8ad
	.uleb128 0x1
	.long	0x3a31
	.uleb128 0x1
	.long	0x3a2b
	.uleb128 0x1
	.long	0x772
	.byte	0
	.uleb128 0x11
	.long	.LASF62
	.byte	0x11
	.value	0x1d2
	.long	.LASF83
	.long	0x3a31
	.long	0x8d1
	.uleb128 0x1
	.long	0x3a31
	.uleb128 0x1
	.long	0x772
	.uleb128 0x1
	.long	0x78a
	.byte	0
	.uleb128 0x11
	.long	.LASF64
	.byte	0x11
	.value	0x1da
	.long	.LASF84
	.long	0x78a
	.long	0x8eb
	.uleb128 0x1
	.long	0x3a37
	.byte	0
	.uleb128 0x11
	.long	.LASF66
	.byte	0x11
	.value	0x1de
	.long	.LASF85
	.long	0x79b
	.long	0x905
	.uleb128 0x1
	.long	0x3a25
	.byte	0
	.uleb128 0x11
	.long	.LASF68
	.byte	0x11
	.value	0x1e2
	.long	.LASF86
	.long	0x399c
	.long	0x924
	.uleb128 0x1
	.long	0x3a37
	.uleb128 0x1
	.long	0x3a37
	.byte	0
	.uleb128 0x65
	.string	"eof"
	.byte	0x11
	.value	0x1e6
	.long	.LASF88
	.long	0x79b
	.uleb128 0x47
	.long	.LASF70
	.byte	0x11
	.value	0x1ea
	.long	.LASF89
	.long	0x79b
	.uleb128 0x1
	.long	0x3a37
	.byte	0
	.byte	0
	.uleb128 0x4
	.byte	0x12
	.byte	0x30
	.long	0x3ac6
	.uleb128 0x4
	.byte	0x12
	.byte	0x31
	.long	0x3ad1
	.uleb128 0x4
	.byte	0x12
	.byte	0x32
	.long	0x3ae1
	.uleb128 0x4
	.byte	0x12
	.byte	0x33
	.long	0x3aec
	.uleb128 0x4
	.byte	0x12
	.byte	0x35
	.long	0x3b7b
	.uleb128 0x4
	.byte	0x12
	.byte	0x36
	.long	0x3b86
	.uleb128 0x4
	.byte	0x12
	.byte	0x37
	.long	0x3b91
	.uleb128 0x4
	.byte	0x12
	.byte	0x38
	.long	0x3b9c
	.uleb128 0x4
	.byte	0x12
	.byte	0x3a
	.long	0x3b23
	.uleb128 0x4
	.byte	0x12
	.byte	0x3b
	.long	0x3b2e
	.uleb128 0x4
	.byte	0x12
	.byte	0x3c
	.long	0x3b39
	.uleb128 0x4
	.byte	0x12
	.byte	0x3d
	.long	0x3b44
	.uleb128 0x4
	.byte	0x12
	.byte	0x3f
	.long	0x3be9
	.uleb128 0x4
	.byte	0x12
	.byte	0x40
	.long	0x3bd3
	.uleb128 0x4
	.byte	0x12
	.byte	0x42
	.long	0x3af7
	.uleb128 0x4
	.byte	0x12
	.byte	0x43
	.long	0x3b02
	.uleb128 0x4
	.byte	0x12
	.byte	0x44
	.long	0x3b0d
	.uleb128 0x4
	.byte	0x12
	.byte	0x45
	.long	0x3b18
	.uleb128 0x4
	.byte	0x12
	.byte	0x47
	.long	0x3ba7
	.uleb128 0x4
	.byte	0x12
	.byte	0x48
	.long	0x3bb2
	.uleb128 0x4
	.byte	0x12
	.byte	0x49
	.long	0x3bbd
	.uleb128 0x4
	.byte	0x12
	.byte	0x4a
	.long	0x3bc8
	.uleb128 0x4
	.byte	0x12
	.byte	0x4c
	.long	0x3b4f
	.uleb128 0x4
	.byte	0x12
	.byte	0x4d
	.long	0x3b5a
	.uleb128 0x4
	.byte	0x12
	.byte	0x4e
	.long	0x3b65
	.uleb128 0x4
	.byte	0x12
	.byte	0x4f
	.long	0x3b70
	.uleb128 0x4
	.byte	0x12
	.byte	0x51
	.long	0x3bf4
	.uleb128 0x4
	.byte	0x12
	.byte	0x52
	.long	0x3bde
	.uleb128 0x4
	.byte	0x13
	.byte	0x35
	.long	0x3c0d
	.uleb128 0x4
	.byte	0x13
	.byte	0x36
	.long	0x3d3a
	.uleb128 0x4
	.byte	0x13
	.byte	0x37
	.long	0x3d54
	.uleb128 0x7
	.long	.LASF90
	.byte	0xe
	.byte	0xe8
	.long	0x3762
	.uleb128 0xc
	.long	0xa24
	.uleb128 0x7
	.long	.LASF91
	.byte	0xd
	.byte	0x57
	.long	0x4d7
	.uleb128 0x4
	.byte	0x14
	.byte	0x7f
	.long	0x3dfb
	.uleb128 0x4
	.byte	0x14
	.byte	0x80
	.long	0x3e2b
	.uleb128 0x4
	.byte	0x14
	.byte	0x86
	.long	0x3e8c
	.uleb128 0x4
	.byte	0x14
	.byte	0x89
	.long	0x3eaa
	.uleb128 0x4
	.byte	0x14
	.byte	0x8c
	.long	0x3ec4
	.uleb128 0x4
	.byte	0x14
	.byte	0x8d
	.long	0x3ed9
	.uleb128 0x4
	.byte	0x14
	.byte	0x8e
	.long	0x3eef
	.uleb128 0x4
	.byte	0x14
	.byte	0x8f
	.long	0x3f05
	.uleb128 0x4
	.byte	0x14
	.byte	0x91
	.long	0x3f2e
	.uleb128 0x4
	.byte	0x14
	.byte	0x94
	.long	0x3f4a
	.uleb128 0x4
	.byte	0x14
	.byte	0x96
	.long	0x3f60
	.uleb128 0x4
	.byte	0x14
	.byte	0x99
	.long	0x3f7b
	.uleb128 0x4
	.byte	0x14
	.byte	0x9a
	.long	0x3f96
	.uleb128 0x4
	.byte	0x14
	.byte	0x9b
	.long	0x3fb5
	.uleb128 0x4
	.byte	0x14
	.byte	0x9d
	.long	0x3fd5
	.uleb128 0x4
	.byte	0x14
	.byte	0xa0
	.long	0x3ff6
	.uleb128 0x4
	.byte	0x14
	.byte	0xa3
	.long	0x4009
	.uleb128 0x4
	.byte	0x14
	.byte	0xa5
	.long	0x4015
	.uleb128 0x4
	.byte	0x14
	.byte	0xa6
	.long	0x4027
	.uleb128 0x4
	.byte	0x14
	.byte	0xa7
	.long	0x4047
	.uleb128 0x4
	.byte	0x14
	.byte	0xa8
	.long	0x4066
	.uleb128 0x4
	.byte	0x14
	.byte	0xa9
	.long	0x4085
	.uleb128 0x4
	.byte	0x14
	.byte	0xab
	.long	0x409b
	.uleb128 0x4
	.byte	0x14
	.byte	0xac
	.long	0x40ba
	.uleb128 0x4
	.byte	0x14
	.byte	0xf0
	.long	0x3e5b
	.uleb128 0x4
	.byte	0x14
	.byte	0xf5
	.long	0x27f0
	.uleb128 0x4
	.byte	0x14
	.byte	0xf6
	.long	0x40d4
	.uleb128 0x4
	.byte	0x14
	.byte	0xf8
	.long	0x40ef
	.uleb128 0x4
	.byte	0x14
	.byte	0xf9
	.long	0x4143
	.uleb128 0x4
	.byte	0x14
	.byte	0xfa
	.long	0x4105
	.uleb128 0x4
	.byte	0x14
	.byte	0xfb
	.long	0x4124
	.uleb128 0x4
	.byte	0x14
	.byte	0xfc
	.long	0x415d
	.uleb128 0x4
	.byte	0x15
	.byte	0x62
	.long	0x31b8
	.uleb128 0x4
	.byte	0x15
	.byte	0x63
	.long	0x423c
	.uleb128 0x4
	.byte	0x15
	.byte	0x65
	.long	0x42a5
	.uleb128 0x4
	.byte	0x15
	.byte	0x66
	.long	0x42bd
	.uleb128 0x4
	.byte	0x15
	.byte	0x67
	.long	0x42d2
	.uleb128 0x4
	.byte	0x15
	.byte	0x68
	.long	0x42e8
	.uleb128 0x4
	.byte	0x15
	.byte	0x69
	.long	0x42fe
	.uleb128 0x4
	.byte	0x15
	.byte	0x6a
	.long	0x4313
	.uleb128 0x4
	.byte	0x15
	.byte	0x6b
	.long	0x4329
	.uleb128 0x4
	.byte	0x15
	.byte	0x6c
	.long	0x434a
	.uleb128 0x4
	.byte	0x15
	.byte	0x6d
	.long	0x4369
	.uleb128 0x4
	.byte	0x15
	.byte	0x71
	.long	0x4383
	.uleb128 0x4
	.byte	0x15
	.byte	0x72
	.long	0x43a8
	.uleb128 0x4
	.byte	0x15
	.byte	0x74
	.long	0x43c7
	.uleb128 0x4
	.byte	0x15
	.byte	0x75
	.long	0x43e7
	.uleb128 0x4
	.byte	0x15
	.byte	0x76
	.long	0x4408
	.uleb128 0x4
	.byte	0x15
	.byte	0x78
	.long	0x441e
	.uleb128 0x4
	.byte	0x15
	.byte	0x79
	.long	0x4434
	.uleb128 0x4
	.byte	0x15
	.byte	0x7e
	.long	0x443f
	.uleb128 0x4
	.byte	0x15
	.byte	0x83
	.long	0x4451
	.uleb128 0x4
	.byte	0x15
	.byte	0x84
	.long	0x4466
	.uleb128 0x4
	.byte	0x15
	.byte	0x85
	.long	0x4480
	.uleb128 0x4
	.byte	0x15
	.byte	0x87
	.long	0x4492
	.uleb128 0x4
	.byte	0x15
	.byte	0x88
	.long	0x44a9
	.uleb128 0x4
	.byte	0x15
	.byte	0x8b
	.long	0x44ce
	.uleb128 0x4
	.byte	0x15
	.byte	0x8d
	.long	0x44d9
	.uleb128 0x4
	.byte	0x15
	.byte	0x8f
	.long	0x44ee
	.uleb128 0x7e
	.long	.LASF92
	.byte	0x16
	.value	0x1a0a
	.long	0xbf9
	.uleb128 0x4d
	.long	.LASF93
	.byte	0x16
	.value	0x1a0c
	.uleb128 0x58
	.byte	0x16
	.value	0x1a0d
	.long	0xbe8
	.byte	0
	.uleb128 0x58
	.byte	0x16
	.value	0x1a0b
	.long	0xbdc
	.uleb128 0x7f
	.string	"_V2"
	.byte	0x17
	.byte	0x47
	.uleb128 0x56
	.byte	0x17
	.byte	0x47
	.long	0xc01
	.uleb128 0x80
	.long	.LASF909
	.byte	0x5
	.byte	0x4
	.long	0x3005
	.byte	0x18
	.byte	0x99
	.long	0xc57
	.uleb128 0x4f
	.long	.LASF94
	.byte	0
	.uleb128 0x4f
	.long	.LASF95
	.byte	0x1
	.uleb128 0x4f
	.long	.LASF96
	.byte	0x2
	.uleb128 0x4f
	.long	.LASF97
	.byte	0x4
	.uleb128 0x66
	.long	.LASF98
	.long	0x10000
	.uleb128 0x66
	.long	.LASF99
	.long	0x7fffffff
	.uleb128 0x81
	.long	.LASF100
	.sleb128 -2147483648
	.byte	0
	.uleb128 0x3f
	.long	.LASF106
	.long	0xcce
	.uleb128 0x82
	.long	.LASF103
	.byte	0x1
	.byte	0x18
	.value	0x259
	.byte	0x1
	.long	0xcc0
	.uleb128 0x67
	.long	.LASF101
	.byte	0x18
	.value	0x261
	.long	0x3dc3
	.uleb128 0x67
	.long	.LASF102
	.byte	0x18
	.value	0x262
	.long	0x399c
	.uleb128 0x19
	.long	.LASF103
	.byte	0x18
	.value	0x25d
	.long	.LASF226
	.byte	0x1
	.long	0xc9c
	.long	0xca2
	.uleb128 0x5
	.long	0x451f
	.byte	0
	.uleb128 0x83
	.long	.LASF104
	.byte	0x18
	.value	0x25e
	.long	.LASF105
	.byte	0x1
	.long	0xcb4
	.uleb128 0x5
	.long	0x451f
	.uleb128 0x5
	.long	0x3005
	.byte	0
	.byte	0
	.uleb128 0x38
	.long	.LASF108
	.byte	0x18
	.value	0x18e
	.long	0xc0f
	.byte	0x1
	.byte	0
	.uleb128 0x4
	.byte	0x19
	.byte	0x52
	.long	0x4530
	.uleb128 0x4
	.byte	0x19
	.byte	0x53
	.long	0x4525
	.uleb128 0x4
	.byte	0x19
	.byte	0x54
	.long	0x2f99
	.uleb128 0x4
	.byte	0x19
	.byte	0x5c
	.long	0x4541
	.uleb128 0x4
	.byte	0x19
	.byte	0x65
	.long	0x455b
	.uleb128 0x4
	.byte	0x19
	.byte	0x68
	.long	0x4575
	.uleb128 0x4
	.byte	0x19
	.byte	0x69
	.long	0x458a
	.uleb128 0x3f
	.long	.LASF107
	.long	0xdaa
	.uleb128 0x25
	.long	.LASF109
	.byte	0x3
	.byte	0x47
	.long	0xcff
	.byte	0x1
	.uleb128 0x30
	.long	.LASF110
	.byte	0x3
	.byte	0xaa
	.long	.LASF111
	.long	0x5c68
	.byte	0x1
	.long	0xd2c
	.long	0xd37
	.uleb128 0x5
	.long	0x45b5
	.uleb128 0x1
	.long	0x2f46
	.byte	0
	.uleb128 0x30
	.long	.LASF110
	.byte	0x3
	.byte	0x6c
	.long	.LASF112
	.long	0x5c68
	.byte	0x1
	.long	0xd4f
	.long	0xd5a
	.uleb128 0x5
	.long	0x45b5
	.uleb128 0x1
	.long	0x5d91
	.byte	0
	.uleb128 0x6
	.long	.LASF113
	.long	0x2ff9
	.uleb128 0x3b
	.long	.LASF121
	.long	0x5a4
	.uleb128 0x3c
	.long	.LASF114
	.long	.LASF116
	.byte	0x1a
	.byte	0x3f
	.long	.LASF114
	.uleb128 0x3c
	.long	.LASF115
	.long	.LASF117
	.byte	0x1a
	.byte	0xd2
	.long	.LASF115
	.uleb128 0x84
	.long	.LASF118
	.string	"put"
	.byte	0x1a
	.byte	0x94
	.long	.LASF118
	.uleb128 0x3c
	.long	.LASF119
	.long	.LASF110
	.byte	0x1a
	.byte	0x69
	.long	.LASF119
	.byte	0
	.uleb128 0x3f
	.long	.LASF120
	.long	0xdc6
	.uleb128 0x6
	.long	.LASF113
	.long	0x322d
	.uleb128 0x3b
	.long	.LASF121
	.long	0x77d
	.byte	0
	.uleb128 0x3f
	.long	.LASF122
	.long	0xde2
	.uleb128 0x6
	.long	.LASF113
	.long	0x2ff9
	.uleb128 0x3b
	.long	.LASF121
	.long	0x5a4
	.byte	0
	.uleb128 0x3f
	.long	.LASF123
	.long	0xe5b
	.uleb128 0x38
	.long	.LASF48
	.byte	0x1
	.value	0x2ae
	.long	0x2ff9
	.byte	0x1
	.uleb128 0x85
	.long	.LASF910
	.byte	0x1
	.value	0x43a
	.long	.LASF911
	.long	0xdeb
	.byte	0x1
	.uleb128 0x2
	.byte	0x10
	.uleb128 0x6
	.long	0xde2
	.byte	0x2
	.long	0xe1a
	.long	0xe25
	.uleb128 0x5
	.long	0x532a
	.uleb128 0x1
	.long	0x2ff9
	.byte	0
	.uleb128 0xb
	.long	.LASF124
	.byte	0x1
	.value	0x368
	.long	.LASF228
	.long	0xdeb
	.byte	0x1
	.long	0xe3e
	.long	0xe49
	.uleb128 0x5
	.long	0x532a
	.uleb128 0x1
	.long	0x2ff9
	.byte	0
	.uleb128 0x86
	.long	.LASF125
	.long	.LASF126
	.byte	0x1
	.value	0x48e
	.long	.LASF125
	.byte	0
	.uleb128 0xc
	.long	0xde2
	.uleb128 0x3f
	.long	.LASF127
	.long	0xe7c
	.uleb128 0x6
	.long	.LASF113
	.long	0x322d
	.uleb128 0x3b
	.long	.LASF121
	.long	0x77d
	.byte	0
	.uleb128 0x7
	.long	.LASF128
	.byte	0x1b
	.byte	0x8a
	.long	0xdc6
	.uleb128 0x87
	.string	"cin"
	.byte	0x9
	.byte	0x3c
	.long	.LASF912
	.long	0xe7c
	.uleb128 0x7
	.long	.LASF129
	.byte	0x1b
	.byte	0x8d
	.long	0xcff
	.uleb128 0x39
	.long	.LASF130
	.byte	0x9
	.byte	0x3d
	.long	.LASF132
	.long	0xe97
	.uleb128 0x39
	.long	.LASF133
	.byte	0x9
	.byte	0x3e
	.long	.LASF134
	.long	0xe97
	.uleb128 0x39
	.long	.LASF135
	.byte	0x9
	.byte	0x3f
	.long	.LASF136
	.long	0xe97
	.uleb128 0x7
	.long	.LASF137
	.byte	0x1b
	.byte	0xb2
	.long	0xe60
	.uleb128 0x39
	.long	.LASF138
	.byte	0x9
	.byte	0x42
	.long	.LASF139
	.long	0xecf
	.uleb128 0x7
	.long	.LASF140
	.byte	0x1b
	.byte	0xb5
	.long	0xdaa
	.uleb128 0x39
	.long	.LASF141
	.byte	0x9
	.byte	0x43
	.long	.LASF142
	.long	0xee9
	.uleb128 0x39
	.long	.LASF143
	.byte	0x9
	.byte	0x44
	.long	.LASF144
	.long	0xee9
	.uleb128 0x39
	.long	.LASF145
	.byte	0x9
	.byte	0x45
	.long	.LASF146
	.long	0xee9
	.uleb128 0x88
	.long	.LASF817
	.byte	0x9
	.byte	0x4a
	.long	0xc60
	.uleb128 0x1d
	.long	.LASF147
	.byte	0x1
	.byte	0x1c
	.byte	0x71
	.long	0xf5a
	.uleb128 0x89
	.long	.LASF193
	.byte	0x1c
	.byte	0x75
	.long	.LASF913
	.uleb128 0x6
	.long	.LASF148
	.long	0x45cd
	.uleb128 0x1
	.long	0x45cd
	.uleb128 0x1
	.long	0x45cd
	.byte	0
	.byte	0
	.uleb128 0x1d
	.long	.LASF149
	.byte	0x1
	.byte	0x1d
	.byte	0x5f
	.long	0xf99
	.uleb128 0x8a
	.long	.LASF150
	.byte	0x1d
	.byte	0x63
	.long	.LASF421
	.long	0x45cd
	.uleb128 0x6
	.long	.LASF151
	.long	0x1f82
	.uleb128 0x6
	.long	.LASF148
	.long	0x45cd
	.uleb128 0x1
	.long	0x1f82
	.uleb128 0x1
	.long	0x1f82
	.uleb128 0x1
	.long	0x45cd
	.byte	0
	.byte	0
	.uleb128 0x3a
	.long	.LASF152
	.byte	0x1
	.byte	0x1d
	.value	0x21b
	.long	0xfd4
	.uleb128 0x47
	.long	.LASF153
	.byte	0x1d
	.value	0x21f
	.long	.LASF154
	.long	0x45cd
	.uleb128 0x6
	.long	.LASF148
	.long	0x45cd
	.uleb128 0x6
	.long	.LASF155
	.long	0x2f46
	.uleb128 0x1
	.long	0x45cd
	.uleb128 0x1
	.long	0x2f46
	.byte	0
	.byte	0
	.uleb128 0x3a
	.long	.LASF156
	.byte	0x1
	.byte	0x1e
	.value	0x180
	.long	0x112b
	.uleb128 0x2d
	.long	.LASF157
	.byte	0x1e
	.value	0x183
	.long	0x112b
	.uleb128 0xc
	.long	0xfe1
	.uleb128 0x2d
	.long	.LASF28
	.byte	0x1e
	.value	0x185
	.long	0x39cf
	.uleb128 0x2d
	.long	.LASF158
	.byte	0x1e
	.value	0x188
	.long	0x45cd
	.uleb128 0x2d
	.long	.LASF159
	.byte	0x1e
	.value	0x191
	.long	0x3dce
	.uleb128 0x2d
	.long	.LASF160
	.byte	0x1e
	.value	0x197
	.long	0x772
	.uleb128 0x11
	.long	.LASF161
	.byte	0x1e
	.value	0x1b3
	.long	.LASF162
	.long	0xffe
	.long	0x1041
	.uleb128 0x1
	.long	0x45de
	.uleb128 0x1
	.long	0x1016
	.byte	0
	.uleb128 0x11
	.long	.LASF161
	.byte	0x1e
	.value	0x1c1
	.long	.LASF163
	.long	0xffe
	.long	0x1065
	.uleb128 0x1
	.long	0x45de
	.uleb128 0x1
	.long	0x1016
	.uleb128 0x1
	.long	0x100a
	.byte	0
	.uleb128 0x46
	.long	.LASF164
	.byte	0x1e
	.value	0x1cd
	.long	.LASF165
	.long	0x1085
	.uleb128 0x1
	.long	0x45de
	.uleb128 0x1
	.long	0xffe
	.uleb128 0x1
	.long	0x1016
	.byte	0
	.uleb128 0x11
	.long	.LASF166
	.byte	0x1e
	.value	0x1ef
	.long	.LASF167
	.long	0x1016
	.long	0x109f
	.uleb128 0x1
	.long	0x45e4
	.byte	0
	.uleb128 0x11
	.long	.LASF168
	.byte	0x1e
	.value	0x1f8
	.long	.LASF169
	.long	0xfe1
	.long	0x10b9
	.uleb128 0x1
	.long	0x45e4
	.byte	0
	.uleb128 0x2d
	.long	.LASF170
	.byte	0x1e
	.value	0x1a6
	.long	0x112b
	.uleb128 0x46
	.long	.LASF171
	.byte	0x1e
	.value	0x1e6
	.long	.LASF172
	.long	0x10e9
	.uleb128 0x10
	.string	"_Up"
	.long	0x39cf
	.uleb128 0x1
	.long	0x45de
	.uleb128 0x1
	.long	0x45cd
	.byte	0
	.uleb128 0x46
	.long	.LASF173
	.byte	0x1e
	.value	0x1da
	.long	.LASF174
	.long	0x1121
	.uleb128 0x10
	.string	"_Up"
	.long	0x39cf
	.uleb128 0x3d
	.long	.LASF337
	.long	0x1111
	.uleb128 0x3e
	.long	0x39cf
	.byte	0
	.uleb128 0x1
	.long	0x45de
	.uleb128 0x1
	.long	0x45cd
	.uleb128 0x1
	.long	0x47a1
	.byte	0
	.uleb128 0x6
	.long	.LASF175
	.long	0x112b
	.byte	0
	.uleb128 0x4c
	.long	.LASF176
	.byte	0x1
	.byte	0x1f
	.byte	0x6c
	.long	0x1194
	.uleb128 0x68
	.long	0x2ade
	.byte	0
	.byte	0x1
	.uleb128 0x24
	.long	.LASF177
	.byte	0x1f
	.byte	0x83
	.long	.LASF178
	.byte	0x1
	.long	0x1152
	.long	0x1158
	.uleb128 0x5
	.long	0x462a
	.byte	0
	.uleb128 0x24
	.long	.LASF177
	.byte	0x1f
	.byte	0x85
	.long	.LASF179
	.byte	0x1
	.long	0x116c
	.long	0x1177
	.uleb128 0x5
	.long	0x462a
	.uleb128 0x1
	.long	0x45f6
	.byte	0
	.uleb128 0x8b
	.long	.LASF180
	.byte	0x1f
	.byte	0x8b
	.long	.LASF181
	.byte	0x1
	.long	0x1188
	.uleb128 0x5
	.long	0x462a
	.uleb128 0x5
	.long	0x3005
	.byte	0
	.byte	0
	.uleb128 0xc
	.long	0x112b
	.uleb128 0x1d
	.long	.LASF182
	.byte	0x18
	.byte	0x5
	.byte	0x4a
	.long	0x1461
	.uleb128 0x1d
	.long	.LASF183
	.byte	0x18
	.byte	0x5
	.byte	0x51
	.long	0x1267
	.uleb128 0x69
	.long	0x112b
	.byte	0
	.uleb128 0x8
	.long	.LASF185
	.byte	0x5
	.byte	0x54
	.long	0x1267
	.byte	0
	.uleb128 0x8
	.long	.LASF186
	.byte	0x5
	.byte	0x55
	.long	0x1267
	.byte	0x8
	.uleb128 0x8
	.long	.LASF187
	.byte	0x5
	.byte	0x56
	.long	0x1267
	.byte	0x10
	.uleb128 0x2a
	.long	.LASF183
	.byte	0x5
	.byte	0x58
	.long	.LASF188
	.long	0x11ee
	.long	0x11f4
	.uleb128 0x5
	.long	0x4635
	.byte	0
	.uleb128 0x2a
	.long	.LASF183
	.byte	0x5
	.byte	0x5c
	.long	.LASF189
	.long	0x1207
	.long	0x1212
	.uleb128 0x5
	.long	0x4635
	.uleb128 0x1
	.long	0x4640
	.byte	0
	.uleb128 0x2a
	.long	.LASF183
	.byte	0x5
	.byte	0x61
	.long	.LASF190
	.long	0x1225
	.long	0x1230
	.uleb128 0x5
	.long	0x4635
	.uleb128 0x1
	.long	0x4646
	.byte	0
	.uleb128 0x2a
	.long	.LASF191
	.byte	0x5
	.byte	0x67
	.long	.LASF192
	.long	0x1243
	.long	0x124e
	.uleb128 0x5
	.long	0x4635
	.uleb128 0x1
	.long	0x464c
	.byte	0
	.uleb128 0x6a
	.long	.LASF194
	.long	.LASF824
	.long	0x125b
	.uleb128 0x5
	.long	0x4635
	.uleb128 0x5
	.long	0x3005
	.byte	0
	.byte	0
	.uleb128 0x7
	.long	.LASF158
	.byte	0x5
	.byte	0x4f
	.long	0x2a14
	.uleb128 0x7
	.long	.LASF195
	.byte	0x5
	.byte	0x4d
	.long	0x2abf
	.uleb128 0xc
	.long	0x1272
	.uleb128 0x8
	.long	.LASF196
	.byte	0x5
	.byte	0xa6
	.long	0x11a5
	.byte	0
	.uleb128 0x7
	.long	.LASF157
	.byte	0x5
	.byte	0x70
	.long	0x112b
	.uleb128 0xc
	.long	0x128e
	.uleb128 0x37
	.long	.LASF197
	.byte	0x5
	.byte	0x73
	.long	.LASF198
	.long	0x4652
	.long	0x12b5
	.long	0x12bb
	.uleb128 0x5
	.long	0x4658
	.byte	0
	.uleb128 0x37
	.long	.LASF197
	.byte	0x5
	.byte	0x77
	.long	.LASF199
	.long	0x4640
	.long	0x12d2
	.long	0x12d8
	.uleb128 0x5
	.long	0x4663
	.byte	0
	.uleb128 0x37
	.long	.LASF200
	.byte	0x5
	.byte	0x7b
	.long	.LASF201
	.long	0x128e
	.long	0x12ef
	.long	0x12f5
	.uleb128 0x5
	.long	0x4663
	.byte	0
	.uleb128 0x2a
	.long	.LASF202
	.byte	0x5
	.byte	0x7e
	.long	.LASF203
	.long	0x1308
	.long	0x130e
	.uleb128 0x5
	.long	0x4658
	.byte	0
	.uleb128 0x2a
	.long	.LASF202
	.byte	0x5
	.byte	0x81
	.long	.LASF204
	.long	0x1321
	.long	0x132c
	.uleb128 0x5
	.long	0x4658
	.uleb128 0x1
	.long	0x466e
	.byte	0
	.uleb128 0x2a
	.long	.LASF202
	.byte	0x5
	.byte	0x84
	.long	.LASF205
	.long	0x133f
	.long	0x134a
	.uleb128 0x5
	.long	0x4658
	.uleb128 0x1
	.long	0x772
	.byte	0
	.uleb128 0x2a
	.long	.LASF202
	.byte	0x5
	.byte	0x88
	.long	.LASF206
	.long	0x135d
	.long	0x136d
	.uleb128 0x5
	.long	0x4658
	.uleb128 0x1
	.long	0x772
	.uleb128 0x1
	.long	0x466e
	.byte	0
	.uleb128 0x2a
	.long	.LASF202
	.byte	0x5
	.byte	0x8d
	.long	.LASF207
	.long	0x1380
	.long	0x138b
	.uleb128 0x5
	.long	0x4658
	.uleb128 0x1
	.long	0x4646
	.byte	0
	.uleb128 0x2a
	.long	.LASF202
	.byte	0x5
	.byte	0x90
	.long	.LASF208
	.long	0x139e
	.long	0x13a9
	.uleb128 0x5
	.long	0x4658
	.uleb128 0x1
	.long	0x4674
	.byte	0
	.uleb128 0x2a
	.long	.LASF202
	.byte	0x5
	.byte	0x94
	.long	.LASF209
	.long	0x13bc
	.long	0x13cc
	.uleb128 0x5
	.long	0x4658
	.uleb128 0x1
	.long	0x4674
	.uleb128 0x1
	.long	0x466e
	.byte	0
	.uleb128 0x2a
	.long	.LASF210
	.byte	0x5
	.byte	0xa1
	.long	.LASF211
	.long	0x13df
	.long	0x13ea
	.uleb128 0x5
	.long	0x4658
	.uleb128 0x5
	.long	0x3005
	.byte	0
	.uleb128 0x37
	.long	.LASF212
	.byte	0x5
	.byte	0xa9
	.long	.LASF213
	.long	0x1267
	.long	0x1401
	.long	0x140c
	.uleb128 0x5
	.long	0x4658
	.uleb128 0x1
	.long	0x772
	.byte	0
	.uleb128 0x2a
	.long	.LASF214
	.byte	0x5
	.byte	0xb0
	.long	.LASF215
	.long	0x141f
	.long	0x142f
	.uleb128 0x5
	.long	0x4658
	.uleb128 0x1
	.long	0x1267
	.uleb128 0x1
	.long	0x772
	.byte	0
	.uleb128 0x24
	.long	.LASF216
	.byte	0x5
	.byte	0xb9
	.long	.LASF217
	.byte	0x3
	.long	0x1443
	.long	0x144e
	.uleb128 0x5
	.long	0x4658
	.uleb128 0x1
	.long	0x772
	.byte	0
	.uleb128 0x10
	.string	"_Tp"
	.long	0x39cf
	.uleb128 0x6
	.long	.LASF175
	.long	0x112b
	.byte	0
	.uleb128 0xc
	.long	0x1199
	.uleb128 0x4c
	.long	.LASF218
	.byte	0x18
	.byte	0x5
	.byte	0xd8
	.long	0x1f03
	.uleb128 0x4
	.byte	0x5
	.byte	0xd8
	.long	0x13ea
	.uleb128 0x4
	.byte	0x5
	.byte	0xd8
	.long	0x140c
	.uleb128 0x4
	.byte	0x5
	.byte	0xd8
	.long	0x1282
	.uleb128 0x4
	.byte	0x5
	.byte	0xd8
	.long	0x12bb
	.uleb128 0x4
	.byte	0x5
	.byte	0xd8
	.long	0x12d8
	.uleb128 0x68
	.long	0x1199
	.byte	0
	.byte	0x2
	.uleb128 0x25
	.long	.LASF28
	.byte	0x5
	.byte	0xe8
	.long	0x39cf
	.byte	0x1
	.uleb128 0xc
	.long	0x149c
	.uleb128 0x25
	.long	.LASF158
	.byte	0x5
	.byte	0xe9
	.long	0x1267
	.byte	0x1
	.uleb128 0x25
	.long	.LASF219
	.byte	0x5
	.byte	0xeb
	.long	0x2a1f
	.byte	0x1
	.uleb128 0x25
	.long	.LASF220
	.byte	0x5
	.byte	0xec
	.long	0x2a2a
	.byte	0x1
	.uleb128 0x25
	.long	.LASF221
	.byte	0x5
	.byte	0xed
	.long	0x2ca1
	.byte	0x1
	.uleb128 0x25
	.long	.LASF222
	.byte	0x5
	.byte	0xef
	.long	0x2ecd
	.byte	0x1
	.uleb128 0x25
	.long	.LASF223
	.byte	0x5
	.byte	0xf0
	.long	0x1f08
	.byte	0x1
	.uleb128 0x25
	.long	.LASF224
	.byte	0x5
	.byte	0xf1
	.long	0x1f0d
	.byte	0x1
	.uleb128 0x25
	.long	.LASF160
	.byte	0x5
	.byte	0xf2
	.long	0x772
	.byte	0x1
	.uleb128 0xc
	.long	0x1501
	.uleb128 0x25
	.long	.LASF157
	.byte	0x5
	.byte	0xf4
	.long	0x112b
	.byte	0x1
	.uleb128 0xc
	.long	0x1512
	.uleb128 0x19
	.long	.LASF225
	.byte	0x5
	.value	0x103
	.long	.LASF227
	.byte	0x1
	.long	0x1538
	.long	0x153e
	.uleb128 0x5
	.long	0x467a
	.byte	0
	.uleb128 0x50
	.long	.LASF225
	.byte	0x5
	.value	0x10e
	.long	.LASF229
	.byte	0x1
	.long	0x1553
	.long	0x155e
	.uleb128 0x5
	.long	0x467a
	.uleb128 0x1
	.long	0x4685
	.byte	0
	.uleb128 0x50
	.long	.LASF225
	.byte	0x5
	.value	0x11b
	.long	.LASF230
	.byte	0x1
	.long	0x1573
	.long	0x1583
	.uleb128 0x5
	.long	0x467a
	.uleb128 0x1
	.long	0x1501
	.uleb128 0x1
	.long	0x4685
	.byte	0
	.uleb128 0x19
	.long	.LASF225
	.byte	0x5
	.value	0x127
	.long	.LASF231
	.byte	0x1
	.long	0x1598
	.long	0x15ad
	.uleb128 0x5
	.long	0x467a
	.uleb128 0x1
	.long	0x1501
	.uleb128 0x1
	.long	0x468b
	.uleb128 0x1
	.long	0x4685
	.byte	0
	.uleb128 0x19
	.long	.LASF225
	.byte	0x5
	.value	0x146
	.long	.LASF232
	.byte	0x1
	.long	0x15c2
	.long	0x15cd
	.uleb128 0x5
	.long	0x467a
	.uleb128 0x1
	.long	0x4691
	.byte	0
	.uleb128 0x19
	.long	.LASF225
	.byte	0x5
	.value	0x158
	.long	.LASF233
	.byte	0x1
	.long	0x15e2
	.long	0x15ed
	.uleb128 0x5
	.long	0x467a
	.uleb128 0x1
	.long	0x4697
	.byte	0
	.uleb128 0x19
	.long	.LASF225
	.byte	0x5
	.value	0x15c
	.long	.LASF234
	.byte	0x1
	.long	0x1602
	.long	0x1612
	.uleb128 0x5
	.long	0x467a
	.uleb128 0x1
	.long	0x4691
	.uleb128 0x1
	.long	0x4685
	.byte	0
	.uleb128 0x19
	.long	.LASF225
	.byte	0x5
	.value	0x166
	.long	.LASF235
	.byte	0x1
	.long	0x1627
	.long	0x1637
	.uleb128 0x5
	.long	0x467a
	.uleb128 0x1
	.long	0x4697
	.uleb128 0x1
	.long	0x4685
	.byte	0
	.uleb128 0x19
	.long	.LASF225
	.byte	0x5
	.value	0x17f
	.long	.LASF236
	.byte	0x1
	.long	0x164c
	.long	0x165c
	.uleb128 0x5
	.long	0x467a
	.uleb128 0x1
	.long	0x1f12
	.uleb128 0x1
	.long	0x4685
	.byte	0
	.uleb128 0x19
	.long	.LASF237
	.byte	0x5
	.value	0x1b1
	.long	.LASF238
	.byte	0x1
	.long	0x1671
	.long	0x167c
	.uleb128 0x5
	.long	0x467a
	.uleb128 0x5
	.long	0x3005
	.byte	0
	.uleb128 0x30
	.long	.LASF15
	.byte	0x7
	.byte	0xb3
	.long	.LASF239
	.long	0x469d
	.byte	0x1
	.long	0x1694
	.long	0x169f
	.uleb128 0x5
	.long	0x467a
	.uleb128 0x1
	.long	0x4691
	.byte	0
	.uleb128 0xb
	.long	.LASF15
	.byte	0x5
	.value	0x1cd
	.long	.LASF240
	.long	0x469d
	.byte	0x1
	.long	0x16b8
	.long	0x16c3
	.uleb128 0x5
	.long	0x467a
	.uleb128 0x1
	.long	0x4697
	.byte	0
	.uleb128 0xb
	.long	.LASF15
	.byte	0x5
	.value	0x1e2
	.long	.LASF241
	.long	0x469d
	.byte	0x1
	.long	0x16dc
	.long	0x16e7
	.uleb128 0x5
	.long	0x467a
	.uleb128 0x1
	.long	0x1f12
	.byte	0
	.uleb128 0x19
	.long	.LASF62
	.byte	0x5
	.value	0x1f5
	.long	.LASF242
	.byte	0x1
	.long	0x16fc
	.long	0x170c
	.uleb128 0x5
	.long	0x467a
	.uleb128 0x1
	.long	0x1501
	.uleb128 0x1
	.long	0x468b
	.byte	0
	.uleb128 0x19
	.long	.LASF62
	.byte	0x5
	.value	0x222
	.long	.LASF243
	.byte	0x1
	.long	0x1721
	.long	0x172c
	.uleb128 0x5
	.long	0x467a
	.uleb128 0x1
	.long	0x1f12
	.byte	0
	.uleb128 0xb
	.long	.LASF244
	.byte	0x5
	.value	0x233
	.long	.LASF245
	.long	0x14d1
	.byte	0x1
	.long	0x1745
	.long	0x174b
	.uleb128 0x5
	.long	0x467a
	.byte	0
	.uleb128 0xb
	.long	.LASF244
	.byte	0x5
	.value	0x23c
	.long	.LASF246
	.long	0x14dd
	.byte	0x1
	.long	0x1764
	.long	0x176a
	.uleb128 0x5
	.long	0x46a3
	.byte	0
	.uleb128 0x51
	.string	"end"
	.byte	0x5
	.value	0x245
	.long	.LASF247
	.long	0x14d1
	.byte	0x1
	.long	0x1783
	.long	0x1789
	.uleb128 0x5
	.long	0x467a
	.byte	0
	.uleb128 0x51
	.string	"end"
	.byte	0x5
	.value	0x24e
	.long	.LASF248
	.long	0x14dd
	.byte	0x1
	.long	0x17a2
	.long	0x17a8
	.uleb128 0x5
	.long	0x46a3
	.byte	0
	.uleb128 0xb
	.long	.LASF249
	.byte	0x5
	.value	0x257
	.long	.LASF250
	.long	0x14f5
	.byte	0x1
	.long	0x17c1
	.long	0x17c7
	.uleb128 0x5
	.long	0x467a
	.byte	0
	.uleb128 0xb
	.long	.LASF249
	.byte	0x5
	.value	0x260
	.long	.LASF251
	.long	0x14e9
	.byte	0x1
	.long	0x17e0
	.long	0x17e6
	.uleb128 0x5
	.long	0x46a3
	.byte	0
	.uleb128 0xb
	.long	.LASF252
	.byte	0x5
	.value	0x269
	.long	.LASF253
	.long	0x14f5
	.byte	0x1
	.long	0x17ff
	.long	0x1805
	.uleb128 0x5
	.long	0x467a
	.byte	0
	.uleb128 0xb
	.long	.LASF252
	.byte	0x5
	.value	0x272
	.long	.LASF254
	.long	0x14e9
	.byte	0x1
	.long	0x181e
	.long	0x1824
	.uleb128 0x5
	.long	0x46a3
	.byte	0
	.uleb128 0xb
	.long	.LASF255
	.byte	0x5
	.value	0x27c
	.long	.LASF256
	.long	0x14dd
	.byte	0x1
	.long	0x183d
	.long	0x1843
	.uleb128 0x5
	.long	0x46a3
	.byte	0
	.uleb128 0xb
	.long	.LASF257
	.byte	0x5
	.value	0x285
	.long	.LASF258
	.long	0x14dd
	.byte	0x1
	.long	0x185c
	.long	0x1862
	.uleb128 0x5
	.long	0x46a3
	.byte	0
	.uleb128 0xb
	.long	.LASF259
	.byte	0x5
	.value	0x28e
	.long	.LASF260
	.long	0x14e9
	.byte	0x1
	.long	0x187b
	.long	0x1881
	.uleb128 0x5
	.long	0x46a3
	.byte	0
	.uleb128 0xb
	.long	.LASF261
	.byte	0x5
	.value	0x297
	.long	.LASF262
	.long	0x14e9
	.byte	0x1
	.long	0x189a
	.long	0x18a0
	.uleb128 0x5
	.long	0x46a3
	.byte	0
	.uleb128 0xb
	.long	.LASF263
	.byte	0x5
	.value	0x29e
	.long	.LASF264
	.long	0x1501
	.byte	0x1
	.long	0x18b9
	.long	0x18bf
	.uleb128 0x5
	.long	0x46a3
	.byte	0
	.uleb128 0xb
	.long	.LASF166
	.byte	0x5
	.value	0x2a3
	.long	.LASF265
	.long	0x1501
	.byte	0x1
	.long	0x18d8
	.long	0x18de
	.uleb128 0x5
	.long	0x46a3
	.byte	0
	.uleb128 0x19
	.long	.LASF266
	.byte	0x5
	.value	0x2b1
	.long	.LASF267
	.byte	0x1
	.long	0x18f3
	.long	0x18fe
	.uleb128 0x5
	.long	0x467a
	.uleb128 0x1
	.long	0x1501
	.byte	0
	.uleb128 0x19
	.long	.LASF266
	.byte	0x5
	.value	0x2c5
	.long	.LASF268
	.byte	0x1
	.long	0x1913
	.long	0x1923
	.uleb128 0x5
	.long	0x467a
	.uleb128 0x1
	.long	0x1501
	.uleb128 0x1
	.long	0x468b
	.byte	0
	.uleb128 0x19
	.long	.LASF269
	.byte	0x5
	.value	0x2e5
	.long	.LASF270
	.byte	0x1
	.long	0x1938
	.long	0x193e
	.uleb128 0x5
	.long	0x467a
	.byte	0
	.uleb128 0xb
	.long	.LASF271
	.byte	0x5
	.value	0x2ee
	.long	.LASF272
	.long	0x1501
	.byte	0x1
	.long	0x1957
	.long	0x195d
	.uleb128 0x5
	.long	0x46a3
	.byte	0
	.uleb128 0xb
	.long	.LASF273
	.byte	0x5
	.value	0x2f7
	.long	.LASF274
	.long	0x399c
	.byte	0x1
	.long	0x1976
	.long	0x197c
	.uleb128 0x5
	.long	0x46a3
	.byte	0
	.uleb128 0x24
	.long	.LASF275
	.byte	0x7
	.byte	0x41
	.long	.LASF276
	.byte	0x1
	.long	0x1990
	.long	0x199b
	.uleb128 0x5
	.long	0x467a
	.uleb128 0x1
	.long	0x1501
	.byte	0
	.uleb128 0xb
	.long	.LASF277
	.byte	0x5
	.value	0x31b
	.long	.LASF278
	.long	0x14b9
	.byte	0x1
	.long	0x19b4
	.long	0x19bf
	.uleb128 0x5
	.long	0x467a
	.uleb128 0x1
	.long	0x1501
	.byte	0
	.uleb128 0xb
	.long	.LASF277
	.byte	0x5
	.value	0x32d
	.long	.LASF279
	.long	0x14c5
	.byte	0x1
	.long	0x19d8
	.long	0x19e3
	.uleb128 0x5
	.long	0x46a3
	.uleb128 0x1
	.long	0x1501
	.byte	0
	.uleb128 0x19
	.long	.LASF280
	.byte	0x5
	.value	0x336
	.long	.LASF281
	.byte	0x2
	.long	0x19f8
	.long	0x1a03
	.uleb128 0x5
	.long	0x46a3
	.uleb128 0x1
	.long	0x1501
	.byte	0
	.uleb128 0x51
	.string	"at"
	.byte	0x5
	.value	0x34c
	.long	.LASF282
	.long	0x14b9
	.byte	0x1
	.long	0x1a1b
	.long	0x1a26
	.uleb128 0x5
	.long	0x467a
	.uleb128 0x1
	.long	0x1501
	.byte	0
	.uleb128 0x51
	.string	"at"
	.byte	0x5
	.value	0x35e
	.long	.LASF283
	.long	0x14c5
	.byte	0x1
	.long	0x1a3e
	.long	0x1a49
	.uleb128 0x5
	.long	0x46a3
	.uleb128 0x1
	.long	0x1501
	.byte	0
	.uleb128 0xb
	.long	.LASF284
	.byte	0x5
	.value	0x369
	.long	.LASF285
	.long	0x14b9
	.byte	0x1
	.long	0x1a62
	.long	0x1a68
	.uleb128 0x5
	.long	0x467a
	.byte	0
	.uleb128 0xb
	.long	.LASF284
	.byte	0x5
	.value	0x374
	.long	.LASF286
	.long	0x14c5
	.byte	0x1
	.long	0x1a81
	.long	0x1a87
	.uleb128 0x5
	.long	0x46a3
	.byte	0
	.uleb128 0xb
	.long	.LASF287
	.byte	0x5
	.value	0x37f
	.long	.LASF288
	.long	0x14b9
	.byte	0x1
	.long	0x1aa0
	.long	0x1aa6
	.uleb128 0x5
	.long	0x467a
	.byte	0
	.uleb128 0xb
	.long	.LASF287
	.byte	0x5
	.value	0x38a
	.long	.LASF289
	.long	0x14c5
	.byte	0x1
	.long	0x1abf
	.long	0x1ac5
	.uleb128 0x5
	.long	0x46a3
	.byte	0
	.uleb128 0xb
	.long	.LASF290
	.byte	0x5
	.value	0x398
	.long	.LASF291
	.long	0x45cd
	.byte	0x1
	.long	0x1ade
	.long	0x1ae4
	.uleb128 0x5
	.long	0x467a
	.byte	0
	.uleb128 0xb
	.long	.LASF290
	.byte	0x5
	.value	0x39c
	.long	.LASF292
	.long	0x45d8
	.byte	0x1
	.long	0x1afd
	.long	0x1b03
	.uleb128 0x5
	.long	0x46a3
	.byte	0
	.uleb128 0x19
	.long	.LASF293
	.byte	0x5
	.value	0x3ab
	.long	.LASF294
	.byte	0x1
	.long	0x1b18
	.long	0x1b23
	.uleb128 0x5
	.long	0x467a
	.uleb128 0x1
	.long	0x468b
	.byte	0
	.uleb128 0x19
	.long	.LASF293
	.byte	0x5
	.value	0x3b9
	.long	.LASF295
	.byte	0x1
	.long	0x1b38
	.long	0x1b43
	.uleb128 0x5
	.long	0x467a
	.uleb128 0x1
	.long	0x46ae
	.byte	0
	.uleb128 0x19
	.long	.LASF296
	.byte	0x5
	.value	0x3cf
	.long	.LASF297
	.byte	0x1
	.long	0x1b58
	.long	0x1b5e
	.uleb128 0x5
	.long	0x467a
	.byte	0
	.uleb128 0x30
	.long	.LASF298
	.byte	0x7
	.byte	0x72
	.long	.LASF299
	.long	0x14d1
	.byte	0x1
	.long	0x1b76
	.long	0x1b86
	.uleb128 0x5
	.long	0x467a
	.uleb128 0x1
	.long	0x14dd
	.uleb128 0x1
	.long	0x468b
	.byte	0
	.uleb128 0xb
	.long	.LASF298
	.byte	0x5
	.value	0x412
	.long	.LASF300
	.long	0x14d1
	.byte	0x1
	.long	0x1b9f
	.long	0x1baf
	.uleb128 0x5
	.long	0x467a
	.uleb128 0x1
	.long	0x14dd
	.uleb128 0x1
	.long	0x46ae
	.byte	0
	.uleb128 0xb
	.long	.LASF298
	.byte	0x5
	.value	0x423
	.long	.LASF301
	.long	0x14d1
	.byte	0x1
	.long	0x1bc8
	.long	0x1bd8
	.uleb128 0x5
	.long	0x467a
	.uleb128 0x1
	.long	0x14dd
	.uleb128 0x1
	.long	0x1f12
	.byte	0
	.uleb128 0xb
	.long	.LASF298
	.byte	0x5
	.value	0x43c
	.long	.LASF302
	.long	0x14d1
	.byte	0x1
	.long	0x1bf1
	.long	0x1c06
	.uleb128 0x5
	.long	0x467a
	.uleb128 0x1
	.long	0x14dd
	.uleb128 0x1
	.long	0x1501
	.uleb128 0x1
	.long	0x468b
	.byte	0
	.uleb128 0xb
	.long	.LASF303
	.byte	0x5
	.value	0x49b
	.long	.LASF304
	.long	0x14d1
	.byte	0x1
	.long	0x1c1f
	.long	0x1c2a
	.uleb128 0x5
	.long	0x467a
	.uleb128 0x1
	.long	0x14dd
	.byte	0
	.uleb128 0xb
	.long	.LASF303
	.byte	0x5
	.value	0x4b6
	.long	.LASF305
	.long	0x14d1
	.byte	0x1
	.long	0x1c43
	.long	0x1c53
	.uleb128 0x5
	.long	0x467a
	.uleb128 0x1
	.long	0x14dd
	.uleb128 0x1
	.long	0x14dd
	.byte	0
	.uleb128 0x19
	.long	.LASF20
	.byte	0x5
	.value	0x4cd
	.long	.LASF306
	.byte	0x1
	.long	0x1c68
	.long	0x1c73
	.uleb128 0x5
	.long	0x467a
	.uleb128 0x1
	.long	0x469d
	.byte	0
	.uleb128 0x19
	.long	.LASF307
	.byte	0x5
	.value	0x4df
	.long	.LASF308
	.byte	0x1
	.long	0x1c88
	.long	0x1c8e
	.uleb128 0x5
	.long	0x467a
	.byte	0
	.uleb128 0x19
	.long	.LASF309
	.byte	0x5
	.value	0x53b
	.long	.LASF310
	.byte	0x2
	.long	0x1ca3
	.long	0x1cb3
	.uleb128 0x5
	.long	0x467a
	.uleb128 0x1
	.long	0x1501
	.uleb128 0x1
	.long	0x468b
	.byte	0
	.uleb128 0x19
	.long	.LASF311
	.byte	0x5
	.value	0x545
	.long	.LASF312
	.byte	0x2
	.long	0x1cc8
	.long	0x1cd3
	.uleb128 0x5
	.long	0x467a
	.uleb128 0x1
	.long	0x1501
	.byte	0
	.uleb128 0x24
	.long	.LASF313
	.byte	0x7
	.byte	0xed
	.long	.LASF314
	.byte	0x2
	.long	0x1ce7
	.long	0x1cf7
	.uleb128 0x5
	.long	0x467a
	.uleb128 0x1
	.long	0x772
	.uleb128 0x1
	.long	0x468b
	.byte	0
	.uleb128 0x19
	.long	.LASF315
	.byte	0x7
	.value	0x1ca
	.long	.LASF316
	.byte	0x2
	.long	0x1d0c
	.long	0x1d21
	.uleb128 0x5
	.long	0x467a
	.uleb128 0x1
	.long	0x14d1
	.uleb128 0x1
	.long	0x1501
	.uleb128 0x1
	.long	0x468b
	.byte	0
	.uleb128 0x19
	.long	.LASF317
	.byte	0x7
	.value	0x22a
	.long	.LASF318
	.byte	0x2
	.long	0x1d36
	.long	0x1d41
	.uleb128 0x5
	.long	0x467a
	.uleb128 0x1
	.long	0x1501
	.byte	0
	.uleb128 0xb
	.long	.LASF319
	.byte	0x7
	.value	0x25c
	.long	.LASF320
	.long	0x399c
	.byte	0x2
	.long	0x1d5a
	.long	0x1d60
	.uleb128 0x5
	.long	0x467a
	.byte	0
	.uleb128 0xb
	.long	.LASF321
	.byte	0x7
	.value	0x139
	.long	.LASF322
	.long	0x14d1
	.byte	0x2
	.long	0x1d79
	.long	0x1d89
	.uleb128 0x5
	.long	0x467a
	.uleb128 0x1
	.long	0x14dd
	.uleb128 0x1
	.long	0x46ae
	.byte	0
	.uleb128 0xb
	.long	.LASF323
	.byte	0x5
	.value	0x5d8
	.long	.LASF324
	.long	0x14d1
	.byte	0x2
	.long	0x1da2
	.long	0x1db2
	.uleb128 0x5
	.long	0x467a
	.uleb128 0x1
	.long	0x14dd
	.uleb128 0x1
	.long	0x46ae
	.byte	0
	.uleb128 0xb
	.long	.LASF325
	.byte	0x5
	.value	0x5de
	.long	.LASF326
	.long	0x1501
	.byte	0x2
	.long	0x1dcb
	.long	0x1ddb
	.uleb128 0x5
	.long	0x46a3
	.uleb128 0x1
	.long	0x1501
	.uleb128 0x1
	.long	0x31ca
	.byte	0
	.uleb128 0x19
	.long	.LASF327
	.byte	0x5
	.value	0x5ec
	.long	.LASF328
	.byte	0x2
	.long	0x1df0
	.long	0x1dfb
	.uleb128 0x5
	.long	0x467a
	.uleb128 0x1
	.long	0x14ad
	.byte	0
	.uleb128 0x30
	.long	.LASF329
	.byte	0x7
	.byte	0x99
	.long	.LASF330
	.long	0x14d1
	.byte	0x2
	.long	0x1e13
	.long	0x1e1e
	.uleb128 0x5
	.long	0x467a
	.uleb128 0x1
	.long	0x14d1
	.byte	0
	.uleb128 0x30
	.long	.LASF329
	.byte	0x7
	.byte	0xa5
	.long	.LASF331
	.long	0x14d1
	.byte	0x2
	.long	0x1e36
	.long	0x1e46
	.uleb128 0x5
	.long	0x467a
	.uleb128 0x1
	.long	0x14d1
	.uleb128 0x1
	.long	0x14d1
	.byte	0
	.uleb128 0x6b
	.long	.LASF332
	.byte	0x5
	.value	0x5fe
	.long	.LASF333
	.long	0x1e5a
	.long	0x1e6a
	.uleb128 0x5
	.long	0x467a
	.uleb128 0x1
	.long	0x4697
	.uleb128 0x1
	.long	0xa34
	.byte	0
	.uleb128 0x6b
	.long	.LASF332
	.byte	0x5
	.value	0x609
	.long	.LASF334
	.long	0x1e7e
	.long	0x1e8e
	.uleb128 0x5
	.long	0x467a
	.uleb128 0x1
	.long	0x4697
	.uleb128 0x1
	.long	0x54d
	.byte	0
	.uleb128 0x19
	.long	.LASF335
	.byte	0x7
	.value	0x18a
	.long	.LASF336
	.byte	0x2
	.long	0x1eb2
	.long	0x1ec2
	.uleb128 0x3d
	.long	.LASF337
	.long	0x1eb2
	.uleb128 0x3e
	.long	0x39cf
	.byte	0
	.uleb128 0x5
	.long	0x467a
	.uleb128 0x1
	.long	0x14d1
	.uleb128 0x1
	.long	0x47a1
	.byte	0
	.uleb128 0x24
	.long	.LASF338
	.byte	0x7
	.byte	0x5f
	.long	.LASF339
	.byte	0x1
	.long	0x1ee5
	.long	0x1ef0
	.uleb128 0x3d
	.long	.LASF337
	.long	0x1ee5
	.uleb128 0x3e
	.long	0x39cf
	.byte	0
	.uleb128 0x5
	.long	0x467a
	.uleb128 0x1
	.long	0x47a1
	.byte	0
	.uleb128 0x10
	.string	"_Tp"
	.long	0x39cf
	.uleb128 0x3b
	.long	.LASF175
	.long	0x112b
	.byte	0
	.uleb128 0xc
	.long	0x1466
	.uleb128 0x45
	.long	.LASF341
	.uleb128 0x45
	.long	.LASF342
	.uleb128 0x45
	.long	.LASF343
	.uleb128 0x3a
	.long	.LASF344
	.byte	0x1
	.byte	0xd
	.value	0x660
	.long	0x1f31
	.uleb128 0x2d
	.long	.LASF345
	.byte	0xd
	.value	0x661
	.long	0x39cf
	.byte	0
	.uleb128 0x3a
	.long	.LASF346
	.byte	0x1
	.byte	0xd
	.value	0x65c
	.long	0x1f4b
	.uleb128 0x2d
	.long	.LASF345
	.byte	0xd
	.value	0x65d
	.long	0x39cf
	.byte	0
	.uleb128 0x1d
	.long	.LASF347
	.byte	0x1
	.byte	0x20
	.byte	0xb2
	.long	0x1f82
	.uleb128 0x7
	.long	.LASF348
	.byte	0x20
	.byte	0xb6
	.long	0xa24
	.uleb128 0x7
	.long	.LASF158
	.byte	0x20
	.byte	0xb7
	.long	0x45cd
	.uleb128 0x7
	.long	.LASF219
	.byte	0x20
	.byte	0xb8
	.long	0x4602
	.uleb128 0x6
	.long	.LASF349
	.long	0x45cd
	.byte	0
	.uleb128 0x6c
	.long	.LASF350
	.byte	0x8
	.byte	0x21
	.value	0x3f5
	.long	0x21ad
	.uleb128 0x6d
	.long	.LASF351
	.byte	0x21
	.value	0x3f8
	.long	0x45cd
	.byte	0
	.byte	0x2
	.uleb128 0x38
	.long	.LASF352
	.byte	0x21
	.value	0x3fe
	.long	0x45cd
	.byte	0x1
	.uleb128 0x38
	.long	.LASF348
	.byte	0x21
	.value	0x401
	.long	0x1f57
	.byte	0x1
	.uleb128 0x38
	.long	.LASF158
	.byte	0x21
	.value	0x403
	.long	0x45cd
	.byte	0x1
	.uleb128 0x38
	.long	.LASF219
	.byte	0x21
	.value	0x408
	.long	0x21bf
	.byte	0x1
	.uleb128 0x19
	.long	.LASF353
	.byte	0x21
	.value	0x40b
	.long	.LASF354
	.byte	0x1
	.long	0x1fe6
	.long	0x1fec
	.uleb128 0x5
	.long	0x47a7
	.byte	0
	.uleb128 0x50
	.long	.LASF353
	.byte	0x21
	.value	0x40f
	.long	.LASF355
	.byte	0x1
	.long	0x2001
	.long	0x200c
	.uleb128 0x5
	.long	0x47a7
	.uleb128 0x1
	.long	0x1f9d
	.byte	0
	.uleb128 0xb
	.long	.LASF356
	.byte	0x21
	.value	0x418
	.long	.LASF357
	.long	0x1f9d
	.byte	0x1
	.long	0x2025
	.long	0x202b
	.uleb128 0x5
	.long	0x47b2
	.byte	0
	.uleb128 0xb
	.long	.LASF358
	.byte	0x21
	.value	0x41c
	.long	.LASF359
	.long	0x1fc4
	.byte	0x1
	.long	0x2044
	.long	0x204a
	.uleb128 0x5
	.long	0x47b2
	.byte	0
	.uleb128 0xb
	.long	.LASF360
	.byte	0x21
	.value	0x420
	.long	.LASF361
	.long	0x1fb7
	.byte	0x1
	.long	0x2063
	.long	0x2069
	.uleb128 0x5
	.long	0x47b2
	.byte	0
	.uleb128 0xb
	.long	.LASF362
	.byte	0x21
	.value	0x424
	.long	.LASF363
	.long	0x47bd
	.byte	0x1
	.long	0x2082
	.long	0x2088
	.uleb128 0x5
	.long	0x47a7
	.byte	0
	.uleb128 0xb
	.long	.LASF362
	.byte	0x21
	.value	0x42b
	.long	.LASF364
	.long	0x1f82
	.byte	0x1
	.long	0x20a1
	.long	0x20ac
	.uleb128 0x5
	.long	0x47a7
	.uleb128 0x1
	.long	0x3005
	.byte	0
	.uleb128 0xb
	.long	.LASF365
	.byte	0x21
	.value	0x433
	.long	.LASF366
	.long	0x47bd
	.byte	0x1
	.long	0x20c5
	.long	0x20cb
	.uleb128 0x5
	.long	0x47a7
	.byte	0
	.uleb128 0xb
	.long	.LASF365
	.byte	0x21
	.value	0x43a
	.long	.LASF367
	.long	0x1f82
	.byte	0x1
	.long	0x20e4
	.long	0x20ef
	.uleb128 0x5
	.long	0x47a7
	.uleb128 0x1
	.long	0x3005
	.byte	0
	.uleb128 0xb
	.long	.LASF368
	.byte	0x21
	.value	0x442
	.long	.LASF369
	.long	0x1f82
	.byte	0x1
	.long	0x2108
	.long	0x2113
	.uleb128 0x5
	.long	0x47b2
	.uleb128 0x1
	.long	0x1faa
	.byte	0
	.uleb128 0xb
	.long	.LASF370
	.byte	0x21
	.value	0x446
	.long	.LASF371
	.long	0x47bd
	.byte	0x1
	.long	0x212c
	.long	0x2137
	.uleb128 0x5
	.long	0x47a7
	.uleb128 0x1
	.long	0x1faa
	.byte	0
	.uleb128 0xb
	.long	.LASF372
	.byte	0x21
	.value	0x44d
	.long	.LASF373
	.long	0x1f82
	.byte	0x1
	.long	0x2150
	.long	0x215b
	.uleb128 0x5
	.long	0x47b2
	.uleb128 0x1
	.long	0x1faa
	.byte	0
	.uleb128 0xb
	.long	.LASF374
	.byte	0x21
	.value	0x451
	.long	.LASF375
	.long	0x47bd
	.byte	0x1
	.long	0x2174
	.long	0x217f
	.uleb128 0x5
	.long	0x47a7
	.uleb128 0x1
	.long	0x1faa
	.byte	0
	.uleb128 0xb
	.long	.LASF277
	.byte	0x21
	.value	0x458
	.long	.LASF376
	.long	0x1fc4
	.byte	0x1
	.long	0x2198
	.long	0x21a3
	.uleb128 0x5
	.long	0x47b2
	.uleb128 0x1
	.long	0x1faa
	.byte	0
	.uleb128 0x6
	.long	.LASF349
	.long	0x45cd
	.byte	0
	.uleb128 0xc
	.long	0x1f82
	.uleb128 0x3a
	.long	.LASF377
	.byte	0x1
	.byte	0xd
	.value	0x875
	.long	0x21cc
	.uleb128 0x2d
	.long	.LASF345
	.byte	0xd
	.value	0x876
	.long	0x47a1
	.byte	0
	.uleb128 0x3a
	.long	.LASF378
	.byte	0x1
	.byte	0x8
	.value	0x161
	.long	0x2203
	.uleb128 0x47
	.long	.LASF379
	.byte	0x8
	.value	0x165
	.long	.LASF380
	.long	0x45cd
	.uleb128 0x10
	.string	"_Tp"
	.long	0x39cf
	.uleb128 0x1
	.long	0x45d8
	.uleb128 0x1
	.long	0x45d8
	.uleb128 0x1
	.long	0x45cd
	.byte	0
	.byte	0
	.uleb128 0x11
	.long	.LASF381
	.byte	0x8
	.value	0x177
	.long	.LASF382
	.long	0x45cd
	.long	0x2244
	.uleb128 0x52
	.long	.LASF383
	.long	0x399c
	.byte	0x1
	.byte	0x1
	.uleb128 0x10
	.string	"_II"
	.long	0x45cd
	.uleb128 0x10
	.string	"_OI"
	.long	0x45cd
	.uleb128 0x1
	.long	0x45cd
	.uleb128 0x1
	.long	0x45cd
	.uleb128 0x1
	.long	0x45cd
	.byte	0
	.uleb128 0x11
	.long	.LASF384
	.byte	0x22
	.value	0x198
	.long	.LASF385
	.long	0x45cd
	.long	0x2267
	.uleb128 0x6
	.long	.LASF349
	.long	0x45cd
	.uleb128 0x1
	.long	0x45cd
	.byte	0
	.uleb128 0x11
	.long	.LASF386
	.byte	0x8
	.value	0x1a4
	.long	.LASF387
	.long	0x45cd
	.long	0x22a8
	.uleb128 0x52
	.long	.LASF383
	.long	0x399c
	.byte	0x1
	.byte	0x1
	.uleb128 0x10
	.string	"_II"
	.long	0x45cd
	.uleb128 0x10
	.string	"_OI"
	.long	0x45cd
	.uleb128 0x1
	.long	0x45cd
	.uleb128 0x1
	.long	0x45cd
	.uleb128 0x1
	.long	0x45cd
	.byte	0
	.uleb128 0x11
	.long	.LASF384
	.byte	0x21
	.value	0x4dc
	.long	.LASF388
	.long	0x45cd
	.long	0x22cb
	.uleb128 0x6
	.long	.LASF349
	.long	0x45cd
	.uleb128 0x1
	.long	0x1f82
	.byte	0
	.uleb128 0x11
	.long	.LASF389
	.byte	0x8
	.value	0x1be
	.long	.LASF390
	.long	0x45cd
	.long	0x2301
	.uleb128 0x10
	.string	"_II"
	.long	0x1f82
	.uleb128 0x10
	.string	"_OI"
	.long	0x45cd
	.uleb128 0x1
	.long	0x1f82
	.uleb128 0x1
	.long	0x1f82
	.uleb128 0x1
	.long	0x45cd
	.byte	0
	.uleb128 0x11
	.long	.LASF391
	.byte	0x8
	.value	0x2ed
	.long	.LASF392
	.long	0x2ede
	.long	0x2340
	.uleb128 0x6
	.long	.LASF393
	.long	0x45cd
	.uleb128 0x6
	.long	.LASF155
	.long	0x2f46
	.uleb128 0x10
	.string	"_Tp"
	.long	0x39cf
	.uleb128 0x1
	.long	0x45cd
	.uleb128 0x1
	.long	0x2f46
	.uleb128 0x1
	.long	0x4608
	.byte	0
	.uleb128 0x11
	.long	.LASF394
	.byte	0x8
	.value	0x115
	.long	.LASF395
	.long	0x45cd
	.long	0x2363
	.uleb128 0x6
	.long	.LASF349
	.long	0x45cd
	.uleb128 0x1
	.long	0x45cd
	.byte	0
	.uleb128 0x11
	.long	.LASF396
	.byte	0x8
	.value	0x310
	.long	.LASF397
	.long	0x45cd
	.long	0x23a2
	.uleb128 0x10
	.string	"_OI"
	.long	0x45cd
	.uleb128 0x6
	.long	.LASF155
	.long	0x2f46
	.uleb128 0x10
	.string	"_Tp"
	.long	0x39cf
	.uleb128 0x1
	.long	0x45cd
	.uleb128 0x1
	.long	0x2f46
	.uleb128 0x1
	.long	0x4608
	.byte	0
	.uleb128 0x33
	.long	.LASF398
	.byte	0x1d
	.byte	0x73
	.long	.LASF399
	.long	0x45cd
	.long	0x23d7
	.uleb128 0x6
	.long	.LASF151
	.long	0x1f82
	.uleb128 0x6
	.long	.LASF148
	.long	0x45cd
	.uleb128 0x1
	.long	0x1f82
	.uleb128 0x1
	.long	0x1f82
	.uleb128 0x1
	.long	0x45cd
	.byte	0
	.uleb128 0x11
	.long	.LASF400
	.byte	0x1d
	.value	0x11f
	.long	.LASF401
	.long	0x45cd
	.long	0x241b
	.uleb128 0x6
	.long	.LASF151
	.long	0x1f82
	.uleb128 0x6
	.long	.LASF148
	.long	0x45cd
	.uleb128 0x10
	.string	"_Tp"
	.long	0x39cf
	.uleb128 0x1
	.long	0x1f82
	.uleb128 0x1
	.long	0x1f82
	.uleb128 0x1
	.long	0x45cd
	.uleb128 0x1
	.long	0x45fc
	.byte	0
	.uleb128 0x11
	.long	.LASF402
	.byte	0x21
	.value	0x4c8
	.long	.LASF403
	.long	0x1f82
	.long	0x2447
	.uleb128 0x10
	.string	"_Tp"
	.long	0x39cf
	.uleb128 0x3b
	.long	.LASF404
	.long	0x1f82
	.uleb128 0x1
	.long	0x45cd
	.byte	0
	.uleb128 0x33
	.long	.LASF405
	.byte	0x8
	.byte	0xdb
	.long	.LASF406
	.long	0x4dfa
	.long	0x246e
	.uleb128 0x10
	.string	"_Tp"
	.long	0x2f46
	.uleb128 0x1
	.long	0x4dfa
	.uleb128 0x1
	.long	0x4dfa
	.byte	0
	.uleb128 0x11
	.long	.LASF407
	.byte	0x1d
	.value	0x23e
	.long	.LASF408
	.long	0x45cd
	.long	0x249f
	.uleb128 0x6
	.long	.LASF148
	.long	0x45cd
	.uleb128 0x6
	.long	.LASF155
	.long	0x2f46
	.uleb128 0x1
	.long	0x45cd
	.uleb128 0x1
	.long	0x2f46
	.byte	0
	.uleb128 0x11
	.long	.LASF409
	.byte	0x1d
	.value	0x131
	.long	.LASF410
	.long	0x45cd
	.long	0x24e3
	.uleb128 0x6
	.long	.LASF151
	.long	0x45cd
	.uleb128 0x6
	.long	.LASF148
	.long	0x45cd
	.uleb128 0x6
	.long	.LASF411
	.long	0x112b
	.uleb128 0x1
	.long	0x45cd
	.uleb128 0x1
	.long	0x45cd
	.uleb128 0x1
	.long	0x45cd
	.uleb128 0x1
	.long	0x45fc
	.byte	0
	.uleb128 0x11
	.long	.LASF412
	.byte	0x1d
	.value	0x283
	.long	.LASF413
	.long	0x45cd
	.long	0x2522
	.uleb128 0x6
	.long	.LASF148
	.long	0x45cd
	.uleb128 0x6
	.long	.LASF155
	.long	0x2f46
	.uleb128 0x10
	.string	"_Tp"
	.long	0x39cf
	.uleb128 0x1
	.long	0x45cd
	.uleb128 0x1
	.long	0x2f46
	.uleb128 0x1
	.long	0x45fc
	.byte	0
	.uleb128 0x3f
	.long	.LASF414
	.long	0x25ab
	.uleb128 0x30
	.long	.LASF415
	.byte	0x4
	.byte	0x89
	.long	.LASF416
	.long	0xcc0
	.byte	0x1
	.long	0x2543
	.long	0x2549
	.uleb128 0x5
	.long	0x5162
	.byte	0
	.uleb128 0x24
	.long	.LASF417
	.byte	0x4
	.byte	0x9d
	.long	.LASF418
	.byte	0x1
	.long	0x255d
	.long	0x2568
	.uleb128 0x5
	.long	0x53d6
	.uleb128 0x1
	.long	0xcc0
	.byte	0
	.uleb128 0x25
	.long	.LASF48
	.byte	0x4
	.byte	0x4c
	.long	0x2ff9
	.byte	0x1
	.uleb128 0xb
	.long	.LASF124
	.byte	0x4
	.value	0x1c1
	.long	.LASF419
	.long	0x2568
	.byte	0x1
	.long	0x258d
	.long	0x2598
	.uleb128 0x5
	.long	0x5162
	.uleb128 0x1
	.long	0x2ff9
	.byte	0
	.uleb128 0x6
	.long	.LASF113
	.long	0x2ff9
	.uleb128 0x3b
	.long	.LASF121
	.long	0x5a4
	.byte	0
	.uleb128 0xc
	.long	0x2522
	.uleb128 0x59
	.long	.LASF420
	.byte	0x1c
	.byte	0x7f
	.long	.LASF422
	.long	0x25d3
	.uleb128 0x6
	.long	.LASF148
	.long	0x45cd
	.uleb128 0x1
	.long	0x45cd
	.uleb128 0x1
	.long	0x45cd
	.byte	0
	.uleb128 0x33
	.long	.LASF423
	.byte	0x4
	.byte	0x2f
	.long	.LASF424
	.long	0x5324
	.long	0x25f5
	.uleb128 0x6
	.long	.LASF425
	.long	0xde2
	.uleb128 0x1
	.long	0x532a
	.byte	0
	.uleb128 0x33
	.long	.LASF426
	.byte	0x23
	.byte	0x49
	.long	.LASF427
	.long	0x47a1
	.long	0x2617
	.uleb128 0x10
	.string	"_Tp"
	.long	0x39cf
	.uleb128 0x1
	.long	0x543c
	.byte	0
	.uleb128 0x59
	.long	.LASF428
	.byte	0x1c
	.byte	0xcb
	.long	.LASF429
	.long	0x2648
	.uleb128 0x6
	.long	.LASF148
	.long	0x45cd
	.uleb128 0x10
	.string	"_Tp"
	.long	0x39cf
	.uleb128 0x1
	.long	0x45cd
	.uleb128 0x1
	.long	0x45cd
	.uleb128 0x1
	.long	0x45fc
	.byte	0
	.uleb128 0x11
	.long	.LASF430
	.byte	0x3
	.value	0x264
	.long	.LASF431
	.long	0x459f
	.long	0x2674
	.uleb128 0x6
	.long	.LASF113
	.long	0x2ff9
	.uleb128 0x6
	.long	.LASF121
	.long	0x5a4
	.uleb128 0x1
	.long	0x459f
	.byte	0
	.uleb128 0x11
	.long	.LASF432
	.byte	0x3
	.value	0x22c
	.long	.LASF433
	.long	0x459f
	.long	0x269c
	.uleb128 0x6
	.long	.LASF121
	.long	0x5a4
	.uleb128 0x1
	.long	0x459f
	.uleb128 0x1
	.long	0x31ca
	.byte	0
	.uleb128 0x33
	.long	.LASF434
	.byte	0x23
	.byte	0x62
	.long	.LASF435
	.long	0x5d05
	.long	0x26be
	.uleb128 0x10
	.string	"_Tp"
	.long	0x4602
	.uleb128 0x1
	.long	0x4602
	.byte	0
	.uleb128 0x11
	.long	.LASF436
	.byte	0x3
	.value	0x24e
	.long	.LASF437
	.long	0x459f
	.long	0x26ea
	.uleb128 0x6
	.long	.LASF113
	.long	0x2ff9
	.uleb128 0x6
	.long	.LASF121
	.long	0x5a4
	.uleb128 0x1
	.long	0x459f
	.byte	0
	.uleb128 0x33
	.long	.LASF438
	.byte	0x18
	.byte	0xa9
	.long	.LASF439
	.long	0xc0f
	.long	0x2708
	.uleb128 0x1
	.long	0xc0f
	.uleb128 0x1
	.long	0xc0f
	.byte	0
	.uleb128 0x3c
	.long	.LASF440
	.long	.LASF441
	.byte	0x24
	.byte	0x48
	.long	.LASF440
	.uleb128 0x3c
	.long	.LASF442
	.long	.LASF443
	.byte	0x25
	.byte	0x4c
	.long	.LASF442
	.uleb128 0x3c
	.long	.LASF444
	.long	.LASF445
	.byte	0x24
	.byte	0x38
	.long	.LASF444
	.byte	0
	.uleb128 0x57
	.long	.LASF446
	.byte	0xe
	.byte	0xff
	.long	0x2f18
	.uleb128 0x4d
	.long	.LASF39
	.byte	0xe
	.value	0x101
	.uleb128 0x58
	.byte	0xe
	.value	0x101
	.long	0x2741
	.uleb128 0x4
	.byte	0xa
	.byte	0xf8
	.long	0x3909
	.uleb128 0x32
	.byte	0xa
	.value	0x101
	.long	0x3924
	.uleb128 0x32
	.byte	0xa
	.value	0x102
	.long	0x394b
	.uleb128 0x55
	.long	.LASF447
	.byte	0x26
	.byte	0x23
	.uleb128 0x4
	.byte	0x6
	.byte	0x2c
	.long	0x772
	.uleb128 0x4
	.byte	0x6
	.byte	0x2d
	.long	0xa24
	.uleb128 0x1d
	.long	.LASF448
	.byte	0x1
	.byte	0x27
	.byte	0x37
	.long	0x27bf
	.uleb128 0x16
	.long	.LASF449
	.byte	0x27
	.byte	0x3a
	.long	0x300d
	.uleb128 0x16
	.long	.LASF450
	.byte	0x27
	.byte	0x3b
	.long	0x300d
	.uleb128 0x16
	.long	.LASF451
	.byte	0x27
	.byte	0x3f
	.long	0x39a3
	.uleb128 0x16
	.long	.LASF452
	.byte	0x27
	.byte	0x40
	.long	0x300d
	.uleb128 0x6
	.long	.LASF453
	.long	0x3005
	.byte	0
	.uleb128 0x4
	.byte	0x14
	.byte	0xc8
	.long	0x3e5b
	.uleb128 0x4
	.byte	0x14
	.byte	0xd8
	.long	0x40d4
	.uleb128 0x4
	.byte	0x14
	.byte	0xe3
	.long	0x40ef
	.uleb128 0x4
	.byte	0x14
	.byte	0xe4
	.long	0x4105
	.uleb128 0x4
	.byte	0x14
	.byte	0xe5
	.long	0x4124
	.uleb128 0x4
	.byte	0x14
	.byte	0xe7
	.long	0x4143
	.uleb128 0x4
	.byte	0x14
	.byte	0xe8
	.long	0x415d
	.uleb128 0x8c
	.string	"div"
	.byte	0x14
	.byte	0xd5
	.long	.LASF914
	.long	0x3e5b
	.long	0x280f
	.uleb128 0x1
	.long	0x3944
	.uleb128 0x1
	.long	0x3944
	.byte	0
	.uleb128 0x1d
	.long	.LASF454
	.byte	0x1
	.byte	0x27
	.byte	0x64
	.long	0x2851
	.uleb128 0x16
	.long	.LASF455
	.byte	0x27
	.byte	0x67
	.long	0x300d
	.uleb128 0x16
	.long	.LASF451
	.byte	0x27
	.byte	0x6a
	.long	0x39a3
	.uleb128 0x16
	.long	.LASF456
	.byte	0x27
	.byte	0x6b
	.long	0x300d
	.uleb128 0x16
	.long	.LASF457
	.byte	0x27
	.byte	0x6c
	.long	0x300d
	.uleb128 0x6
	.long	.LASF453
	.long	0x2f26
	.byte	0
	.uleb128 0x1d
	.long	.LASF458
	.byte	0x1
	.byte	0x27
	.byte	0x64
	.long	0x2893
	.uleb128 0x16
	.long	.LASF455
	.byte	0x27
	.byte	0x67
	.long	0x300d
	.uleb128 0x16
	.long	.LASF451
	.byte	0x27
	.byte	0x6a
	.long	0x39a3
	.uleb128 0x16
	.long	.LASF456
	.byte	0x27
	.byte	0x6b
	.long	0x300d
	.uleb128 0x16
	.long	.LASF457
	.byte	0x27
	.byte	0x6c
	.long	0x300d
	.uleb128 0x6
	.long	.LASF453
	.long	0x2f2d
	.byte	0
	.uleb128 0x1d
	.long	.LASF459
	.byte	0x1
	.byte	0x27
	.byte	0x64
	.long	0x28d5
	.uleb128 0x16
	.long	.LASF455
	.byte	0x27
	.byte	0x67
	.long	0x300d
	.uleb128 0x16
	.long	.LASF451
	.byte	0x27
	.byte	0x6a
	.long	0x39a3
	.uleb128 0x16
	.long	.LASF456
	.byte	0x27
	.byte	0x6b
	.long	0x300d
	.uleb128 0x16
	.long	.LASF457
	.byte	0x27
	.byte	0x6c
	.long	0x300d
	.uleb128 0x6
	.long	.LASF453
	.long	0x2f34
	.byte	0
	.uleb128 0x1d
	.long	.LASF460
	.byte	0x1
	.byte	0x27
	.byte	0x37
	.long	0x2917
	.uleb128 0x16
	.long	.LASF449
	.byte	0x27
	.byte	0x3a
	.long	0x2f4d
	.uleb128 0x16
	.long	.LASF450
	.byte	0x27
	.byte	0x3b
	.long	0x2f4d
	.uleb128 0x16
	.long	.LASF451
	.byte	0x27
	.byte	0x3f
	.long	0x39a3
	.uleb128 0x16
	.long	.LASF452
	.byte	0x27
	.byte	0x40
	.long	0x300d
	.uleb128 0x6
	.long	.LASF453
	.long	0x2f46
	.byte	0
	.uleb128 0x1d
	.long	.LASF461
	.byte	0x1
	.byte	0x27
	.byte	0x37
	.long	0x2959
	.uleb128 0x16
	.long	.LASF449
	.byte	0x27
	.byte	0x3a
	.long	0x3000
	.uleb128 0x16
	.long	.LASF450
	.byte	0x27
	.byte	0x3b
	.long	0x3000
	.uleb128 0x16
	.long	.LASF451
	.byte	0x27
	.byte	0x3f
	.long	0x39a3
	.uleb128 0x16
	.long	.LASF452
	.byte	0x27
	.byte	0x40
	.long	0x300d
	.uleb128 0x6
	.long	.LASF453
	.long	0x2ff9
	.byte	0
	.uleb128 0x1d
	.long	.LASF462
	.byte	0x1
	.byte	0x27
	.byte	0x37
	.long	0x299b
	.uleb128 0x16
	.long	.LASF449
	.byte	0x27
	.byte	0x3a
	.long	0x39d6
	.uleb128 0x16
	.long	.LASF450
	.byte	0x27
	.byte	0x3b
	.long	0x39d6
	.uleb128 0x16
	.long	.LASF451
	.byte	0x27
	.byte	0x3f
	.long	0x39a3
	.uleb128 0x16
	.long	.LASF452
	.byte	0x27
	.byte	0x40
	.long	0x300d
	.uleb128 0x6
	.long	.LASF453
	.long	0x39cf
	.byte	0
	.uleb128 0x1d
	.long	.LASF463
	.byte	0x1
	.byte	0x27
	.byte	0x37
	.long	0x29dd
	.uleb128 0x16
	.long	.LASF449
	.byte	0x27
	.byte	0x3a
	.long	0x3769
	.uleb128 0x16
	.long	.LASF450
	.byte	0x27
	.byte	0x3b
	.long	0x3769
	.uleb128 0x16
	.long	.LASF451
	.byte	0x27
	.byte	0x3f
	.long	0x39a3
	.uleb128 0x16
	.long	.LASF452
	.byte	0x27
	.byte	0x40
	.long	0x300d
	.uleb128 0x6
	.long	.LASF453
	.long	0x3762
	.byte	0
	.uleb128 0x1d
	.long	.LASF464
	.byte	0x1
	.byte	0x28
	.byte	0x32
	.long	0x2ade
	.uleb128 0x4
	.byte	0x28
	.byte	0x32
	.long	0x1041
	.uleb128 0x4
	.byte	0x28
	.byte	0x32
	.long	0x1065
	.uleb128 0x4
	.byte	0x28
	.byte	0x32
	.long	0x1085
	.uleb128 0x69
	.long	0xfd4
	.byte	0
	.uleb128 0x7
	.long	.LASF28
	.byte	0x28
	.byte	0x3a
	.long	0xff2
	.uleb128 0xc
	.long	0x2a04
	.uleb128 0x7
	.long	.LASF158
	.byte	0x28
	.byte	0x3b
	.long	0xffe
	.uleb128 0x7
	.long	.LASF219
	.byte	0x28
	.byte	0x40
	.long	0x45ea
	.uleb128 0x7
	.long	.LASF220
	.byte	0x28
	.byte	0x41
	.long	0x45f0
	.uleb128 0x33
	.long	.LASF465
	.byte	0x28
	.byte	0x5e
	.long	.LASF466
	.long	0x112b
	.long	0x2a4e
	.uleb128 0x1
	.long	0x45f6
	.byte	0
	.uleb128 0x59
	.long	.LASF467
	.byte	0x28
	.byte	0x61
	.long	.LASF468
	.long	0x2a68
	.uleb128 0x1
	.long	0x45fc
	.uleb128 0x1
	.long	0x45fc
	.byte	0
	.uleb128 0x48
	.long	.LASF469
	.byte	0x28
	.byte	0x64
	.long	.LASF471
	.long	0x399c
	.uleb128 0x48
	.long	.LASF470
	.byte	0x28
	.byte	0x67
	.long	.LASF472
	.long	0x399c
	.uleb128 0x48
	.long	.LASF473
	.byte	0x28
	.byte	0x6a
	.long	.LASF474
	.long	0x399c
	.uleb128 0x48
	.long	.LASF475
	.byte	0x28
	.byte	0x6d
	.long	.LASF476
	.long	0x399c
	.uleb128 0x48
	.long	.LASF477
	.byte	0x28
	.byte	0x70
	.long	.LASF478
	.long	0x399c
	.uleb128 0x1d
	.long	.LASF479
	.byte	0x1
	.byte	0x28
	.byte	0x74
	.long	0x2ad4
	.uleb128 0x7
	.long	.LASF480
	.byte	0x28
	.byte	0x75
	.long	0x10b9
	.uleb128 0x10
	.string	"_Tp"
	.long	0x39cf
	.byte	0
	.uleb128 0x6
	.long	.LASF175
	.long	0x112b
	.byte	0
	.uleb128 0x4c
	.long	.LASF481
	.byte	0x1
	.byte	0x6
	.byte	0x3a
	.long	0x2c9c
	.uleb128 0x25
	.long	.LASF160
	.byte	0x6
	.byte	0x3d
	.long	0x772
	.byte	0x1
	.uleb128 0x25
	.long	.LASF158
	.byte	0x6
	.byte	0x3f
	.long	0x45cd
	.byte	0x1
	.uleb128 0x25
	.long	.LASF482
	.byte	0x6
	.byte	0x40
	.long	0x45d8
	.byte	0x1
	.uleb128 0x25
	.long	.LASF219
	.byte	0x6
	.byte	0x41
	.long	0x4602
	.byte	0x1
	.uleb128 0x25
	.long	.LASF220
	.byte	0x6
	.byte	0x42
	.long	0x4608
	.byte	0x1
	.uleb128 0x24
	.long	.LASF483
	.byte	0x6
	.byte	0x4f
	.long	.LASF484
	.byte	0x1
	.long	0x2b3a
	.long	0x2b40
	.uleb128 0x5
	.long	0x460e
	.byte	0
	.uleb128 0x24
	.long	.LASF483
	.byte	0x6
	.byte	0x51
	.long	.LASF485
	.byte	0x1
	.long	0x2b54
	.long	0x2b5f
	.uleb128 0x5
	.long	0x460e
	.uleb128 0x1
	.long	0x4619
	.byte	0
	.uleb128 0x24
	.long	.LASF486
	.byte	0x6
	.byte	0x56
	.long	.LASF487
	.byte	0x1
	.long	0x2b73
	.long	0x2b7e
	.uleb128 0x5
	.long	0x460e
	.uleb128 0x5
	.long	0x3005
	.byte	0
	.uleb128 0x30
	.long	.LASF488
	.byte	0x6
	.byte	0x59
	.long	.LASF489
	.long	0x2af6
	.byte	0x1
	.long	0x2b96
	.long	0x2ba1
	.uleb128 0x5
	.long	0x461f
	.uleb128 0x1
	.long	0x2b0e
	.byte	0
	.uleb128 0x30
	.long	.LASF488
	.byte	0x6
	.byte	0x5d
	.long	.LASF490
	.long	0x2b02
	.byte	0x1
	.long	0x2bb9
	.long	0x2bc4
	.uleb128 0x5
	.long	0x461f
	.uleb128 0x1
	.long	0x2b1a
	.byte	0
	.uleb128 0x30
	.long	.LASF161
	.byte	0x6
	.byte	0x63
	.long	.LASF491
	.long	0x2af6
	.byte	0x1
	.long	0x2bdc
	.long	0x2bec
	.uleb128 0x5
	.long	0x460e
	.uleb128 0x1
	.long	0x2aea
	.uleb128 0x1
	.long	0x3dce
	.byte	0
	.uleb128 0x24
	.long	.LASF164
	.byte	0x6
	.byte	0x74
	.long	.LASF492
	.byte	0x1
	.long	0x2c00
	.long	0x2c10
	.uleb128 0x5
	.long	0x460e
	.uleb128 0x1
	.long	0x2af6
	.uleb128 0x1
	.long	0x2aea
	.byte	0
	.uleb128 0x30
	.long	.LASF166
	.byte	0x6
	.byte	0x81
	.long	.LASF493
	.long	0x2aea
	.byte	0x1
	.long	0x2c28
	.long	0x2c2e
	.uleb128 0x5
	.long	0x461f
	.byte	0
	.uleb128 0x24
	.long	.LASF171
	.byte	0x6
	.byte	0x8c
	.long	.LASF494
	.byte	0x1
	.long	0x2c4b
	.long	0x2c56
	.uleb128 0x10
	.string	"_Up"
	.long	0x39cf
	.uleb128 0x5
	.long	0x460e
	.uleb128 0x1
	.long	0x45cd
	.byte	0
	.uleb128 0x24
	.long	.LASF173
	.byte	0x6
	.byte	0x87
	.long	.LASF495
	.byte	0x1
	.long	0x2c82
	.long	0x2c92
	.uleb128 0x10
	.string	"_Up"
	.long	0x39cf
	.uleb128 0x3d
	.long	.LASF337
	.long	0x2c82
	.uleb128 0x3e
	.long	0x39cf
	.byte	0
	.uleb128 0x5
	.long	0x460e
	.uleb128 0x1
	.long	0x45cd
	.uleb128 0x1
	.long	0x47a1
	.byte	0
	.uleb128 0x10
	.string	"_Tp"
	.long	0x39cf
	.byte	0
	.uleb128 0xc
	.long	0x2ade
	.uleb128 0x6c
	.long	.LASF496
	.byte	0x8
	.byte	0x21
	.value	0x2fb
	.long	0x2ec8
	.uleb128 0x6d
	.long	.LASF351
	.byte	0x21
	.value	0x2fe
	.long	0x45cd
	.byte	0
	.byte	0x2
	.uleb128 0x38
	.long	.LASF348
	.byte	0x21
	.value	0x306
	.long	0x1f57
	.byte	0x1
	.uleb128 0x38
	.long	.LASF219
	.byte	0x21
	.value	0x307
	.long	0x1f6d
	.byte	0x1
	.uleb128 0x38
	.long	.LASF158
	.byte	0x21
	.value	0x308
	.long	0x1f62
	.byte	0x1
	.uleb128 0x19
	.long	.LASF497
	.byte	0x21
	.value	0x30a
	.long	.LASF498
	.byte	0x1
	.long	0x2cf8
	.long	0x2cfe
	.uleb128 0x5
	.long	0x477f
	.byte	0
	.uleb128 0x50
	.long	.LASF497
	.byte	0x21
	.value	0x30e
	.long	.LASF499
	.byte	0x1
	.long	0x2d13
	.long	0x2d1e
	.uleb128 0x5
	.long	0x477f
	.uleb128 0x1
	.long	0x478a
	.byte	0
	.uleb128 0xb
	.long	.LASF358
	.byte	0x21
	.value	0x31b
	.long	.LASF500
	.long	0x2cc9
	.byte	0x1
	.long	0x2d37
	.long	0x2d3d
	.uleb128 0x5
	.long	0x4790
	.byte	0
	.uleb128 0xb
	.long	.LASF360
	.byte	0x21
	.value	0x31f
	.long	.LASF501
	.long	0x2cd6
	.byte	0x1
	.long	0x2d56
	.long	0x2d5c
	.uleb128 0x5
	.long	0x4790
	.byte	0
	.uleb128 0xb
	.long	.LASF362
	.byte	0x21
	.value	0x323
	.long	.LASF502
	.long	0x479b
	.byte	0x1
	.long	0x2d75
	.long	0x2d7b
	.uleb128 0x5
	.long	0x477f
	.byte	0
	.uleb128 0xb
	.long	.LASF362
	.byte	0x21
	.value	0x32a
	.long	.LASF503
	.long	0x2ca1
	.byte	0x1
	.long	0x2d94
	.long	0x2d9f
	.uleb128 0x5
	.long	0x477f
	.uleb128 0x1
	.long	0x3005
	.byte	0
	.uleb128 0xb
	.long	.LASF365
	.byte	0x21
	.value	0x32f
	.long	.LASF504
	.long	0x479b
	.byte	0x1
	.long	0x2db8
	.long	0x2dbe
	.uleb128 0x5
	.long	0x477f
	.byte	0
	.uleb128 0xb
	.long	.LASF365
	.byte	0x21
	.value	0x336
	.long	.LASF505
	.long	0x2ca1
	.byte	0x1
	.long	0x2dd7
	.long	0x2de2
	.uleb128 0x5
	.long	0x477f
	.uleb128 0x1
	.long	0x3005
	.byte	0
	.uleb128 0xb
	.long	.LASF277
	.byte	0x21
	.value	0x33b
	.long	.LASF506
	.long	0x2cc9
	.byte	0x1
	.long	0x2dfb
	.long	0x2e06
	.uleb128 0x5
	.long	0x4790
	.uleb128 0x1
	.long	0x2cbc
	.byte	0
	.uleb128 0xb
	.long	.LASF370
	.byte	0x21
	.value	0x33f
	.long	.LASF507
	.long	0x479b
	.byte	0x1
	.long	0x2e1f
	.long	0x2e2a
	.uleb128 0x5
	.long	0x477f
	.uleb128 0x1
	.long	0x2cbc
	.byte	0
	.uleb128 0xb
	.long	.LASF368
	.byte	0x21
	.value	0x343
	.long	.LASF508
	.long	0x2ca1
	.byte	0x1
	.long	0x2e43
	.long	0x2e4e
	.uleb128 0x5
	.long	0x4790
	.uleb128 0x1
	.long	0x2cbc
	.byte	0
	.uleb128 0xb
	.long	.LASF374
	.byte	0x21
	.value	0x347
	.long	.LASF509
	.long	0x479b
	.byte	0x1
	.long	0x2e67
	.long	0x2e72
	.uleb128 0x5
	.long	0x477f
	.uleb128 0x1
	.long	0x2cbc
	.byte	0
	.uleb128 0xb
	.long	.LASF372
	.byte	0x21
	.value	0x34b
	.long	.LASF510
	.long	0x2ca1
	.byte	0x1
	.long	0x2e8b
	.long	0x2e96
	.uleb128 0x5
	.long	0x4790
	.uleb128 0x1
	.long	0x2cbc
	.byte	0
	.uleb128 0xb
	.long	.LASF356
	.byte	0x21
	.value	0x34f
	.long	.LASF511
	.long	0x478a
	.byte	0x1
	.long	0x2eaf
	.long	0x2eb5
	.uleb128 0x5
	.long	0x4790
	.byte	0
	.uleb128 0x6
	.long	.LASF349
	.long	0x45cd
	.uleb128 0x6
	.long	.LASF512
	.long	0x1466
	.byte	0
	.uleb128 0xc
	.long	0x2ca1
	.uleb128 0x45
	.long	.LASF513
	.uleb128 0x1d
	.long	.LASF514
	.byte	0x1
	.byte	0x29
	.byte	0x31
	.long	0x2eea
	.uleb128 0x7
	.long	.LASF515
	.byte	0x29
	.byte	0x32
	.long	0x45cd
	.byte	0
	.uleb128 0x47
	.long	.LASF516
	.byte	0x21
	.value	0x3c5
	.long	.LASF517
	.long	0x2cbc
	.uleb128 0x6
	.long	.LASF349
	.long	0x45cd
	.uleb128 0x6
	.long	.LASF512
	.long	0x1466
	.uleb128 0x1
	.long	0x4ecf
	.uleb128 0x1
	.long	0x4ecf
	.byte	0
	.byte	0
	.uleb128 0x23
	.byte	0x20
	.byte	0x3
	.long	.LASF518
	.uleb128 0x23
	.byte	0x10
	.byte	0x4
	.long	.LASF519
	.uleb128 0x23
	.byte	0x4
	.byte	0x4
	.long	.LASF520
	.uleb128 0x23
	.byte	0x8
	.byte	0x4
	.long	.LASF521
	.uleb128 0x23
	.byte	0x10
	.byte	0x4
	.long	.LASF522
	.uleb128 0x7
	.long	.LASF73
	.byte	0x2a
	.byte	0xd8
	.long	0x2f46
	.uleb128 0x23
	.byte	0x8
	.byte	0x7
	.long	.LASF523
	.uleb128 0xc
	.long	0x2f46
	.uleb128 0x1d
	.long	.LASF524
	.byte	0x18
	.byte	0x2b
	.byte	0
	.long	0x2f8f
	.uleb128 0x8
	.long	.LASF525
	.byte	0x2b
	.byte	0
	.long	0x2f8f
	.byte	0
	.uleb128 0x8
	.long	.LASF526
	.byte	0x2b
	.byte	0
	.long	0x2f8f
	.byte	0x4
	.uleb128 0x8
	.long	.LASF527
	.byte	0x2b
	.byte	0
	.long	0x2f96
	.byte	0x8
	.uleb128 0x8
	.long	.LASF528
	.byte	0x2b
	.byte	0
	.long	0x2f96
	.byte	0x10
	.byte	0
	.uleb128 0x23
	.byte	0x4
	.byte	0x7
	.long	.LASF529
	.uleb128 0x8d
	.byte	0x8
	.uleb128 0x7
	.long	.LASF530
	.byte	0x2c
	.byte	0x14
	.long	0x2f8f
	.uleb128 0x49
	.byte	0x8
	.byte	0x2d
	.byte	0xe
	.long	.LASF729
	.long	0x2fe9
	.uleb128 0x8e
	.byte	0x4
	.byte	0x2d
	.byte	0x11
	.long	0x2fd0
	.uleb128 0x6e
	.long	.LASF531
	.byte	0x2d
	.byte	0x12
	.long	0x2f8f
	.uleb128 0x6e
	.long	.LASF532
	.byte	0x2d
	.byte	0x13
	.long	0x2fe9
	.byte	0
	.uleb128 0x8
	.long	.LASF533
	.byte	0x2d
	.byte	0xf
	.long	0x3005
	.byte	0
	.uleb128 0x8
	.long	.LASF534
	.byte	0x2d
	.byte	0x14
	.long	0x2fb0
	.byte	0x4
	.byte	0
	.uleb128 0x41
	.long	0x2ff9
	.long	0x2ff9
	.uleb128 0x4a
	.long	0x2f46
	.byte	0x3
	.byte	0
	.uleb128 0x23
	.byte	0x1
	.byte	0x6
	.long	.LASF535
	.uleb128 0xc
	.long	0x2ff9
	.uleb128 0x8f
	.byte	0x4
	.byte	0x5
	.string	"int"
	.uleb128 0xc
	.long	0x3005
	.uleb128 0x7
	.long	.LASF536
	.byte	0x2d
	.byte	0x15
	.long	0x2fa4
	.uleb128 0x7
	.long	.LASF537
	.byte	0x2e
	.byte	0x6
	.long	0x3012
	.uleb128 0xc
	.long	0x301d
	.uleb128 0x7
	.long	.LASF538
	.byte	0x2f
	.byte	0x5
	.long	0x3038
	.uleb128 0x1d
	.long	.LASF539
	.byte	0xd8
	.byte	0x30
	.byte	0xf5
	.long	0x31b8
	.uleb128 0x8
	.long	.LASF540
	.byte	0x30
	.byte	0xf6
	.long	0x3005
	.byte	0
	.uleb128 0x8
	.long	.LASF541
	.byte	0x30
	.byte	0xfb
	.long	0x34e6
	.byte	0x8
	.uleb128 0x8
	.long	.LASF542
	.byte	0x30
	.byte	0xfc
	.long	0x34e6
	.byte	0x10
	.uleb128 0x8
	.long	.LASF543
	.byte	0x30
	.byte	0xfd
	.long	0x34e6
	.byte	0x18
	.uleb128 0x8
	.long	.LASF544
	.byte	0x30
	.byte	0xfe
	.long	0x34e6
	.byte	0x20
	.uleb128 0x8
	.long	.LASF545
	.byte	0x30
	.byte	0xff
	.long	0x34e6
	.byte	0x28
	.uleb128 0x1e
	.long	.LASF546
	.byte	0x30
	.value	0x100
	.long	0x34e6
	.byte	0x30
	.uleb128 0x1e
	.long	.LASF547
	.byte	0x30
	.value	0x101
	.long	0x34e6
	.byte	0x38
	.uleb128 0x1e
	.long	.LASF548
	.byte	0x30
	.value	0x102
	.long	0x34e6
	.byte	0x40
	.uleb128 0x1e
	.long	.LASF549
	.byte	0x30
	.value	0x104
	.long	0x34e6
	.byte	0x48
	.uleb128 0x1e
	.long	.LASF550
	.byte	0x30
	.value	0x105
	.long	0x34e6
	.byte	0x50
	.uleb128 0x1e
	.long	.LASF551
	.byte	0x30
	.value	0x106
	.long	0x34e6
	.byte	0x58
	.uleb128 0x1e
	.long	.LASF552
	.byte	0x30
	.value	0x108
	.long	0x41e0
	.byte	0x60
	.uleb128 0x1e
	.long	.LASF553
	.byte	0x30
	.value	0x10a
	.long	0x41e6
	.byte	0x68
	.uleb128 0x1e
	.long	.LASF554
	.byte	0x30
	.value	0x10c
	.long	0x3005
	.byte	0x70
	.uleb128 0x1e
	.long	.LASF555
	.byte	0x30
	.value	0x110
	.long	0x3005
	.byte	0x74
	.uleb128 0x1e
	.long	.LASF556
	.byte	0x30
	.value	0x112
	.long	0x3ab0
	.byte	0x78
	.uleb128 0x1e
	.long	.LASF557
	.byte	0x30
	.value	0x116
	.long	0x31c3
	.byte	0x80
	.uleb128 0x1e
	.long	.LASF558
	.byte	0x30
	.value	0x117
	.long	0x39c8
	.byte	0x82
	.uleb128 0x1e
	.long	.LASF559
	.byte	0x30
	.value	0x118
	.long	0x41ec
	.byte	0x83
	.uleb128 0x1e
	.long	.LASF560
	.byte	0x30
	.value	0x11c
	.long	0x41fc
	.byte	0x88
	.uleb128 0x1e
	.long	.LASF561
	.byte	0x30
	.value	0x125
	.long	0x3abb
	.byte	0x90
	.uleb128 0x1e
	.long	.LASF562
	.byte	0x30
	.value	0x12d
	.long	0x2f96
	.byte	0x98
	.uleb128 0x1e
	.long	.LASF563
	.byte	0x30
	.value	0x12e
	.long	0x2f96
	.byte	0xa0
	.uleb128 0x1e
	.long	.LASF564
	.byte	0x30
	.value	0x12f
	.long	0x2f96
	.byte	0xa8
	.uleb128 0x1e
	.long	.LASF565
	.byte	0x30
	.value	0x130
	.long	0x2f96
	.byte	0xb0
	.uleb128 0x1e
	.long	.LASF566
	.byte	0x30
	.value	0x132
	.long	0x2f3b
	.byte	0xb8
	.uleb128 0x1e
	.long	.LASF567
	.byte	0x30
	.value	0x133
	.long	0x3005
	.byte	0xc0
	.uleb128 0x1e
	.long	.LASF568
	.byte	0x30
	.value	0x135
	.long	0x4202
	.byte	0xc4
	.byte	0
	.uleb128 0x7
	.long	.LASF569
	.byte	0x31
	.byte	0x7
	.long	0x3038
	.uleb128 0x23
	.byte	0x2
	.byte	0x7
	.long	.LASF570
	.uleb128 0xd
	.byte	0x8
	.long	0x3000
	.uleb128 0xc
	.long	0x31ca
	.uleb128 0xa
	.long	.LASF571
	.byte	0x32
	.value	0x13e
	.long	0x2f99
	.long	0x31eb
	.uleb128 0x1
	.long	0x3005
	.byte	0
	.uleb128 0xa
	.long	.LASF572
	.byte	0x32
	.value	0x2d7
	.long	0x2f99
	.long	0x3201
	.uleb128 0x1
	.long	0x3201
	.byte	0
	.uleb128 0xd
	.byte	0x8
	.long	0x302d
	.uleb128 0xa
	.long	.LASF573
	.byte	0x33
	.value	0x180
	.long	0x3227
	.long	0x3227
	.uleb128 0x1
	.long	0x3227
	.uleb128 0x1
	.long	0x3005
	.uleb128 0x1
	.long	0x3201
	.byte	0
	.uleb128 0xd
	.byte	0x8
	.long	0x322d
	.uleb128 0x23
	.byte	0x4
	.byte	0x5
	.long	.LASF574
	.uleb128 0xc
	.long	0x322d
	.uleb128 0xa
	.long	.LASF575
	.byte	0x32
	.value	0x2e5
	.long	0x2f99
	.long	0x3254
	.uleb128 0x1
	.long	0x322d
	.uleb128 0x1
	.long	0x3201
	.byte	0
	.uleb128 0xa
	.long	.LASF576
	.byte	0x32
	.value	0x2fb
	.long	0x3005
	.long	0x326f
	.uleb128 0x1
	.long	0x326f
	.uleb128 0x1
	.long	0x3201
	.byte	0
	.uleb128 0xd
	.byte	0x8
	.long	0x3234
	.uleb128 0xa
	.long	.LASF577
	.byte	0x32
	.value	0x23d
	.long	0x3005
	.long	0x3290
	.uleb128 0x1
	.long	0x3201
	.uleb128 0x1
	.long	0x3005
	.byte	0
	.uleb128 0xa
	.long	.LASF578
	.byte	0x33
	.value	0x159
	.long	0x3005
	.long	0x32ac
	.uleb128 0x1
	.long	0x3201
	.uleb128 0x1
	.long	0x326f
	.uleb128 0x42
	.byte	0
	.uleb128 0xa
	.long	.LASF579
	.byte	0x32
	.value	0x26d
	.long	0x3005
	.long	0x32c8
	.uleb128 0x1
	.long	0x3201
	.uleb128 0x1
	.long	0x326f
	.uleb128 0x42
	.byte	0
	.uleb128 0xa
	.long	.LASF580
	.byte	0x32
	.value	0x2d8
	.long	0x2f99
	.long	0x32de
	.uleb128 0x1
	.long	0x3201
	.byte	0
	.uleb128 0x6f
	.long	.LASF719
	.byte	0x32
	.value	0x2de
	.long	0x2f99
	.uleb128 0xa
	.long	.LASF581
	.byte	0x32
	.value	0x149
	.long	0x2f3b
	.long	0x330a
	.uleb128 0x1
	.long	0x31ca
	.uleb128 0x1
	.long	0x2f3b
	.uleb128 0x1
	.long	0x330a
	.byte	0
	.uleb128 0xd
	.byte	0x8
	.long	0x301d
	.uleb128 0xa
	.long	.LASF582
	.byte	0x32
	.value	0x128
	.long	0x2f3b
	.long	0x3335
	.uleb128 0x1
	.long	0x3227
	.uleb128 0x1
	.long	0x31ca
	.uleb128 0x1
	.long	0x2f3b
	.uleb128 0x1
	.long	0x330a
	.byte	0
	.uleb128 0xa
	.long	.LASF583
	.byte	0x32
	.value	0x124
	.long	0x3005
	.long	0x334b
	.uleb128 0x1
	.long	0x334b
	.byte	0
	.uleb128 0xd
	.byte	0x8
	.long	0x3028
	.uleb128 0xa
	.long	.LASF584
	.byte	0x33
	.value	0x1da
	.long	0x2f3b
	.long	0x3376
	.uleb128 0x1
	.long	0x3227
	.uleb128 0x1
	.long	0x3376
	.uleb128 0x1
	.long	0x2f3b
	.uleb128 0x1
	.long	0x330a
	.byte	0
	.uleb128 0xd
	.byte	0x8
	.long	0x31ca
	.uleb128 0xa
	.long	.LASF585
	.byte	0x32
	.value	0x2e6
	.long	0x2f99
	.long	0x3397
	.uleb128 0x1
	.long	0x322d
	.uleb128 0x1
	.long	0x3201
	.byte	0
	.uleb128 0xa
	.long	.LASF586
	.byte	0x32
	.value	0x2ec
	.long	0x2f99
	.long	0x33ad
	.uleb128 0x1
	.long	0x322d
	.byte	0
	.uleb128 0xa
	.long	.LASF587
	.byte	0x33
	.value	0x11d
	.long	0x3005
	.long	0x33ce
	.uleb128 0x1
	.long	0x3227
	.uleb128 0x1
	.long	0x2f3b
	.uleb128 0x1
	.long	0x326f
	.uleb128 0x42
	.byte	0
	.uleb128 0xa
	.long	.LASF588
	.byte	0x32
	.value	0x277
	.long	0x3005
	.long	0x33ea
	.uleb128 0x1
	.long	0x326f
	.uleb128 0x1
	.long	0x326f
	.uleb128 0x42
	.byte	0
	.uleb128 0xa
	.long	.LASF589
	.byte	0x32
	.value	0x303
	.long	0x2f99
	.long	0x3405
	.uleb128 0x1
	.long	0x2f99
	.uleb128 0x1
	.long	0x3201
	.byte	0
	.uleb128 0xa
	.long	.LASF590
	.byte	0x33
	.value	0x16c
	.long	0x3005
	.long	0x3425
	.uleb128 0x1
	.long	0x3201
	.uleb128 0x1
	.long	0x326f
	.uleb128 0x1
	.long	0x3425
	.byte	0
	.uleb128 0xd
	.byte	0x8
	.long	0x2f52
	.uleb128 0xa
	.long	.LASF591
	.byte	0x32
	.value	0x2a1
	.long	0x3005
	.long	0x344b
	.uleb128 0x1
	.long	0x3201
	.uleb128 0x1
	.long	0x326f
	.uleb128 0x1
	.long	0x3425
	.byte	0
	.uleb128 0xa
	.long	.LASF592
	.byte	0x33
	.value	0x13b
	.long	0x3005
	.long	0x3470
	.uleb128 0x1
	.long	0x3227
	.uleb128 0x1
	.long	0x2f3b
	.uleb128 0x1
	.long	0x326f
	.uleb128 0x1
	.long	0x3425
	.byte	0
	.uleb128 0xa
	.long	.LASF593
	.byte	0x32
	.value	0x2ad
	.long	0x3005
	.long	0x3490
	.uleb128 0x1
	.long	0x326f
	.uleb128 0x1
	.long	0x326f
	.uleb128 0x1
	.long	0x3425
	.byte	0
	.uleb128 0xa
	.long	.LASF594
	.byte	0x33
	.value	0x166
	.long	0x3005
	.long	0x34ab
	.uleb128 0x1
	.long	0x326f
	.uleb128 0x1
	.long	0x3425
	.byte	0
	.uleb128 0xa
	.long	.LASF595
	.byte	0x32
	.value	0x2a9
	.long	0x3005
	.long	0x34c6
	.uleb128 0x1
	.long	0x326f
	.uleb128 0x1
	.long	0x3425
	.byte	0
	.uleb128 0xa
	.long	.LASF596
	.byte	0x33
	.value	0x1b8
	.long	0x2f3b
	.long	0x34e6
	.uleb128 0x1
	.long	0x34e6
	.uleb128 0x1
	.long	0x322d
	.uleb128 0x1
	.long	0x330a
	.byte	0
	.uleb128 0xd
	.byte	0x8
	.long	0x2ff9
	.uleb128 0x12
	.long	.LASF597
	.byte	0x33
	.byte	0xf6
	.long	0x3227
	.long	0x3506
	.uleb128 0x1
	.long	0x3227
	.uleb128 0x1
	.long	0x326f
	.byte	0
	.uleb128 0x12
	.long	.LASF598
	.byte	0x32
	.byte	0x6a
	.long	0x3005
	.long	0x3520
	.uleb128 0x1
	.long	0x326f
	.uleb128 0x1
	.long	0x326f
	.byte	0
	.uleb128 0x12
	.long	.LASF599
	.byte	0x32
	.byte	0x83
	.long	0x3005
	.long	0x353a
	.uleb128 0x1
	.long	0x326f
	.uleb128 0x1
	.long	0x326f
	.byte	0
	.uleb128 0x12
	.long	.LASF600
	.byte	0x33
	.byte	0x98
	.long	0x3227
	.long	0x3554
	.uleb128 0x1
	.long	0x3227
	.uleb128 0x1
	.long	0x326f
	.byte	0
	.uleb128 0x12
	.long	.LASF601
	.byte	0x32
	.byte	0xbb
	.long	0x2f3b
	.long	0x356e
	.uleb128 0x1
	.long	0x326f
	.uleb128 0x1
	.long	0x326f
	.byte	0
	.uleb128 0xa
	.long	.LASF602
	.byte	0x32
	.value	0x343
	.long	0x2f3b
	.long	0x3593
	.uleb128 0x1
	.long	0x3227
	.uleb128 0x1
	.long	0x2f3b
	.uleb128 0x1
	.long	0x326f
	.uleb128 0x1
	.long	0x3593
	.byte	0
	.uleb128 0xd
	.byte	0x8
	.long	0x362a
	.uleb128 0x90
	.string	"tm"
	.byte	0x38
	.byte	0x34
	.byte	0x7
	.long	0x362a
	.uleb128 0x8
	.long	.LASF603
	.byte	0x34
	.byte	0x9
	.long	0x3005
	.byte	0
	.uleb128 0x8
	.long	.LASF604
	.byte	0x34
	.byte	0xa
	.long	0x3005
	.byte	0x4
	.uleb128 0x8
	.long	.LASF605
	.byte	0x34
	.byte	0xb
	.long	0x3005
	.byte	0x8
	.uleb128 0x8
	.long	.LASF606
	.byte	0x34
	.byte	0xc
	.long	0x3005
	.byte	0xc
	.uleb128 0x8
	.long	.LASF607
	.byte	0x34
	.byte	0xd
	.long	0x3005
	.byte	0x10
	.uleb128 0x8
	.long	.LASF608
	.byte	0x34
	.byte	0xe
	.long	0x3005
	.byte	0x14
	.uleb128 0x8
	.long	.LASF609
	.byte	0x34
	.byte	0xf
	.long	0x3005
	.byte	0x18
	.uleb128 0x8
	.long	.LASF610
	.byte	0x34
	.byte	0x10
	.long	0x3005
	.byte	0x1c
	.uleb128 0x8
	.long	.LASF611
	.byte	0x34
	.byte	0x11
	.long	0x3005
	.byte	0x20
	.uleb128 0x8
	.long	.LASF612
	.byte	0x34
	.byte	0x14
	.long	0x3762
	.byte	0x28
	.uleb128 0x8
	.long	.LASF613
	.byte	0x34
	.byte	0x15
	.long	0x31ca
	.byte	0x30
	.byte	0
	.uleb128 0xc
	.long	0x3599
	.uleb128 0x12
	.long	.LASF614
	.byte	0x32
	.byte	0xde
	.long	0x2f3b
	.long	0x3644
	.uleb128 0x1
	.long	0x326f
	.byte	0
	.uleb128 0xa
	.long	.LASF615
	.byte	0x33
	.value	0x107
	.long	0x3227
	.long	0x3664
	.uleb128 0x1
	.long	0x3227
	.uleb128 0x1
	.long	0x326f
	.uleb128 0x1
	.long	0x2f3b
	.byte	0
	.uleb128 0x12
	.long	.LASF616
	.byte	0x32
	.byte	0x6d
	.long	0x3005
	.long	0x3683
	.uleb128 0x1
	.long	0x326f
	.uleb128 0x1
	.long	0x326f
	.uleb128 0x1
	.long	0x2f3b
	.byte	0
	.uleb128 0x12
	.long	.LASF617
	.byte	0x33
	.byte	0xbf
	.long	0x3227
	.long	0x36a2
	.uleb128 0x1
	.long	0x3227
	.uleb128 0x1
	.long	0x326f
	.uleb128 0x1
	.long	0x2f3b
	.byte	0
	.uleb128 0xa
	.long	.LASF618
	.byte	0x33
	.value	0x1fc
	.long	0x2f3b
	.long	0x36c7
	.uleb128 0x1
	.long	0x34e6
	.uleb128 0x1
	.long	0x36c7
	.uleb128 0x1
	.long	0x2f3b
	.uleb128 0x1
	.long	0x330a
	.byte	0
	.uleb128 0xd
	.byte	0x8
	.long	0x326f
	.uleb128 0x12
	.long	.LASF619
	.byte	0x32
	.byte	0xbf
	.long	0x2f3b
	.long	0x36e7
	.uleb128 0x1
	.long	0x326f
	.uleb128 0x1
	.long	0x326f
	.byte	0
	.uleb128 0xa
	.long	.LASF620
	.byte	0x32
	.value	0x179
	.long	0x2f2d
	.long	0x3702
	.uleb128 0x1
	.long	0x326f
	.uleb128 0x1
	.long	0x3702
	.byte	0
	.uleb128 0xd
	.byte	0x8
	.long	0x3227
	.uleb128 0xa
	.long	.LASF621
	.byte	0x32
	.value	0x17e
	.long	0x2f26
	.long	0x3723
	.uleb128 0x1
	.long	0x326f
	.uleb128 0x1
	.long	0x3702
	.byte	0
	.uleb128 0x12
	.long	.LASF622
	.byte	0x32
	.byte	0xd9
	.long	0x3227
	.long	0x3742
	.uleb128 0x1
	.long	0x3227
	.uleb128 0x1
	.long	0x326f
	.uleb128 0x1
	.long	0x3702
	.byte	0
	.uleb128 0xa
	.long	.LASF623
	.byte	0x32
	.value	0x1ac
	.long	0x3762
	.long	0x3762
	.uleb128 0x1
	.long	0x326f
	.uleb128 0x1
	.long	0x3702
	.uleb128 0x1
	.long	0x3005
	.byte	0
	.uleb128 0x23
	.byte	0x8
	.byte	0x5
	.long	.LASF624
	.uleb128 0xc
	.long	0x3762
	.uleb128 0xa
	.long	.LASF625
	.byte	0x32
	.value	0x1b1
	.long	0x2f46
	.long	0x378e
	.uleb128 0x1
	.long	0x326f
	.uleb128 0x1
	.long	0x3702
	.uleb128 0x1
	.long	0x3005
	.byte	0
	.uleb128 0x12
	.long	.LASF626
	.byte	0x32
	.byte	0x87
	.long	0x2f3b
	.long	0x37ad
	.uleb128 0x1
	.long	0x3227
	.uleb128 0x1
	.long	0x326f
	.uleb128 0x1
	.long	0x2f3b
	.byte	0
	.uleb128 0xa
	.long	.LASF627
	.byte	0x32
	.value	0x144
	.long	0x3005
	.long	0x37c3
	.uleb128 0x1
	.long	0x2f99
	.byte	0
	.uleb128 0xa
	.long	.LASF628
	.byte	0x32
	.value	0x102
	.long	0x3005
	.long	0x37e3
	.uleb128 0x1
	.long	0x326f
	.uleb128 0x1
	.long	0x326f
	.uleb128 0x1
	.long	0x2f3b
	.byte	0
	.uleb128 0x12
	.long	.LASF629
	.byte	0x33
	.byte	0x27
	.long	0x3227
	.long	0x3802
	.uleb128 0x1
	.long	0x3227
	.uleb128 0x1
	.long	0x326f
	.uleb128 0x1
	.long	0x2f3b
	.byte	0
	.uleb128 0x12
	.long	.LASF630
	.byte	0x33
	.byte	0x44
	.long	0x3227
	.long	0x3821
	.uleb128 0x1
	.long	0x3227
	.uleb128 0x1
	.long	0x326f
	.uleb128 0x1
	.long	0x2f3b
	.byte	0
	.uleb128 0x12
	.long	.LASF631
	.byte	0x33
	.byte	0x81
	.long	0x3227
	.long	0x3840
	.uleb128 0x1
	.long	0x3227
	.uleb128 0x1
	.long	0x322d
	.uleb128 0x1
	.long	0x2f3b
	.byte	0
	.uleb128 0xa
	.long	.LASF632
	.byte	0x33
	.value	0x153
	.long	0x3005
	.long	0x3857
	.uleb128 0x1
	.long	0x326f
	.uleb128 0x42
	.byte	0
	.uleb128 0xa
	.long	.LASF633
	.byte	0x32
	.value	0x274
	.long	0x3005
	.long	0x386e
	.uleb128 0x1
	.long	0x326f
	.uleb128 0x42
	.byte	0
	.uleb128 0x33
	.long	.LASF634
	.byte	0x32
	.byte	0xa1
	.long	.LASF634
	.long	0x326f
	.long	0x388c
	.uleb128 0x1
	.long	0x326f
	.uleb128 0x1
	.long	0x322d
	.byte	0
	.uleb128 0x33
	.long	.LASF635
	.byte	0x32
	.byte	0xc5
	.long	.LASF635
	.long	0x326f
	.long	0x38aa
	.uleb128 0x1
	.long	0x326f
	.uleb128 0x1
	.long	0x326f
	.byte	0
	.uleb128 0x33
	.long	.LASF636
	.byte	0x32
	.byte	0xab
	.long	.LASF636
	.long	0x326f
	.long	0x38c8
	.uleb128 0x1
	.long	0x326f
	.uleb128 0x1
	.long	0x322d
	.byte	0
	.uleb128 0x33
	.long	.LASF637
	.byte	0x32
	.byte	0xd0
	.long	.LASF637
	.long	0x326f
	.long	0x38e6
	.uleb128 0x1
	.long	0x326f
	.uleb128 0x1
	.long	0x326f
	.byte	0
	.uleb128 0x33
	.long	.LASF638
	.byte	0x32
	.byte	0xf9
	.long	.LASF638
	.long	0x326f
	.long	0x3909
	.uleb128 0x1
	.long	0x326f
	.uleb128 0x1
	.long	0x322d
	.uleb128 0x1
	.long	0x2f3b
	.byte	0
	.uleb128 0xa
	.long	.LASF639
	.byte	0x32
	.value	0x180
	.long	0x2f34
	.long	0x3924
	.uleb128 0x1
	.long	0x326f
	.uleb128 0x1
	.long	0x3702
	.byte	0
	.uleb128 0xa
	.long	.LASF640
	.byte	0x32
	.value	0x1b9
	.long	0x3944
	.long	0x3944
	.uleb128 0x1
	.long	0x326f
	.uleb128 0x1
	.long	0x3702
	.uleb128 0x1
	.long	0x3005
	.byte	0
	.uleb128 0x23
	.byte	0x8
	.byte	0x5
	.long	.LASF641
	.uleb128 0xa
	.long	.LASF642
	.byte	0x32
	.value	0x1c0
	.long	0x396b
	.long	0x396b
	.uleb128 0x1
	.long	0x326f
	.uleb128 0x1
	.long	0x3702
	.uleb128 0x1
	.long	0x3005
	.byte	0
	.uleb128 0x23
	.byte	0x8
	.byte	0x7
	.long	.LASF643
	.uleb128 0x91
	.long	.LASF915
	.uleb128 0xd
	.byte	0x8
	.long	0x228
	.uleb128 0xd
	.byte	0x8
	.long	0x26a
	.uleb128 0xd
	.byte	0x8
	.long	0x423
	.uleb128 0x14
	.byte	0x8
	.long	0x423
	.uleb128 0x40
	.byte	0x8
	.long	0x26a
	.uleb128 0x14
	.byte	0x8
	.long	0x26a
	.uleb128 0x23
	.byte	0x1
	.byte	0x2
	.long	.LASF644
	.uleb128 0xc
	.long	0x399c
	.uleb128 0xd
	.byte	0x8
	.long	0x45c
	.uleb128 0xd
	.byte	0x8
	.long	0x4d2
	.uleb128 0xd
	.byte	0x8
	.long	0x548
	.uleb128 0x23
	.byte	0x1
	.byte	0x8
	.long	.LASF645
	.uleb128 0x23
	.byte	0x10
	.byte	0x7
	.long	.LASF646
	.uleb128 0x23
	.byte	0x1
	.byte	0x6
	.long	.LASF647
	.uleb128 0x23
	.byte	0x2
	.byte	0x5
	.long	.LASF648
	.uleb128 0xc
	.long	0x39cf
	.uleb128 0x23
	.byte	0x10
	.byte	0x5
	.long	.LASF649
	.uleb128 0xd
	.byte	0x8
	.long	0x568
	.uleb128 0x92
	.long	0x590
	.uleb128 0x57
	.long	.LASF650
	.byte	0x10
	.byte	0x38
	.long	0x3a01
	.uleb128 0x56
	.byte	0x10
	.byte	0x3a
	.long	0x59d
	.byte	0
	.uleb128 0x14
	.byte	0x8
	.long	0x5b1
	.uleb128 0x14
	.byte	0x8
	.long	0x5bd
	.uleb128 0xd
	.byte	0x8
	.long	0x5bd
	.uleb128 0xd
	.byte	0x8
	.long	0x5b1
	.uleb128 0x14
	.byte	0x8
	.long	0x5ce
	.uleb128 0x14
	.byte	0x8
	.long	0x78a
	.uleb128 0x14
	.byte	0x8
	.long	0x796
	.uleb128 0xd
	.byte	0x8
	.long	0x796
	.uleb128 0xd
	.byte	0x8
	.long	0x78a
	.uleb128 0x14
	.byte	0x8
	.long	0x7a7
	.uleb128 0x7
	.long	.LASF651
	.byte	0x35
	.byte	0x24
	.long	0x39c8
	.uleb128 0x7
	.long	.LASF652
	.byte	0x35
	.byte	0x25
	.long	0x39ba
	.uleb128 0x7
	.long	.LASF653
	.byte	0x35
	.byte	0x26
	.long	0x39cf
	.uleb128 0x7
	.long	.LASF654
	.byte	0x35
	.byte	0x27
	.long	0x31c3
	.uleb128 0x7
	.long	.LASF655
	.byte	0x35
	.byte	0x28
	.long	0x3005
	.uleb128 0xc
	.long	0x3a69
	.uleb128 0x7
	.long	.LASF656
	.byte	0x35
	.byte	0x29
	.long	0x2f8f
	.uleb128 0x7
	.long	.LASF657
	.byte	0x35
	.byte	0x2b
	.long	0x3762
	.uleb128 0x7
	.long	.LASF658
	.byte	0x35
	.byte	0x2c
	.long	0x2f46
	.uleb128 0x7
	.long	.LASF659
	.byte	0x35
	.byte	0x3d
	.long	0x3762
	.uleb128 0x7
	.long	.LASF660
	.byte	0x35
	.byte	0x3e
	.long	0x2f46
	.uleb128 0x7
	.long	.LASF661
	.byte	0x35
	.byte	0x8c
	.long	0x3762
	.uleb128 0x7
	.long	.LASF662
	.byte	0x35
	.byte	0x8d
	.long	0x3762
	.uleb128 0x7
	.long	.LASF663
	.byte	0x36
	.byte	0x18
	.long	0x3a3d
	.uleb128 0x7
	.long	.LASF664
	.byte	0x36
	.byte	0x19
	.long	0x3a53
	.uleb128 0xc
	.long	0x3ad1
	.uleb128 0x7
	.long	.LASF665
	.byte	0x36
	.byte	0x1a
	.long	0x3a69
	.uleb128 0x7
	.long	.LASF666
	.byte	0x36
	.byte	0x1b
	.long	0x3a84
	.uleb128 0x7
	.long	.LASF667
	.byte	0x37
	.byte	0x18
	.long	0x3a48
	.uleb128 0x7
	.long	.LASF668
	.byte	0x37
	.byte	0x19
	.long	0x3a5e
	.uleb128 0x7
	.long	.LASF669
	.byte	0x37
	.byte	0x1a
	.long	0x3a79
	.uleb128 0x7
	.long	.LASF670
	.byte	0x37
	.byte	0x1b
	.long	0x3a8f
	.uleb128 0x7
	.long	.LASF671
	.byte	0x38
	.byte	0x2b
	.long	0x39c8
	.uleb128 0x7
	.long	.LASF672
	.byte	0x38
	.byte	0x2c
	.long	0x39cf
	.uleb128 0x7
	.long	.LASF673
	.byte	0x38
	.byte	0x2d
	.long	0x3005
	.uleb128 0x7
	.long	.LASF674
	.byte	0x38
	.byte	0x2f
	.long	0x3762
	.uleb128 0x7
	.long	.LASF675
	.byte	0x38
	.byte	0x36
	.long	0x39ba
	.uleb128 0x7
	.long	.LASF676
	.byte	0x38
	.byte	0x37
	.long	0x31c3
	.uleb128 0x7
	.long	.LASF677
	.byte	0x38
	.byte	0x38
	.long	0x2f8f
	.uleb128 0x7
	.long	.LASF678
	.byte	0x38
	.byte	0x3a
	.long	0x2f46
	.uleb128 0x7
	.long	.LASF679
	.byte	0x38
	.byte	0x44
	.long	0x39c8
	.uleb128 0x7
	.long	.LASF680
	.byte	0x38
	.byte	0x46
	.long	0x3762
	.uleb128 0x7
	.long	.LASF681
	.byte	0x38
	.byte	0x47
	.long	0x3762
	.uleb128 0x7
	.long	.LASF682
	.byte	0x38
	.byte	0x48
	.long	0x3762
	.uleb128 0x7
	.long	.LASF683
	.byte	0x38
	.byte	0x51
	.long	0x39ba
	.uleb128 0x7
	.long	.LASF684
	.byte	0x38
	.byte	0x53
	.long	0x2f46
	.uleb128 0x7
	.long	.LASF685
	.byte	0x38
	.byte	0x54
	.long	0x2f46
	.uleb128 0x7
	.long	.LASF686
	.byte	0x38
	.byte	0x55
	.long	0x2f46
	.uleb128 0x7
	.long	.LASF687
	.byte	0x38
	.byte	0x61
	.long	0x3762
	.uleb128 0x7
	.long	.LASF688
	.byte	0x38
	.byte	0x64
	.long	0x2f46
	.uleb128 0x7
	.long	.LASF689
	.byte	0x38
	.byte	0x6f
	.long	0x3a9a
	.uleb128 0x7
	.long	.LASF690
	.byte	0x38
	.byte	0x70
	.long	0x3aa5
	.uleb128 0x23
	.byte	0x2
	.byte	0x10
	.long	.LASF691
	.uleb128 0x23
	.byte	0x4
	.byte	0x10
	.long	.LASF692
	.uleb128 0x1d
	.long	.LASF693
	.byte	0x60
	.byte	0x39
	.byte	0x33
	.long	0x3d3a
	.uleb128 0x8
	.long	.LASF694
	.byte	0x39
	.byte	0x37
	.long	0x34e6
	.byte	0
	.uleb128 0x8
	.long	.LASF695
	.byte	0x39
	.byte	0x38
	.long	0x34e6
	.byte	0x8
	.uleb128 0x8
	.long	.LASF696
	.byte	0x39
	.byte	0x3e
	.long	0x34e6
	.byte	0x10
	.uleb128 0x8
	.long	.LASF697
	.byte	0x39
	.byte	0x44
	.long	0x34e6
	.byte	0x18
	.uleb128 0x8
	.long	.LASF698
	.byte	0x39
	.byte	0x45
	.long	0x34e6
	.byte	0x20
	.uleb128 0x8
	.long	.LASF699
	.byte	0x39
	.byte	0x46
	.long	0x34e6
	.byte	0x28
	.uleb128 0x8
	.long	.LASF700
	.byte	0x39
	.byte	0x47
	.long	0x34e6
	.byte	0x30
	.uleb128 0x8
	.long	.LASF701
	.byte	0x39
	.byte	0x48
	.long	0x34e6
	.byte	0x38
	.uleb128 0x8
	.long	.LASF702
	.byte	0x39
	.byte	0x49
	.long	0x34e6
	.byte	0x40
	.uleb128 0x8
	.long	.LASF703
	.byte	0x39
	.byte	0x4a
	.long	0x34e6
	.byte	0x48
	.uleb128 0x8
	.long	.LASF704
	.byte	0x39
	.byte	0x4b
	.long	0x2ff9
	.byte	0x50
	.uleb128 0x8
	.long	.LASF705
	.byte	0x39
	.byte	0x4c
	.long	0x2ff9
	.byte	0x51
	.uleb128 0x8
	.long	.LASF706
	.byte	0x39
	.byte	0x4e
	.long	0x2ff9
	.byte	0x52
	.uleb128 0x8
	.long	.LASF707
	.byte	0x39
	.byte	0x50
	.long	0x2ff9
	.byte	0x53
	.uleb128 0x8
	.long	.LASF708
	.byte	0x39
	.byte	0x52
	.long	0x2ff9
	.byte	0x54
	.uleb128 0x8
	.long	.LASF709
	.byte	0x39
	.byte	0x54
	.long	0x2ff9
	.byte	0x55
	.uleb128 0x8
	.long	.LASF710
	.byte	0x39
	.byte	0x5b
	.long	0x2ff9
	.byte	0x56
	.uleb128 0x8
	.long	.LASF711
	.byte	0x39
	.byte	0x5c
	.long	0x2ff9
	.byte	0x57
	.uleb128 0x8
	.long	.LASF712
	.byte	0x39
	.byte	0x5f
	.long	0x2ff9
	.byte	0x58
	.uleb128 0x8
	.long	.LASF713
	.byte	0x39
	.byte	0x61
	.long	0x2ff9
	.byte	0x59
	.uleb128 0x8
	.long	.LASF714
	.byte	0x39
	.byte	0x63
	.long	0x2ff9
	.byte	0x5a
	.uleb128 0x8
	.long	.LASF715
	.byte	0x39
	.byte	0x65
	.long	0x2ff9
	.byte	0x5b
	.uleb128 0x8
	.long	.LASF716
	.byte	0x39
	.byte	0x6c
	.long	0x2ff9
	.byte	0x5c
	.uleb128 0x8
	.long	.LASF717
	.byte	0x39
	.byte	0x6d
	.long	0x2ff9
	.byte	0x5d
	.byte	0
	.uleb128 0x12
	.long	.LASF718
	.byte	0x39
	.byte	0x7a
	.long	0x34e6
	.long	0x3d54
	.uleb128 0x1
	.long	0x3005
	.uleb128 0x1
	.long	0x31ca
	.byte	0
	.uleb128 0x5a
	.long	.LASF720
	.byte	0x39
	.byte	0x7d
	.long	0x3d5f
	.uleb128 0xd
	.byte	0x8
	.long	0x3c0d
	.uleb128 0x41
	.long	0x34e6
	.long	0x3d75
	.uleb128 0x4a
	.long	0x2f46
	.byte	0x1
	.byte	0
	.uleb128 0x2b
	.long	.LASF721
	.byte	0x3a
	.byte	0x9f
	.long	0x3d65
	.uleb128 0x2b
	.long	.LASF722
	.byte	0x3a
	.byte	0xa0
	.long	0x3005
	.uleb128 0x2b
	.long	.LASF723
	.byte	0x3a
	.byte	0xa1
	.long	0x3762
	.uleb128 0x2b
	.long	.LASF724
	.byte	0x3a
	.byte	0xa6
	.long	0x3d65
	.uleb128 0x2b
	.long	.LASF725
	.byte	0x3a
	.byte	0xae
	.long	0x3005
	.uleb128 0x2b
	.long	.LASF726
	.byte	0x3a
	.byte	0xaf
	.long	0x3762
	.uleb128 0x53
	.long	.LASF727
	.byte	0x3a
	.value	0x118
	.long	0x3005
	.uleb128 0x7
	.long	.LASF728
	.byte	0x3b
	.byte	0x20
	.long	0x3005
	.uleb128 0xd
	.byte	0x8
	.long	0x3dd4
	.uleb128 0x93
	.uleb128 0x49
	.byte	0x8
	.byte	0x3c
	.byte	0x3b
	.long	.LASF730
	.long	0x3dfb
	.uleb128 0x8
	.long	.LASF731
	.byte	0x3c
	.byte	0x3c
	.long	0x3005
	.byte	0
	.uleb128 0x5b
	.string	"rem"
	.byte	0x3c
	.byte	0x3d
	.long	0x3005
	.byte	0x4
	.byte	0
	.uleb128 0x7
	.long	.LASF732
	.byte	0x3c
	.byte	0x3e
	.long	0x3dd6
	.uleb128 0x49
	.byte	0x10
	.byte	0x3c
	.byte	0x43
	.long	.LASF733
	.long	0x3e2b
	.uleb128 0x8
	.long	.LASF731
	.byte	0x3c
	.byte	0x44
	.long	0x3762
	.byte	0
	.uleb128 0x5b
	.string	"rem"
	.byte	0x3c
	.byte	0x45
	.long	0x3762
	.byte	0x8
	.byte	0
	.uleb128 0x7
	.long	.LASF734
	.byte	0x3c
	.byte	0x46
	.long	0x3e06
	.uleb128 0x49
	.byte	0x10
	.byte	0x3c
	.byte	0x4d
	.long	.LASF735
	.long	0x3e5b
	.uleb128 0x8
	.long	.LASF731
	.byte	0x3c
	.byte	0x4e
	.long	0x3944
	.byte	0
	.uleb128 0x5b
	.string	"rem"
	.byte	0x3c
	.byte	0x4f
	.long	0x3944
	.byte	0x8
	.byte	0
	.uleb128 0x7
	.long	.LASF736
	.byte	0x3c
	.byte	0x50
	.long	0x3e36
	.uleb128 0x2d
	.long	.LASF737
	.byte	0x3c
	.value	0x325
	.long	0x3e72
	.uleb128 0xd
	.byte	0x8
	.long	0x3e78
	.uleb128 0x70
	.long	0x3005
	.long	0x3e8c
	.uleb128 0x1
	.long	0x3dce
	.uleb128 0x1
	.long	0x3dce
	.byte	0
	.uleb128 0xa
	.long	.LASF738
	.byte	0x3c
	.value	0x250
	.long	0x3005
	.long	0x3ea2
	.uleb128 0x1
	.long	0x3ea2
	.byte	0
	.uleb128 0xd
	.byte	0x8
	.long	0x3ea8
	.uleb128 0x94
	.uleb128 0x11
	.long	.LASF739
	.byte	0x3c
	.value	0x255
	.long	.LASF739
	.long	0x3005
	.long	0x3ec4
	.uleb128 0x1
	.long	0x3ea2
	.byte	0
	.uleb128 0x12
	.long	.LASF740
	.byte	0x3d
	.byte	0x19
	.long	0x2f2d
	.long	0x3ed9
	.uleb128 0x1
	.long	0x31ca
	.byte	0
	.uleb128 0xa
	.long	.LASF741
	.byte	0x3c
	.value	0x169
	.long	0x3005
	.long	0x3eef
	.uleb128 0x1
	.long	0x31ca
	.byte	0
	.uleb128 0xa
	.long	.LASF742
	.byte	0x3c
	.value	0x16e
	.long	0x3762
	.long	0x3f05
	.uleb128 0x1
	.long	0x31ca
	.byte	0
	.uleb128 0x12
	.long	.LASF743
	.byte	0x3e
	.byte	0x14
	.long	0x2f96
	.long	0x3f2e
	.uleb128 0x1
	.long	0x3dce
	.uleb128 0x1
	.long	0x3dce
	.uleb128 0x1
	.long	0x2f3b
	.uleb128 0x1
	.long	0x2f3b
	.uleb128 0x1
	.long	0x3e66
	.byte	0
	.uleb128 0x95
	.string	"div"
	.byte	0x3c
	.value	0x351
	.long	0x3dfb
	.long	0x3f4a
	.uleb128 0x1
	.long	0x3005
	.uleb128 0x1
	.long	0x3005
	.byte	0
	.uleb128 0xa
	.long	.LASF744
	.byte	0x3c
	.value	0x277
	.long	0x34e6
	.long	0x3f60
	.uleb128 0x1
	.long	0x31ca
	.byte	0
	.uleb128 0xa
	.long	.LASF745
	.byte	0x3c
	.value	0x353
	.long	0x3e2b
	.long	0x3f7b
	.uleb128 0x1
	.long	0x3762
	.uleb128 0x1
	.long	0x3762
	.byte	0
	.uleb128 0xa
	.long	.LASF746
	.byte	0x3c
	.value	0x397
	.long	0x3005
	.long	0x3f96
	.uleb128 0x1
	.long	0x31ca
	.uleb128 0x1
	.long	0x2f3b
	.byte	0
	.uleb128 0x12
	.long	.LASF747
	.byte	0x3f
	.byte	0x71
	.long	0x2f3b
	.long	0x3fb5
	.uleb128 0x1
	.long	0x3227
	.uleb128 0x1
	.long	0x31ca
	.uleb128 0x1
	.long	0x2f3b
	.byte	0
	.uleb128 0xa
	.long	.LASF748
	.byte	0x3c
	.value	0x39a
	.long	0x3005
	.long	0x3fd5
	.uleb128 0x1
	.long	0x3227
	.uleb128 0x1
	.long	0x31ca
	.uleb128 0x1
	.long	0x2f3b
	.byte	0
	.uleb128 0x43
	.long	.LASF749
	.byte	0x3c
	.value	0x33b
	.long	0x3ff6
	.uleb128 0x1
	.long	0x2f96
	.uleb128 0x1
	.long	0x2f3b
	.uleb128 0x1
	.long	0x2f3b
	.uleb128 0x1
	.long	0x3e66
	.byte	0
	.uleb128 0x96
	.long	.LASF750
	.byte	0x3c
	.value	0x26c
	.long	0x4009
	.uleb128 0x1
	.long	0x3005
	.byte	0
	.uleb128 0x6f
	.long	.LASF751
	.byte	0x3c
	.value	0x1c5
	.long	0x3005
	.uleb128 0x43
	.long	.LASF752
	.byte	0x3c
	.value	0x1c7
	.long	0x4027
	.uleb128 0x1
	.long	0x2f8f
	.byte	0
	.uleb128 0x12
	.long	.LASF753
	.byte	0x3c
	.byte	0x75
	.long	0x2f2d
	.long	0x4041
	.uleb128 0x1
	.long	0x31ca
	.uleb128 0x1
	.long	0x4041
	.byte	0
	.uleb128 0xd
	.byte	0x8
	.long	0x34e6
	.uleb128 0x12
	.long	.LASF754
	.byte	0x3c
	.byte	0xb0
	.long	0x3762
	.long	0x4066
	.uleb128 0x1
	.long	0x31ca
	.uleb128 0x1
	.long	0x4041
	.uleb128 0x1
	.long	0x3005
	.byte	0
	.uleb128 0x12
	.long	.LASF755
	.byte	0x3c
	.byte	0xb4
	.long	0x2f46
	.long	0x4085
	.uleb128 0x1
	.long	0x31ca
	.uleb128 0x1
	.long	0x4041
	.uleb128 0x1
	.long	0x3005
	.byte	0
	.uleb128 0xa
	.long	.LASF756
	.byte	0x3c
	.value	0x30d
	.long	0x3005
	.long	0x409b
	.uleb128 0x1
	.long	0x31ca
	.byte	0
	.uleb128 0x12
	.long	.LASF757
	.byte	0x3f
	.byte	0x90
	.long	0x2f3b
	.long	0x40ba
	.uleb128 0x1
	.long	0x34e6
	.uleb128 0x1
	.long	0x326f
	.uleb128 0x1
	.long	0x2f3b
	.byte	0
	.uleb128 0x12
	.long	.LASF758
	.byte	0x3f
	.byte	0x53
	.long	0x3005
	.long	0x40d4
	.uleb128 0x1
	.long	0x34e6
	.uleb128 0x1
	.long	0x322d
	.byte	0
	.uleb128 0xa
	.long	.LASF759
	.byte	0x3c
	.value	0x357
	.long	0x3e5b
	.long	0x40ef
	.uleb128 0x1
	.long	0x3944
	.uleb128 0x1
	.long	0x3944
	.byte	0
	.uleb128 0xa
	.long	.LASF760
	.byte	0x3c
	.value	0x175
	.long	0x3944
	.long	0x4105
	.uleb128 0x1
	.long	0x31ca
	.byte	0
	.uleb128 0x12
	.long	.LASF761
	.byte	0x3c
	.byte	0xc8
	.long	0x3944
	.long	0x4124
	.uleb128 0x1
	.long	0x31ca
	.uleb128 0x1
	.long	0x4041
	.uleb128 0x1
	.long	0x3005
	.byte	0
	.uleb128 0x12
	.long	.LASF762
	.byte	0x3c
	.byte	0xcd
	.long	0x396b
	.long	0x4143
	.uleb128 0x1
	.long	0x31ca
	.uleb128 0x1
	.long	0x4041
	.uleb128 0x1
	.long	0x3005
	.byte	0
	.uleb128 0x12
	.long	.LASF763
	.byte	0x3c
	.byte	0x7b
	.long	0x2f26
	.long	0x415d
	.uleb128 0x1
	.long	0x31ca
	.uleb128 0x1
	.long	0x4041
	.byte	0
	.uleb128 0x12
	.long	.LASF764
	.byte	0x3c
	.byte	0x7e
	.long	0x2f34
	.long	0x4177
	.uleb128 0x1
	.long	0x31ca
	.uleb128 0x1
	.long	0x4041
	.byte	0
	.uleb128 0x49
	.byte	0x10
	.byte	0x40
	.byte	0x1b
	.long	.LASF765
	.long	0x419c
	.uleb128 0x8
	.long	.LASF766
	.byte	0x40
	.byte	0x1c
	.long	0x3ab0
	.byte	0
	.uleb128 0x8
	.long	.LASF767
	.byte	0x40
	.byte	0x1d
	.long	0x3012
	.byte	0x8
	.byte	0
	.uleb128 0x7
	.long	.LASF768
	.byte	0x40
	.byte	0x1e
	.long	0x4177
	.uleb128 0x97
	.long	.LASF916
	.byte	0x30
	.byte	0x9a
	.uleb128 0x1d
	.long	.LASF769
	.byte	0x18
	.byte	0x30
	.byte	0xa0
	.long	0x41e0
	.uleb128 0x8
	.long	.LASF770
	.byte	0x30
	.byte	0xa1
	.long	0x41e0
	.byte	0
	.uleb128 0x8
	.long	.LASF771
	.byte	0x30
	.byte	0xa2
	.long	0x41e6
	.byte	0x8
	.uleb128 0x8
	.long	.LASF772
	.byte	0x30
	.byte	0xa6
	.long	0x3005
	.byte	0x10
	.byte	0
	.uleb128 0xd
	.byte	0x8
	.long	0x41af
	.uleb128 0xd
	.byte	0x8
	.long	0x3038
	.uleb128 0x41
	.long	0x2ff9
	.long	0x41fc
	.uleb128 0x4a
	.long	0x2f46
	.byte	0
	.byte	0
	.uleb128 0xd
	.byte	0x8
	.long	0x41a7
	.uleb128 0x41
	.long	0x2ff9
	.long	0x4212
	.uleb128 0x4a
	.long	0x2f46
	.byte	0x13
	.byte	0
	.uleb128 0x98
	.long	.LASF917
	.uleb128 0x53
	.long	.LASF773
	.byte	0x30
	.value	0x13f
	.long	0x4212
	.uleb128 0x53
	.long	.LASF774
	.byte	0x30
	.value	0x140
	.long	0x4212
	.uleb128 0x53
	.long	.LASF775
	.byte	0x30
	.value	0x141
	.long	0x4212
	.uleb128 0x7
	.long	.LASF776
	.byte	0x41
	.byte	0x4e
	.long	0x419c
	.uleb128 0xc
	.long	0x423c
	.uleb128 0x2b
	.long	.LASF777
	.byte	0x41
	.byte	0x87
	.long	0x41e6
	.uleb128 0x2b
	.long	.LASF778
	.byte	0x41
	.byte	0x88
	.long	0x41e6
	.uleb128 0x2b
	.long	.LASF779
	.byte	0x41
	.byte	0x89
	.long	0x41e6
	.uleb128 0x2b
	.long	.LASF780
	.byte	0x42
	.byte	0x1a
	.long	0x3005
	.uleb128 0x41
	.long	0x31d0
	.long	0x4284
	.uleb128 0x99
	.byte	0
	.uleb128 0x2b
	.long	.LASF781
	.byte	0x42
	.byte	0x1b
	.long	0x4278
	.uleb128 0x2b
	.long	.LASF782
	.byte	0x42
	.byte	0x1e
	.long	0x3005
	.uleb128 0x2b
	.long	.LASF783
	.byte	0x42
	.byte	0x1f
	.long	0x4278
	.uleb128 0x43
	.long	.LASF784
	.byte	0x41
	.value	0x2f5
	.long	0x42b7
	.uleb128 0x1
	.long	0x42b7
	.byte	0
	.uleb128 0xd
	.byte	0x8
	.long	0x31b8
	.uleb128 0x12
	.long	.LASF785
	.byte	0x41
	.byte	0xc7
	.long	0x3005
	.long	0x42d2
	.uleb128 0x1
	.long	0x42b7
	.byte	0
	.uleb128 0xa
	.long	.LASF786
	.byte	0x41
	.value	0x2f7
	.long	0x3005
	.long	0x42e8
	.uleb128 0x1
	.long	0x42b7
	.byte	0
	.uleb128 0xa
	.long	.LASF787
	.byte	0x41
	.value	0x2f9
	.long	0x3005
	.long	0x42fe
	.uleb128 0x1
	.long	0x42b7
	.byte	0
	.uleb128 0x12
	.long	.LASF788
	.byte	0x41
	.byte	0xcc
	.long	0x3005
	.long	0x4313
	.uleb128 0x1
	.long	0x42b7
	.byte	0
	.uleb128 0xa
	.long	.LASF789
	.byte	0x41
	.value	0x1dd
	.long	0x3005
	.long	0x4329
	.uleb128 0x1
	.long	0x42b7
	.byte	0
	.uleb128 0xa
	.long	.LASF790
	.byte	0x41
	.value	0x2db
	.long	0x3005
	.long	0x4344
	.uleb128 0x1
	.long	0x42b7
	.uleb128 0x1
	.long	0x4344
	.byte	0
	.uleb128 0xd
	.byte	0x8
	.long	0x423c
	.uleb128 0x12
	.long	.LASF791
	.byte	0x43
	.byte	0xfc
	.long	0x34e6
	.long	0x4369
	.uleb128 0x1
	.long	0x34e6
	.uleb128 0x1
	.long	0x3005
	.uleb128 0x1
	.long	0x42b7
	.byte	0
	.uleb128 0x12
	.long	.LASF792
	.byte	0x41
	.byte	0xe8
	.long	0x42b7
	.long	0x4383
	.uleb128 0x1
	.long	0x31ca
	.uleb128 0x1
	.long	0x31ca
	.byte	0
	.uleb128 0xa
	.long	.LASF793
	.byte	0x43
	.value	0x119
	.long	0x2f3b
	.long	0x43a8
	.uleb128 0x1
	.long	0x2f96
	.uleb128 0x1
	.long	0x2f3b
	.uleb128 0x1
	.long	0x2f3b
	.uleb128 0x1
	.long	0x42b7
	.byte	0
	.uleb128 0x12
	.long	.LASF794
	.byte	0x41
	.byte	0xee
	.long	0x42b7
	.long	0x43c7
	.uleb128 0x1
	.long	0x31ca
	.uleb128 0x1
	.long	0x31ca
	.uleb128 0x1
	.long	0x42b7
	.byte	0
	.uleb128 0xa
	.long	.LASF795
	.byte	0x41
	.value	0x2ac
	.long	0x3005
	.long	0x43e7
	.uleb128 0x1
	.long	0x42b7
	.uleb128 0x1
	.long	0x3762
	.uleb128 0x1
	.long	0x3005
	.byte	0
	.uleb128 0xa
	.long	.LASF796
	.byte	0x41
	.value	0x2e0
	.long	0x3005
	.long	0x4402
	.uleb128 0x1
	.long	0x42b7
	.uleb128 0x1
	.long	0x4402
	.byte	0
	.uleb128 0xd
	.byte	0x8
	.long	0x4247
	.uleb128 0xa
	.long	.LASF797
	.byte	0x41
	.value	0x2b1
	.long	0x3762
	.long	0x441e
	.uleb128 0x1
	.long	0x42b7
	.byte	0
	.uleb128 0xa
	.long	.LASF798
	.byte	0x41
	.value	0x1de
	.long	0x3005
	.long	0x4434
	.uleb128 0x1
	.long	0x42b7
	.byte	0
	.uleb128 0x5a
	.long	.LASF799
	.byte	0x44
	.byte	0x2c
	.long	0x3005
	.uleb128 0x43
	.long	.LASF800
	.byte	0x41
	.value	0x307
	.long	0x4451
	.uleb128 0x1
	.long	0x31ca
	.byte	0
	.uleb128 0x12
	.long	.LASF801
	.byte	0x41
	.byte	0x90
	.long	0x3005
	.long	0x4466
	.uleb128 0x1
	.long	0x31ca
	.byte	0
	.uleb128 0x12
	.long	.LASF802
	.byte	0x41
	.byte	0x92
	.long	0x3005
	.long	0x4480
	.uleb128 0x1
	.long	0x31ca
	.uleb128 0x1
	.long	0x31ca
	.byte	0
	.uleb128 0x43
	.long	.LASF803
	.byte	0x41
	.value	0x2b6
	.long	0x4492
	.uleb128 0x1
	.long	0x42b7
	.byte	0
	.uleb128 0x43
	.long	.LASF804
	.byte	0x41
	.value	0x122
	.long	0x44a9
	.uleb128 0x1
	.long	0x42b7
	.uleb128 0x1
	.long	0x34e6
	.byte	0
	.uleb128 0xa
	.long	.LASF805
	.byte	0x41
	.value	0x126
	.long	0x3005
	.long	0x44ce
	.uleb128 0x1
	.long	0x42b7
	.uleb128 0x1
	.long	0x34e6
	.uleb128 0x1
	.long	0x3005
	.uleb128 0x1
	.long	0x2f3b
	.byte	0
	.uleb128 0x5a
	.long	.LASF806
	.byte	0x41
	.byte	0x9f
	.long	0x42b7
	.uleb128 0x12
	.long	.LASF807
	.byte	0x41
	.byte	0xad
	.long	0x34e6
	.long	0x44ee
	.uleb128 0x1
	.long	0x34e6
	.byte	0
	.uleb128 0xa
	.long	.LASF808
	.byte	0x41
	.value	0x27f
	.long	0x3005
	.long	0x4509
	.uleb128 0x1
	.long	0x3005
	.uleb128 0x1
	.long	0x42b7
	.byte	0
	.uleb128 0x2b
	.long	.LASF809
	.byte	0x45
	.byte	0x2d
	.long	0x34e6
	.uleb128 0x2b
	.long	.LASF810
	.byte	0x45
	.byte	0x2e
	.long	0x34e6
	.uleb128 0xd
	.byte	0x8
	.long	0xc60
	.uleb128 0x7
	.long	.LASF811
	.byte	0x46
	.byte	0x26
	.long	0x2f46
	.uleb128 0x7
	.long	.LASF812
	.byte	0x47
	.byte	0x30
	.long	0x453b
	.uleb128 0xd
	.byte	0x8
	.long	0x3a74
	.uleb128 0x12
	.long	.LASF813
	.byte	0x46
	.byte	0x9f
	.long	0x3005
	.long	0x455b
	.uleb128 0x1
	.long	0x2f99
	.uleb128 0x1
	.long	0x4525
	.byte	0
	.uleb128 0x12
	.long	.LASF814
	.byte	0x47
	.byte	0x37
	.long	0x2f99
	.long	0x4575
	.uleb128 0x1
	.long	0x2f99
	.uleb128 0x1
	.long	0x4530
	.byte	0
	.uleb128 0x12
	.long	.LASF815
	.byte	0x47
	.byte	0x34
	.long	0x4530
	.long	0x458a
	.uleb128 0x1
	.long	0x31ca
	.byte	0
	.uleb128 0x12
	.long	.LASF816
	.byte	0x46
	.byte	0x9b
	.long	0x4525
	.long	0x459f
	.uleb128 0x1
	.long	0x31ca
	.byte	0
	.uleb128 0x14
	.byte	0x8
	.long	0xcff
	.uleb128 0x9a
	.long	0xf21
	.uleb128 0x9
	.byte	0x3
	.quad	_ZStL8__ioinit
	.uleb128 0xd
	.byte	0x8
	.long	0xcff
	.uleb128 0xc
	.long	0x45b5
	.uleb128 0x9b
	.long	.LASF818
	.byte	0x2
	.byte	0x9
	.long	0x3adc
	.byte	0x5a
	.uleb128 0xd
	.byte	0x8
	.long	0x39cf
	.uleb128 0xc
	.long	0x45cd
	.uleb128 0xd
	.byte	0x8
	.long	0x39d6
	.uleb128 0x14
	.byte	0x8
	.long	0xfe1
	.uleb128 0x14
	.byte	0x8
	.long	0xfed
	.uleb128 0x14
	.byte	0x8
	.long	0x2a04
	.uleb128 0x14
	.byte	0x8
	.long	0x2a0f
	.uleb128 0x14
	.byte	0x8
	.long	0x1194
	.uleb128 0x14
	.byte	0x8
	.long	0x112b
	.uleb128 0x14
	.byte	0x8
	.long	0x39cf
	.uleb128 0x14
	.byte	0x8
	.long	0x39d6
	.uleb128 0xd
	.byte	0x8
	.long	0x2ade
	.uleb128 0xc
	.long	0x460e
	.uleb128 0x14
	.byte	0x8
	.long	0x2c9c
	.uleb128 0xd
	.byte	0x8
	.long	0x2c9c
	.uleb128 0xc
	.long	0x461f
	.uleb128 0xd
	.byte	0x8
	.long	0x112b
	.uleb128 0xc
	.long	0x462a
	.uleb128 0xd
	.byte	0x8
	.long	0x11a5
	.uleb128 0xc
	.long	0x4635
	.uleb128 0x14
	.byte	0x8
	.long	0x127d
	.uleb128 0x40
	.byte	0x8
	.long	0x1272
	.uleb128 0x14
	.byte	0x8
	.long	0x11a5
	.uleb128 0x14
	.byte	0x8
	.long	0x1272
	.uleb128 0xd
	.byte	0x8
	.long	0x1199
	.uleb128 0xc
	.long	0x4658
	.uleb128 0xd
	.byte	0x8
	.long	0x1461
	.uleb128 0xc
	.long	0x4663
	.uleb128 0x14
	.byte	0x8
	.long	0x1299
	.uleb128 0x40
	.byte	0x8
	.long	0x1199
	.uleb128 0xd
	.byte	0x8
	.long	0x1466
	.uleb128 0xc
	.long	0x467a
	.uleb128 0x14
	.byte	0x8
	.long	0x151e
	.uleb128 0x14
	.byte	0x8
	.long	0x14a8
	.uleb128 0x14
	.byte	0x8
	.long	0x1f03
	.uleb128 0x40
	.byte	0x8
	.long	0x1466
	.uleb128 0x14
	.byte	0x8
	.long	0x1466
	.uleb128 0xd
	.byte	0x8
	.long	0x1f03
	.uleb128 0xc
	.long	0x46a3
	.uleb128 0x40
	.byte	0x8
	.long	0x149c
	.uleb128 0x1d
	.long	.LASF819
	.byte	0x48
	.byte	0x2
	.byte	0xa
	.long	0x4715
	.uleb128 0x8
	.long	.LASF820
	.byte	0x2
	.byte	0xc
	.long	0x1466
	.byte	0
	.uleb128 0x8
	.long	.LASF821
	.byte	0x2
	.byte	0xd
	.long	0x1466
	.byte	0x18
	.uleb128 0x8
	.long	.LASF822
	.byte	0x2
	.byte	0xe
	.long	0x1466
	.byte	0x30
	.uleb128 0x9c
	.long	.LASF823
	.long	.LASF918
	.long	0x46f6
	.long	0x4701
	.uleb128 0x5
	.long	0x7957
	.uleb128 0x5
	.long	0x3005
	.byte	0
	.uleb128 0x6a
	.long	.LASF819
	.long	.LASF825
	.long	0x470e
	.uleb128 0x5
	.long	0x7957
	.byte	0
	.byte	0
	.uleb128 0x71
	.long	.LASF826
	.value	0x21c
	.byte	0x2
	.byte	0x11
	.long	0x4749
	.uleb128 0x8
	.long	.LASF820
	.byte	0x2
	.byte	0x13
	.long	0x4749
	.byte	0
	.uleb128 0x8
	.long	.LASF821
	.byte	0x2
	.byte	0x14
	.long	0x4749
	.byte	0xb4
	.uleb128 0x9d
	.long	.LASF822
	.byte	0x2
	.byte	0x15
	.long	0x4749
	.value	0x168
	.byte	0
	.uleb128 0x41
	.long	0x3ad1
	.long	0x4759
	.uleb128 0x4a
	.long	0x2f46
	.byte	0x59
	.byte	0
	.uleb128 0x71
	.long	.LASF827
	.value	0x21d
	.byte	0x2
	.byte	0x19
	.long	0x477f
	.uleb128 0x8
	.long	.LASF828
	.byte	0x2
	.byte	0x1b
	.long	0x3af7
	.byte	0
	.uleb128 0x8
	.long	.LASF829
	.byte	0x2
	.byte	0x1c
	.long	0x4715
	.byte	0x1
	.byte	0
	.uleb128 0xd
	.byte	0x8
	.long	0x2ca1
	.uleb128 0xc
	.long	0x477f
	.uleb128 0x14
	.byte	0x8
	.long	0x45d3
	.uleb128 0xd
	.byte	0x8
	.long	0x2ec8
	.uleb128 0xc
	.long	0x4790
	.uleb128 0x14
	.byte	0x8
	.long	0x2ca1
	.uleb128 0x40
	.byte	0x8
	.long	0x39cf
	.uleb128 0xd
	.byte	0x8
	.long	0x1f82
	.uleb128 0xc
	.long	0x47a7
	.uleb128 0xd
	.byte	0x8
	.long	0x21ad
	.uleb128 0xc
	.long	0x47b2
	.uleb128 0x14
	.byte	0x8
	.long	0x1f82
	.uleb128 0x9e
	.long	.LASF830
	.long	0x2f96
	.uleb128 0x4b
	.long	.LASF831
	.long	0x46d
	.byte	0
	.uleb128 0x4b
	.long	.LASF832
	.long	0x4e3
	.byte	0x1
	.uleb128 0x5c
	.long	.LASF833
	.long	0x2789
	.sleb128 -2147483648
	.uleb128 0x9f
	.long	.LASF834
	.long	0x2794
	.long	0x7fffffff
	.uleb128 0x4b
	.long	.LASF835
	.long	0x283c
	.byte	0x26
	.uleb128 0x5d
	.long	.LASF836
	.long	0x287e
	.value	0x134
	.uleb128 0x5d
	.long	.LASF837
	.long	0x28c0
	.value	0x1344
	.uleb128 0x4b
	.long	.LASF838
	.long	0x2902
	.byte	0x40
	.uleb128 0x4b
	.long	.LASF839
	.long	0x292e
	.byte	0x7f
	.uleb128 0x5c
	.long	.LASF840
	.long	0x2965
	.sleb128 -32768
	.uleb128 0x5d
	.long	.LASF841
	.long	0x2970
	.value	0x7fff
	.uleb128 0x5c
	.long	.LASF842
	.long	0x29a7
	.sleb128 -9223372036854775808
	.uleb128 0xa0
	.long	.LASF843
	.long	0x29b2
	.quad	0x7fffffffffffffff
	.uleb128 0xa1
	.long	.LASF919
	.quad	.LFB2497
	.quad	.LFE2497-.LFB2497
	.uleb128 0x1
	.byte	0x9c
	.long	0x48e8
	.uleb128 0x27
	.long	0x48e8
	.quad	.LBB1431
	.long	.Ldebug_ranges0+0x960
	.byte	0x2
	.byte	0x3e
	.uleb128 0xa2
	.long	0x48fe
	.value	0xffff
	.uleb128 0xa3
	.long	0x48f3
	.byte	0x1
	.uleb128 0x5e
	.quad	.LVL179
	.long	0x48c6
	.uleb128 0x9
	.uleb128 0x1
	.byte	0x55
	.uleb128 0x9
	.byte	0x3
	.quad	_ZStL8__ioinit
	.byte	0
	.uleb128 0xa4
	.quad	.LVL180
	.long	0x7f50
	.uleb128 0x9
	.uleb128 0x1
	.byte	0x54
	.uleb128 0x9
	.byte	0x3
	.quad	_ZStL8__ioinit
	.uleb128 0xa5
	.uleb128 0x1
	.byte	0x51
	.byte	0
	.byte	0
	.byte	0
	.uleb128 0xa6
	.long	.LASF920
	.byte	0x1
	.long	0x490a
	.uleb128 0x2e
	.long	.LASF844
	.byte	0x2
	.byte	0x3e
	.long	0x3005
	.uleb128 0x2e
	.long	.LASF845
	.byte	0x2
	.byte	0x3e
	.long	0x3005
	.byte	0
	.uleb128 0x15
	.long	0x21d9
	.byte	0x3
	.long	0x494e
	.uleb128 0x10
	.string	"_Tp"
	.long	0x39cf
	.uleb128 0x13
	.long	.LASF846
	.byte	0x8
	.value	0x165
	.long	0x45d8
	.uleb128 0x13
	.long	.LASF847
	.byte	0x8
	.value	0x165
	.long	0x45d8
	.uleb128 0x13
	.long	.LASF848
	.byte	0x8
	.value	0x165
	.long	0x45cd
	.uleb128 0x2f
	.long	.LASF849
	.byte	0x8
	.value	0x16e
	.long	0xa2f
	.byte	0
	.uleb128 0x15
	.long	0x2203
	.byte	0x3
	.long	0x49a6
	.uleb128 0x52
	.long	.LASF383
	.long	0x399c
	.byte	0x1
	.byte	0x1
	.uleb128 0x10
	.string	"_II"
	.long	0x45cd
	.uleb128 0x10
	.string	"_OI"
	.long	0x45cd
	.uleb128 0x13
	.long	.LASF846
	.byte	0x8
	.value	0x177
	.long	0x45cd
	.uleb128 0x13
	.long	.LASF847
	.byte	0x8
	.value	0x177
	.long	0x45cd
	.uleb128 0x13
	.long	.LASF848
	.byte	0x8
	.value	0x177
	.long	0x45cd
	.uleb128 0x2f
	.long	.LASF850
	.byte	0x8
	.value	0x17c
	.long	0x39a3
	.byte	0
	.uleb128 0x15
	.long	0x2244
	.byte	0x3
	.long	0x49c6
	.uleb128 0x6
	.long	.LASF349
	.long	0x45cd
	.uleb128 0x13
	.long	.LASF851
	.byte	0x22
	.value	0x198
	.long	0x45cd
	.byte	0
	.uleb128 0x18
	.long	0x200c
	.long	0x49d8
	.byte	0x3
	.long	0x49d8
	.long	0x49e2
	.uleb128 0xf
	.long	.LASF854
	.long	0x47b8
	.byte	0
	.uleb128 0x15
	.long	0x2267
	.byte	0x3
	.long	0x4a2e
	.uleb128 0x52
	.long	.LASF383
	.long	0x399c
	.byte	0x1
	.byte	0x1
	.uleb128 0x10
	.string	"_II"
	.long	0x45cd
	.uleb128 0x10
	.string	"_OI"
	.long	0x45cd
	.uleb128 0x13
	.long	.LASF846
	.byte	0x8
	.value	0x1a4
	.long	0x45cd
	.uleb128 0x13
	.long	.LASF847
	.byte	0x8
	.value	0x1a4
	.long	0x45cd
	.uleb128 0x13
	.long	.LASF848
	.byte	0x8
	.value	0x1a4
	.long	0x45cd
	.byte	0
	.uleb128 0x15
	.long	0x22a8
	.byte	0x1
	.long	0x4a4e
	.uleb128 0x6
	.long	.LASF349
	.long	0x45cd
	.uleb128 0x13
	.long	.LASF851
	.byte	0x21
	.value	0x4dc
	.long	0x1f82
	.byte	0
	.uleb128 0x15
	.long	0x22cb
	.byte	0x3
	.long	0x4a8f
	.uleb128 0x10
	.string	"_II"
	.long	0x1f82
	.uleb128 0x10
	.string	"_OI"
	.long	0x45cd
	.uleb128 0x13
	.long	.LASF846
	.byte	0x8
	.value	0x1be
	.long	0x1f82
	.uleb128 0x13
	.long	.LASF847
	.byte	0x8
	.value	0x1be
	.long	0x1f82
	.uleb128 0x13
	.long	.LASF848
	.byte	0x8
	.value	0x1be
	.long	0x45cd
	.byte	0
	.uleb128 0x15
	.long	0x2301
	.byte	0x3
	.long	0x4af3
	.uleb128 0x6
	.long	.LASF393
	.long	0x45cd
	.uleb128 0x6
	.long	.LASF155
	.long	0x2f46
	.uleb128 0x10
	.string	"_Tp"
	.long	0x39cf
	.uleb128 0x13
	.long	.LASF846
	.byte	0x8
	.value	0x2ed
	.long	0x45cd
	.uleb128 0x1a
	.string	"__n"
	.byte	0x8
	.value	0x2ed
	.long	0x2f46
	.uleb128 0x13
	.long	.LASF534
	.byte	0x8
	.value	0x2ed
	.long	0x4608
	.uleb128 0x2f
	.long	.LASF852
	.byte	0x8
	.value	0x2ef
	.long	0x39d6
	.uleb128 0x72
	.uleb128 0x2f
	.long	.LASF853
	.byte	0x8
	.value	0x2f0
	.long	0x2f46
	.byte	0
	.byte	0
	.uleb128 0x15
	.long	0x2340
	.byte	0x3
	.long	0x4b13
	.uleb128 0x6
	.long	.LASF349
	.long	0x45cd
	.uleb128 0x13
	.long	.LASF851
	.byte	0x8
	.value	0x115
	.long	0x45cd
	.byte	0
	.uleb128 0x15
	.long	0xf66
	.byte	0x3
	.long	0x4b51
	.uleb128 0x6
	.long	.LASF151
	.long	0x1f82
	.uleb128 0x6
	.long	.LASF148
	.long	0x45cd
	.uleb128 0x2e
	.long	.LASF846
	.byte	0x1d
	.byte	0x63
	.long	0x1f82
	.uleb128 0x2e
	.long	.LASF847
	.byte	0x1d
	.byte	0x63
	.long	0x1f82
	.uleb128 0x2e
	.long	.LASF848
	.byte	0x1d
	.byte	0x64
	.long	0x45cd
	.byte	0
	.uleb128 0x18
	.long	0x2c10
	.long	0x4b63
	.byte	0x3
	.long	0x4b63
	.long	0x4b6d
	.uleb128 0xf
	.long	.LASF854
	.long	0x4625
	.byte	0
	.uleb128 0x15
	.long	0x2363
	.byte	0x3
	.long	0x4bb7
	.uleb128 0x10
	.string	"_OI"
	.long	0x45cd
	.uleb128 0x6
	.long	.LASF155
	.long	0x2f46
	.uleb128 0x10
	.string	"_Tp"
	.long	0x39cf
	.uleb128 0x13
	.long	.LASF846
	.byte	0x8
	.value	0x310
	.long	0x45cd
	.uleb128 0x1a
	.string	"__n"
	.byte	0x8
	.value	0x310
	.long	0x2f46
	.uleb128 0x13
	.long	.LASF534
	.byte	0x8
	.value	0x310
	.long	0x4608
	.byte	0
	.uleb128 0x15
	.long	0x23a2
	.byte	0x3
	.long	0x4c00
	.uleb128 0x6
	.long	.LASF151
	.long	0x1f82
	.uleb128 0x6
	.long	.LASF148
	.long	0x45cd
	.uleb128 0x2e
	.long	.LASF846
	.byte	0x1d
	.byte	0x73
	.long	0x1f82
	.uleb128 0x2e
	.long	.LASF847
	.byte	0x1d
	.byte	0x73
	.long	0x1f82
	.uleb128 0x2e
	.long	.LASF848
	.byte	0x1d
	.byte	0x74
	.long	0x45cd
	.uleb128 0x5f
	.long	.LASF855
	.byte	0x1d
	.byte	0x80
	.long	0x39a3
	.byte	0
	.uleb128 0x36
	.long	0x1fec
	.byte	0x2
	.long	0x4c0e
	.long	0x4c24
	.uleb128 0xf
	.long	.LASF854
	.long	0x47ad
	.uleb128 0x1a
	.string	"__i"
	.byte	0x21
	.value	0x40f
	.long	0x1f9d
	.byte	0
	.uleb128 0x31
	.long	0x4c00
	.long	.LASF856
	.long	0x4c35
	.long	0x4c40
	.uleb128 0x2
	.long	0x4c0e
	.uleb128 0x2
	.long	0x4c17
	.byte	0
	.uleb128 0x18
	.long	0x2bc4
	.long	0x4c52
	.byte	0x3
	.long	0x4c52
	.long	0x4c6c
	.uleb128 0xf
	.long	.LASF854
	.long	0x4614
	.uleb128 0x28
	.string	"__n"
	.byte	0x6
	.byte	0x63
	.long	0x2aea
	.uleb128 0x1
	.long	0x3dce
	.byte	0
	.uleb128 0x18
	.long	0x12bb
	.long	0x4c7e
	.byte	0x3
	.long	0x4c7e
	.long	0x4c88
	.uleb128 0xf
	.long	.LASF854
	.long	0x4669
	.byte	0
	.uleb128 0x15
	.long	0x1085
	.byte	0x3
	.long	0x4c9f
	.uleb128 0x1a
	.string	"__a"
	.byte	0x1e
	.value	0x1ef
	.long	0x45e4
	.byte	0
	.uleb128 0x15
	.long	0xfa6
	.byte	0x3
	.long	0x4cd4
	.uleb128 0x6
	.long	.LASF148
	.long	0x45cd
	.uleb128 0x6
	.long	.LASF155
	.long	0x2f46
	.uleb128 0x13
	.long	.LASF846
	.byte	0x1d
	.value	0x21f
	.long	0x45cd
	.uleb128 0x1a
	.string	"__n"
	.byte	0x1d
	.value	0x21f
	.long	0x2f46
	.byte	0
	.uleb128 0x18
	.long	0x2c2e
	.long	0x4cef
	.byte	0x3
	.long	0x4cef
	.long	0x4d04
	.uleb128 0x10
	.string	"_Up"
	.long	0x39cf
	.uleb128 0xf
	.long	.LASF854
	.long	0x4614
	.uleb128 0x28
	.string	"__p"
	.byte	0x6
	.byte	0x8c
	.long	0x45cd
	.byte	0
	.uleb128 0x18
	.long	0x2bec
	.long	0x4d16
	.byte	0x3
	.long	0x4d16
	.long	0x4d30
	.uleb128 0xf
	.long	.LASF854
	.long	0x4614
	.uleb128 0x28
	.string	"__p"
	.byte	0x6
	.byte	0x74
	.long	0x2af6
	.uleb128 0x1
	.long	0x2aea
	.byte	0
	.uleb128 0x36
	.long	0x2b26
	.byte	0x2
	.long	0x4d3e
	.long	0x4d48
	.uleb128 0xf
	.long	.LASF854
	.long	0x4614
	.byte	0
	.uleb128 0x31
	.long	0x4d30
	.long	.LASF857
	.long	0x4d59
	.long	0x4d5f
	.uleb128 0x2
	.long	0x4d3e
	.byte	0
	.uleb128 0x15
	.long	0x23d7
	.byte	0x3
	.long	0x4dae
	.uleb128 0x6
	.long	.LASF151
	.long	0x1f82
	.uleb128 0x6
	.long	.LASF148
	.long	0x45cd
	.uleb128 0x10
	.string	"_Tp"
	.long	0x39cf
	.uleb128 0x13
	.long	.LASF846
	.byte	0x1d
	.value	0x11f
	.long	0x1f82
	.uleb128 0x13
	.long	.LASF847
	.byte	0x1d
	.value	0x11f
	.long	0x1f82
	.uleb128 0x13
	.long	.LASF848
	.byte	0x1d
	.value	0x120
	.long	0x45cd
	.uleb128 0x1
	.long	0x45fc
	.byte	0
	.uleb128 0x15
	.long	0x241b
	.byte	0x3
	.long	0x4dd7
	.uleb128 0x10
	.string	"_Tp"
	.long	0x39cf
	.uleb128 0x3b
	.long	.LASF404
	.long	0x1f82
	.uleb128 0x1a
	.string	"__i"
	.byte	0x21
	.value	0x4c8
	.long	0x45cd
	.byte	0
	.uleb128 0x15
	.long	0x1022
	.byte	0x3
	.long	0x4dfa
	.uleb128 0x1a
	.string	"__a"
	.byte	0x1e
	.value	0x1b3
	.long	0x45de
	.uleb128 0x1a
	.string	"__n"
	.byte	0x1e
	.value	0x1b3
	.long	0x1016
	.byte	0
	.uleb128 0x14
	.byte	0x8
	.long	0x2f4d
	.uleb128 0x15
	.long	0x2447
	.byte	0x3
	.long	0x4e2a
	.uleb128 0x10
	.string	"_Tp"
	.long	0x2f46
	.uleb128 0x28
	.string	"__a"
	.byte	0x8
	.byte	0xdb
	.long	0x4dfa
	.uleb128 0x28
	.string	"__b"
	.byte	0x8
	.byte	0xdb
	.long	0x4dfa
	.byte	0
	.uleb128 0x18
	.long	0x18bf
	.long	0x4e3c
	.byte	0x3
	.long	0x4e3c
	.long	0x4e46
	.uleb128 0xf
	.long	.LASF854
	.long	0x46a9
	.byte	0
	.uleb128 0x15
	.long	0x246e
	.byte	0x3
	.long	0x4e87
	.uleb128 0x6
	.long	.LASF148
	.long	0x45cd
	.uleb128 0x6
	.long	.LASF155
	.long	0x2f46
	.uleb128 0x13
	.long	.LASF846
	.byte	0x1d
	.value	0x23e
	.long	0x45cd
	.uleb128 0x1a
	.string	"__n"
	.byte	0x1d
	.value	0x23e
	.long	0x2f46
	.uleb128 0x2f
	.long	.LASF855
	.byte	0x1d
	.value	0x243
	.long	0x39a3
	.byte	0
	.uleb128 0xa7
	.long	0x10c5
	.long	0x4eb3
	.uleb128 0x10
	.string	"_Up"
	.long	0x39cf
	.uleb128 0x1a
	.string	"__a"
	.byte	0x1e
	.value	0x1e6
	.long	0x45de
	.uleb128 0x1a
	.string	"__p"
	.byte	0x1e
	.value	0x1e6
	.long	0x45cd
	.byte	0
	.uleb128 0x18
	.long	0x2e96
	.long	0x4ec5
	.byte	0x3
	.long	0x4ec5
	.long	0x4ecf
	.uleb128 0xf
	.long	.LASF854
	.long	0x4796
	.byte	0
	.uleb128 0x14
	.byte	0x8
	.long	0x2ec8
	.uleb128 0x15
	.long	0x2eea
	.byte	0x3
	.long	0x4f0a
	.uleb128 0x6
	.long	.LASF349
	.long	0x45cd
	.uleb128 0x6
	.long	.LASF512
	.long	0x1466
	.uleb128 0x13
	.long	.LASF858
	.byte	0x21
	.value	0x3c5
	.long	0x4ecf
	.uleb128 0x13
	.long	.LASF859
	.byte	0x21
	.value	0x3c6
	.long	0x4ecf
	.byte	0
	.uleb128 0x18
	.long	0x172c
	.long	0x4f1c
	.byte	0x3
	.long	0x4f1c
	.long	0x4f26
	.uleb128 0xf
	.long	.LASF854
	.long	0x4680
	.byte	0
	.uleb128 0x36
	.long	0x2cfe
	.byte	0x2
	.long	0x4f34
	.long	0x4f4a
	.uleb128 0xf
	.long	.LASF854
	.long	0x4785
	.uleb128 0x1a
	.string	"__i"
	.byte	0x21
	.value	0x30e
	.long	0x478a
	.byte	0
	.uleb128 0x31
	.long	0x4f26
	.long	.LASF860
	.long	0x4f5b
	.long	0x4f66
	.uleb128 0x2
	.long	0x4f34
	.uleb128 0x2
	.long	0x4f3d
	.byte	0
	.uleb128 0x18
	.long	0x2c56
	.long	0x4f90
	.byte	0x3
	.long	0x4f90
	.long	0x4fae
	.uleb128 0x10
	.string	"_Up"
	.long	0x39cf
	.uleb128 0x3d
	.long	.LASF337
	.long	0x4f90
	.uleb128 0x3e
	.long	0x39cf
	.byte	0
	.uleb128 0xf
	.long	.LASF854
	.long	0x4614
	.uleb128 0x28
	.string	"__p"
	.byte	0x6
	.byte	0x87
	.long	0x45cd
	.uleb128 0x73
	.byte	0x6
	.byte	0x87
	.uleb128 0x1
	.long	0x47a1
	.byte	0
	.byte	0
	.uleb128 0x15
	.long	0xf39
	.byte	0x3
	.long	0x4fcc
	.uleb128 0x6
	.long	.LASF148
	.long	0x45cd
	.uleb128 0x1
	.long	0x45cd
	.uleb128 0x1
	.long	0x45cd
	.byte	0
	.uleb128 0x15
	.long	0x1065
	.byte	0x3
	.long	0x4ffb
	.uleb128 0x1a
	.string	"__a"
	.byte	0x1e
	.value	0x1cd
	.long	0x45de
	.uleb128 0x1a
	.string	"__p"
	.byte	0x1e
	.value	0x1cd
	.long	0xffe
	.uleb128 0x1a
	.string	"__n"
	.byte	0x1e
	.value	0x1cd
	.long	0x1016
	.byte	0
	.uleb128 0x36
	.long	0x2b5f
	.byte	0x2
	.long	0x5009
	.long	0x501c
	.uleb128 0xf
	.long	.LASF854
	.long	0x4614
	.uleb128 0xf
	.long	.LASF861
	.long	0x300d
	.byte	0
	.uleb128 0x31
	.long	0x4ffb
	.long	.LASF862
	.long	0x502d
	.long	0x5033
	.uleb128 0x2
	.long	0x5009
	.byte	0
	.uleb128 0x36
	.long	0x113e
	.byte	0x2
	.long	0x5041
	.long	0x504b
	.uleb128 0xf
	.long	.LASF854
	.long	0x4630
	.byte	0
	.uleb128 0x31
	.long	0x5033
	.long	.LASF863
	.long	0x505c
	.long	0x5062
	.uleb128 0x2
	.long	0x5041
	.byte	0
	.uleb128 0x15
	.long	0x249f
	.byte	0x3
	.long	0x50b8
	.uleb128 0x6
	.long	.LASF151
	.long	0x45cd
	.uleb128 0x6
	.long	.LASF148
	.long	0x45cd
	.uleb128 0x6
	.long	.LASF411
	.long	0x112b
	.uleb128 0x13
	.long	.LASF846
	.byte	0x1d
	.value	0x131
	.long	0x45cd
	.uleb128 0x13
	.long	.LASF847
	.byte	0x1d
	.value	0x132
	.long	0x45cd
	.uleb128 0x13
	.long	.LASF848
	.byte	0x1d
	.value	0x133
	.long	0x45cd
	.uleb128 0x13
	.long	.LASF864
	.byte	0x1d
	.value	0x134
	.long	0x45fc
	.byte	0
	.uleb128 0x18
	.long	0x13ea
	.long	0x50ca
	.byte	0x3
	.long	0x50ca
	.long	0x50df
	.uleb128 0xf
	.long	.LASF854
	.long	0x465e
	.uleb128 0x28
	.string	"__n"
	.byte	0x5
	.byte	0xa9
	.long	0x772
	.byte	0
	.uleb128 0x18
	.long	0x1db2
	.long	0x50f1
	.byte	0x3
	.long	0x50f1
	.long	0x511f
	.uleb128 0xf
	.long	.LASF854
	.long	0x46a9
	.uleb128 0x1a
	.string	"__n"
	.byte	0x5
	.value	0x5de
	.long	0x1501
	.uleb128 0x1a
	.string	"__s"
	.byte	0x5
	.value	0x5de
	.long	0x31ca
	.uleb128 0x2f
	.long	.LASF865
	.byte	0x5
	.value	0x5e3
	.long	0x150d
	.byte	0
	.uleb128 0x15
	.long	0x24e3
	.byte	0x3
	.long	0x5162
	.uleb128 0x6
	.long	.LASF148
	.long	0x45cd
	.uleb128 0x6
	.long	.LASF155
	.long	0x2f46
	.uleb128 0x10
	.string	"_Tp"
	.long	0x39cf
	.uleb128 0x13
	.long	.LASF846
	.byte	0x1d
	.value	0x283
	.long	0x45cd
	.uleb128 0x1a
	.string	"__n"
	.byte	0x1d
	.value	0x283
	.long	0x2f46
	.uleb128 0x1
	.long	0x45fc
	.byte	0
	.uleb128 0xd
	.byte	0x8
	.long	0x25ab
	.uleb128 0xc
	.long	0x5162
	.uleb128 0x18
	.long	0x252b
	.long	0x517f
	.byte	0x3
	.long	0x517f
	.long	0x5189
	.uleb128 0xf
	.long	.LASF854
	.long	0x5168
	.byte	0
	.uleb128 0x18
	.long	0x1e8e
	.long	0x51aa
	.byte	0x1
	.long	0x51aa
	.long	0x51ff
	.uleb128 0x3d
	.long	.LASF337
	.long	0x51aa
	.uleb128 0x3e
	.long	0x39cf
	.byte	0
	.uleb128 0xf
	.long	.LASF854
	.long	0x4680
	.uleb128 0x13
	.long	.LASF866
	.byte	0x7
	.value	0x18b
	.long	0x14d1
	.uleb128 0xa8
	.byte	0x7
	.value	0x18b
	.long	0x51ce
	.uleb128 0x1
	.long	0x47a1
	.byte	0
	.uleb128 0x2f
	.long	.LASF865
	.byte	0x7
	.value	0x193
	.long	0x150d
	.uleb128 0x2f
	.long	.LASF867
	.byte	0x7
	.value	0x195
	.long	0x150d
	.uleb128 0x2f
	.long	.LASF868
	.byte	0x7
	.value	0x196
	.long	0x14ad
	.uleb128 0x2f
	.long	.LASF869
	.byte	0x7
	.value	0x197
	.long	0x14ad
	.byte	0
	.uleb128 0x18
	.long	0x176a
	.long	0x5211
	.byte	0x3
	.long	0x5211
	.long	0x521b
	.uleb128 0xf
	.long	.LASF854
	.long	0x4680
	.byte	0
	.uleb128 0x15
	.long	0x10e9
	.byte	0x3
	.long	0x5261
	.uleb128 0x10
	.string	"_Up"
	.long	0x39cf
	.uleb128 0x3d
	.long	.LASF337
	.long	0x523d
	.uleb128 0x3e
	.long	0x39cf
	.byte	0
	.uleb128 0x1a
	.string	"__a"
	.byte	0x1e
	.value	0x1da
	.long	0x45de
	.uleb128 0x1a
	.string	"__p"
	.byte	0x1e
	.value	0x1da
	.long	0x45cd
	.uleb128 0xa9
	.byte	0x1e
	.value	0x1da
	.uleb128 0x1
	.long	0x47a1
	.byte	0
	.byte	0
	.uleb128 0x15
	.long	0x25b0
	.byte	0x3
	.long	0x528b
	.uleb128 0x6
	.long	.LASF148
	.long	0x45cd
	.uleb128 0x2e
	.long	.LASF846
	.byte	0x1c
	.byte	0x7f
	.long	0x45cd
	.uleb128 0x2e
	.long	.LASF847
	.byte	0x1c
	.byte	0x7f
	.long	0x45cd
	.byte	0
	.uleb128 0x18
	.long	0x140c
	.long	0x529d
	.byte	0x3
	.long	0x529d
	.long	0x52bd
	.uleb128 0xf
	.long	.LASF854
	.long	0x465e
	.uleb128 0x28
	.string	"__p"
	.byte	0x5
	.byte	0xb0
	.long	0x1267
	.uleb128 0x28
	.string	"__n"
	.byte	0x5
	.byte	0xb0
	.long	0x772
	.byte	0
	.uleb128 0x36
	.long	0x1177
	.byte	0x2
	.long	0x52cb
	.long	0x52de
	.uleb128 0xf
	.long	.LASF854
	.long	0x4630
	.uleb128 0xf
	.long	.LASF861
	.long	0x300d
	.byte	0
	.uleb128 0x31
	.long	0x52bd
	.long	.LASF870
	.long	0x52ef
	.long	0x52f5
	.uleb128 0x2
	.long	0x52cb
	.byte	0
	.uleb128 0x36
	.long	0x11db
	.byte	0x2
	.long	0x5303
	.long	0x530d
	.uleb128 0xf
	.long	.LASF854
	.long	0x463b
	.byte	0
	.uleb128 0x31
	.long	0x52f5
	.long	.LASF871
	.long	0x531e
	.long	0x5324
	.uleb128 0x2
	.long	0x5303
	.byte	0
	.uleb128 0x14
	.byte	0x8
	.long	0xe5b
	.uleb128 0xd
	.byte	0x8
	.long	0xe5b
	.uleb128 0xc
	.long	0x532a
	.uleb128 0x15
	.long	0x25d3
	.byte	0x3
	.long	0x5354
	.uleb128 0x6
	.long	.LASF425
	.long	0xde2
	.uleb128 0x28
	.string	"__f"
	.byte	0x4
	.byte	0x2f
	.long	0x532a
	.byte	0
	.uleb128 0x18
	.long	0x1ddb
	.long	0x5366
	.byte	0x3
	.long	0x5366
	.long	0x537c
	.uleb128 0xf
	.long	.LASF854
	.long	0x4680
	.uleb128 0x13
	.long	.LASF766
	.byte	0x5
	.value	0x5ec
	.long	0x14ad
	.byte	0
	.uleb128 0x18
	.long	0x1d21
	.long	0x538e
	.byte	0x1
	.long	0x538e
	.long	0x53d6
	.uleb128 0xf
	.long	.LASF854
	.long	0x4680
	.uleb128 0x1a
	.string	"__n"
	.byte	0x7
	.value	0x22b
	.long	0x1501
	.uleb128 0x72
	.uleb128 0x2f
	.long	.LASF865
	.byte	0x7
	.value	0x238
	.long	0x150d
	.uleb128 0x2f
	.long	.LASF872
	.byte	0x7
	.value	0x23a
	.long	0x150d
	.uleb128 0x2f
	.long	.LASF868
	.byte	0x7
	.value	0x23b
	.long	0x14ad
	.uleb128 0x2f
	.long	.LASF873
	.byte	0x7
	.value	0x23c
	.long	0x14ad
	.byte	0
	.byte	0
	.uleb128 0xd
	.byte	0x8
	.long	0x2522
	.uleb128 0xc
	.long	0x53d6
	.uleb128 0x18
	.long	0x2549
	.long	0x53f3
	.byte	0x3
	.long	0x53f3
	.long	0x5408
	.uleb128 0xf
	.long	.LASF854
	.long	0x53dc
	.uleb128 0x2e
	.long	.LASF767
	.byte	0x4
	.byte	0x9d
	.long	0xcc0
	.byte	0
	.uleb128 0x18
	.long	0x1ec2
	.long	0x5429
	.byte	0x1
	.long	0x5429
	.long	0x543c
	.uleb128 0x3d
	.long	.LASF337
	.long	0x5429
	.uleb128 0x3e
	.long	0x39cf
	.byte	0
	.uleb128 0xf
	.long	.LASF854
	.long	0x4680
	.uleb128 0x73
	.byte	0x7
	.byte	0x60
	.uleb128 0x1
	.long	0x47a1
	.byte	0
	.byte	0
	.uleb128 0x14
	.byte	0x8
	.long	0x1f3e
	.uleb128 0x15
	.long	0x25f5
	.byte	0x3
	.long	0x5461
	.uleb128 0x10
	.string	"_Tp"
	.long	0x39cf
	.uleb128 0x28
	.string	"__t"
	.byte	0x23
	.byte	0x49
	.long	0x543c
	.byte	0
	.uleb128 0x15
	.long	0x2617
	.byte	0x3
	.long	0x5499
	.uleb128 0x6
	.long	.LASF148
	.long	0x45cd
	.uleb128 0x10
	.string	"_Tp"
	.long	0x39cf
	.uleb128 0x2e
	.long	.LASF846
	.byte	0x1c
	.byte	0xcb
	.long	0x45cd
	.uleb128 0x2e
	.long	.LASF847
	.byte	0x1c
	.byte	0xcb
	.long	0x45cd
	.uleb128 0x1
	.long	0x45fc
	.byte	0
	.uleb128 0x18
	.long	0x129e
	.long	0x54ab
	.byte	0x3
	.long	0x54ab
	.long	0x54b5
	.uleb128 0xf
	.long	.LASF854
	.long	0x465e
	.byte	0
	.uleb128 0x36
	.long	0x13cc
	.byte	0x2
	.long	0x54c3
	.long	0x54d6
	.uleb128 0xf
	.long	.LASF854
	.long	0x465e
	.uleb128 0xf
	.long	.LASF861
	.long	0x300d
	.byte	0
	.uleb128 0x31
	.long	0x54b5
	.long	.LASF874
	.long	0x54e7
	.long	0x54ed
	.uleb128 0x2
	.long	0x54c3
	.byte	0
	.uleb128 0x36
	.long	0x12f5
	.byte	0x2
	.long	0x54fb
	.long	0x5505
	.uleb128 0xf
	.long	.LASF854
	.long	0x465e
	.byte	0
	.uleb128 0x31
	.long	0x54ed
	.long	.LASF875
	.long	0x5516
	.long	0x551c
	.uleb128 0x2
	.long	0x54fb
	.byte	0
	.uleb128 0x60
	.long	0x124e
	.byte	0x5
	.byte	0x51
	.byte	0x2
	.long	0x552c
	.long	0x553f
	.uleb128 0xf
	.long	.LASF854
	.long	0x463b
	.uleb128 0xf
	.long	.LASF861
	.long	0x300d
	.byte	0
	.uleb128 0x31
	.long	0x551c
	.long	.LASF876
	.long	0x5550
	.long	0x5556
	.uleb128 0x2
	.long	0x552c
	.byte	0
	.uleb128 0x15
	.long	0x2648
	.byte	0x3
	.long	0x557f
	.uleb128 0x6
	.long	.LASF113
	.long	0x2ff9
	.uleb128 0x6
	.long	.LASF121
	.long	0x5a4
	.uleb128 0x13
	.long	.LASF877
	.byte	0x3
	.value	0x264
	.long	0x459f
	.byte	0
	.uleb128 0x18
	.long	0x2574
	.long	0x5591
	.byte	0x3
	.long	0x5591
	.long	0x55a7
	.uleb128 0xf
	.long	.LASF854
	.long	0x5168
	.uleb128 0x1a
	.string	"__c"
	.byte	0x4
	.value	0x1c1
	.long	0x2ff9
	.byte	0
	.uleb128 0x18
	.long	0x199b
	.long	0x55b9
	.byte	0x3
	.long	0x55b9
	.long	0x55cf
	.uleb128 0xf
	.long	.LASF854
	.long	0x4680
	.uleb128 0x1a
	.string	"__n"
	.byte	0x5
	.value	0x31b
	.long	0x1501
	.byte	0
	.uleb128 0xaa
	.long	0x18de
	.long	0x55f3
	.quad	.LFB2166
	.quad	.LFE2166-.LFB2166
	.uleb128 0x1
	.byte	0x9c
	.long	0x55f3
	.long	0x5c68
	.uleb128 0xab
	.long	.LASF854
	.long	0x4680
	.long	.LLST45
	.uleb128 0xac
	.long	.LASF890
	.byte	0x5
	.value	0x2b1
	.long	0x1501
	.long	.LLST46
	.uleb128 0x34
	.long	0x5c95
	.quad	.LBB736
	.quad	.LBE736-.LBB736
	.byte	0x5
	.value	0x2b3
	.long	0x5641
	.uleb128 0x3
	.long	0x5ca7
	.long	.LLST47
	.uleb128 0x3
	.long	0x5ca7
	.long	.LLST48
	.byte	0
	.uleb128 0x29
	.long	0x537c
	.quad	.LBB738
	.long	.Ldebug_ranges0+0x160
	.byte	0x5
	.value	0x2b4
	.long	0x5c31
	.uleb128 0x3
	.long	0x5397
	.long	.LLST49
	.uleb128 0x3
	.long	0x538e
	.long	.LLST50
	.uleb128 0x34
	.long	0x511f
	.quad	.LBB740
	.quad	.LBE740-.LBB740
	.byte	0x7
	.value	0x233
	.long	0x5788
	.uleb128 0x2
	.long	0x515c
	.uleb128 0x2
	.long	0x5150
	.uleb128 0x2
	.long	0x5144
	.uleb128 0xe
	.long	0x4e46
	.quad	.LBB741
	.quad	.LBE741-.LBB741
	.byte	0x1d
	.value	0x285
	.uleb128 0x2
	.long	0x4e6e
	.uleb128 0x2
	.long	0x4e62
	.uleb128 0x1f
	.quad	.LBB742
	.quad	.LBE742-.LBB742
	.uleb128 0x2c
	.long	0x4e7a
	.uleb128 0xe
	.long	0x4c9f
	.quad	.LBB743
	.quad	.LBE743-.LBB743
	.byte	0x1d
	.value	0x247
	.uleb128 0x2
	.long	0x4cc7
	.uleb128 0x2
	.long	0x4cbb
	.uleb128 0x1f
	.quad	.LBB744
	.quad	.LBE744-.LBB744
	.uleb128 0xe
	.long	0x4b6d
	.quad	.LBB745
	.quad	.LBE745-.LBB745
	.byte	0x1d
	.value	0x224
	.uleb128 0x2
	.long	0x4baa
	.uleb128 0x2
	.long	0x4b9e
	.uleb128 0x2
	.long	0x4b92
	.uleb128 0xe
	.long	0x4a8f
	.quad	.LBB746
	.quad	.LBE746-.LBB746
	.byte	0x8
	.value	0x315
	.uleb128 0x2
	.long	0x4acc
	.uleb128 0x2
	.long	0x4ac0
	.uleb128 0x2
	.long	0x4ab4
	.uleb128 0x1f
	.quad	.LBB747
	.quad	.LBE747-.LBB747
	.uleb128 0x2c
	.long	0x4ad8
	.uleb128 0x54
	.long	0x4ae4
	.quad	.LBB748
	.quad	.LBE748-.LBB748
	.uleb128 0x2c
	.long	0x4ae5
	.byte	0
	.byte	0
	.byte	0
	.byte	0
	.byte	0
	.byte	0
	.byte	0
	.byte	0
	.byte	0
	.uleb128 0x54
	.long	0x53a3
	.quad	.LBB749
	.quad	.LBE749-.LBB749
	.uleb128 0x2c
	.long	0x53a4
	.uleb128 0x2c
	.long	0x53b0
	.uleb128 0x2c
	.long	0x53bc
	.uleb128 0x17
	.long	0x53c8
	.long	.LLST51
	.uleb128 0x29
	.long	0x50df
	.quad	.LBB750
	.long	.Ldebug_ranges0+0x1a0
	.byte	0x7
	.value	0x238
	.long	0x580f
	.uleb128 0x3
	.long	0x5106
	.long	.LLST52
	.uleb128 0x3
	.long	0x50fa
	.long	.LLST53
	.uleb128 0x3
	.long	0x50f1
	.long	.LLST54
	.uleb128 0x22
	.long	.Ldebug_ranges0+0x1a0
	.uleb128 0x2c
	.long	0x5112
	.uleb128 0x1b
	.quad	.LVL61
	.long	0x2708
	.uleb128 0x9
	.uleb128 0x1
	.byte	0x55
	.uleb128 0x9
	.byte	0x3
	.quad	.LC0
	.byte	0
	.byte	0
	.byte	0
	.uleb128 0x29
	.long	0x50b8
	.quad	.LBB754
	.long	.Ldebug_ranges0+0x1e0
	.byte	0x7
	.value	0x23b
	.long	0x589e
	.uleb128 0x3
	.long	0x50ca
	.long	.LLST55
	.uleb128 0x2
	.long	0x50d3
	.uleb128 0x22
	.long	.Ldebug_ranges0+0x1e0
	.uleb128 0x20
	.long	0x4dd7
	.quad	.LBB756
	.quad	.LBE756-.LBB756
	.byte	0x5
	.byte	0xac
	.uleb128 0x2
	.long	0x4de1
	.uleb128 0x2
	.long	0x4ded
	.uleb128 0xe
	.long	0x4c40
	.quad	.LBB757
	.quad	.LBE757-.LBB757
	.byte	0x1e
	.value	0x1b4
	.uleb128 0x2
	.long	0x4c52
	.uleb128 0x3
	.long	0x4c66
	.long	.LLST56
	.uleb128 0x2
	.long	0x4c5b
	.uleb128 0x1b
	.quad	.LVL51
	.long	0x7f59
	.uleb128 0x9
	.uleb128 0x1
	.byte	0x55
	.uleb128 0x2
	.byte	0x76
	.sleb128 0
	.byte	0
	.byte	0
	.byte	0
	.byte	0
	.byte	0
	.uleb128 0x34
	.long	0x511f
	.quad	.LBB760
	.quad	.LBE760-.LBB760
	.byte	0x7
	.value	0x23f
	.long	0x59cb
	.uleb128 0x2
	.long	0x515c
	.uleb128 0x3
	.long	0x5150
	.long	.LLST57
	.uleb128 0x3
	.long	0x5144
	.long	.LLST58
	.uleb128 0xe
	.long	0x4e46
	.quad	.LBB761
	.quad	.LBE761-.LBB761
	.byte	0x1d
	.value	0x285
	.uleb128 0x2
	.long	0x4e6e
	.uleb128 0x2
	.long	0x4e62
	.uleb128 0x1f
	.quad	.LBB762
	.quad	.LBE762-.LBB762
	.uleb128 0x2c
	.long	0x4e7a
	.uleb128 0xe
	.long	0x4c9f
	.quad	.LBB763
	.quad	.LBE763-.LBB763
	.byte	0x1d
	.value	0x247
	.uleb128 0x2
	.long	0x4cc7
	.uleb128 0x2
	.long	0x4cbb
	.uleb128 0x1f
	.quad	.LBB764
	.quad	.LBE764-.LBB764
	.uleb128 0xe
	.long	0x4b6d
	.quad	.LBB765
	.quad	.LBE765-.LBB765
	.byte	0x1d
	.value	0x224
	.uleb128 0x2
	.long	0x4baa
	.uleb128 0x2
	.long	0x4b9e
	.uleb128 0x2
	.long	0x4b92
	.uleb128 0xe
	.long	0x4a8f
	.quad	.LBB766
	.quad	.LBE766-.LBB766
	.byte	0x8
	.value	0x315
	.uleb128 0x2
	.long	0x4acc
	.uleb128 0x2
	.long	0x4ac0
	.uleb128 0x3
	.long	0x4ab4
	.long	.LLST58
	.uleb128 0x1f
	.quad	.LBB767
	.quad	.LBE767-.LBB767
	.uleb128 0x2c
	.long	0x4ad8
	.uleb128 0x54
	.long	0x4ae4
	.quad	.LBB768
	.quad	.LBE768-.LBB768
	.uleb128 0x17
	.long	0x4ae5
	.long	.LLST57
	.byte	0
	.byte	0
	.byte	0
	.byte	0
	.byte	0
	.byte	0
	.byte	0
	.byte	0
	.byte	0
	.uleb128 0x34
	.long	0x5062
	.quad	.LBB769
	.quad	.LBE769-.LBB769
	.byte	0x7
	.value	0x242
	.long	0x5b9a
	.uleb128 0x2
	.long	0x50ab
	.uleb128 0x2
	.long	0x509f
	.uleb128 0x3
	.long	0x5093
	.long	.LLST61
	.uleb128 0x3
	.long	0x5087
	.long	.LLST62
	.uleb128 0xe
	.long	0x4d5f
	.quad	.LBB770
	.quad	.LBE770-.LBB770
	.byte	0x1d
	.value	0x138
	.uleb128 0x2
	.long	0x4da8
	.uleb128 0x2
	.long	0x4d9c
	.uleb128 0x2
	.long	0x4d90
	.uleb128 0x2
	.long	0x4d84
	.uleb128 0xe
	.long	0x4bb7
	.quad	.LBB771
	.quad	.LBE771-.LBB771
	.byte	0x1d
	.value	0x121
	.uleb128 0x2
	.long	0x4be9
	.uleb128 0x2
	.long	0x4bde
	.uleb128 0x2
	.long	0x4bd3
	.uleb128 0x1f
	.quad	.LBB772
	.quad	.LBE772-.LBB772
	.uleb128 0x17
	.long	0x4bf4
	.long	.LLST63
	.uleb128 0x20
	.long	0x4b13
	.quad	.LBB773
	.quad	.LBE773-.LBB773
	.byte	0x1d
	.byte	0x86
	.uleb128 0x2
	.long	0x4b45
	.uleb128 0x2
	.long	0x4b3a
	.uleb128 0x2
	.long	0x4b2f
	.uleb128 0x20
	.long	0x4a4e
	.quad	.LBB774
	.quad	.LBE774-.LBB774
	.byte	0x1d
	.byte	0x65
	.uleb128 0x2
	.long	0x4a82
	.uleb128 0x2
	.long	0x4a76
	.uleb128 0x2
	.long	0x4a6a
	.uleb128 0xe
	.long	0x49e2
	.quad	.LBB775
	.quad	.LBE775-.LBB775
	.byte	0x8
	.value	0x1c8
	.uleb128 0x2
	.long	0x4a21
	.uleb128 0x3
	.long	0x4a15
	.long	.LLST61
	.uleb128 0x3
	.long	0x4a09
	.long	.LLST62
	.uleb128 0xe
	.long	0x494e
	.quad	.LBB776
	.quad	.LBE776-.LBB776
	.byte	0x8
	.value	0x1a8
	.uleb128 0x2
	.long	0x498d
	.uleb128 0x2
	.long	0x4981
	.uleb128 0x2
	.long	0x4975
	.uleb128 0x1f
	.quad	.LBB777
	.quad	.LBE777-.LBB777
	.uleb128 0x17
	.long	0x4999
	.long	.LLST63
	.uleb128 0xe
	.long	0x490a
	.quad	.LBB778
	.quad	.LBE778-.LBB778
	.byte	0x8
	.value	0x182
	.uleb128 0x2
	.long	0x4935
	.uleb128 0x2
	.long	0x4929
	.uleb128 0x2
	.long	0x491d
	.uleb128 0x1f
	.quad	.LBB779
	.quad	.LBE779-.LBB779
	.uleb128 0x17
	.long	0x4941
	.long	.LLST67
	.uleb128 0x1b
	.quad	.LVL55
	.long	0x7f68
	.uleb128 0x9
	.uleb128 0x1
	.byte	0x55
	.uleb128 0x2
	.byte	0x7e
	.sleb128 0
	.uleb128 0x9
	.uleb128 0x1
	.byte	0x54
	.uleb128 0x2
	.byte	0x7f
	.sleb128 0
	.uleb128 0x9
	.uleb128 0x1
	.byte	0x51
	.uleb128 0x4
	.byte	0x91
	.sleb128 -72
	.byte	0x6
	.byte	0
	.byte	0
	.byte	0
	.byte	0
	.byte	0
	.byte	0
	.byte	0
	.byte	0
	.byte	0
	.byte	0
	.byte	0
	.byte	0
	.uleb128 0x1c
	.long	0x528b
	.quad	.LBB780
	.long	.Ldebug_ranges0+0x210
	.byte	0x7
	.value	0x250
	.uleb128 0x2
	.long	0x529d
	.uleb128 0x3
	.long	0x52b1
	.long	.LLST68
	.uleb128 0x3
	.long	0x52a6
	.long	.LLST69
	.uleb128 0x22
	.long	.Ldebug_ranges0+0x210
	.uleb128 0x20
	.long	0x4fcc
	.quad	.LBB782
	.quad	.LBE782-.LBB782
	.byte	0x5
	.byte	0xb4
	.uleb128 0x2
	.long	0x4fd6
	.uleb128 0x2
	.long	0x4fee
	.uleb128 0x2
	.long	0x4fe2
	.uleb128 0xe
	.long	0x4d04
	.quad	.LBB783
	.quad	.LBE783-.LBB783
	.byte	0x1e
	.value	0x1ce
	.uleb128 0x2
	.long	0x4d16
	.uleb128 0x2
	.long	0x4d2a
	.uleb128 0x2
	.long	0x4d1f
	.uleb128 0x1b
	.quad	.LVL56
	.long	0x7f75
	.uleb128 0x9
	.uleb128 0x1
	.byte	0x55
	.uleb128 0x2
	.byte	0x7f
	.sleb128 0
	.byte	0
	.byte	0
	.byte	0
	.byte	0
	.byte	0
	.byte	0
	.byte	0
	.uleb128 0x44
	.quad	.LVL41
	.long	0x7f84
	.long	0x5c54
	.uleb128 0x9
	.uleb128 0x1
	.byte	0x55
	.uleb128 0x2
	.byte	0x7d
	.sleb128 0
	.uleb128 0x9
	.uleb128 0x1
	.byte	0x54
	.uleb128 0x1
	.byte	0x30
	.uleb128 0x9
	.uleb128 0x1
	.byte	0x51
	.uleb128 0x2
	.byte	0x76
	.sleb128 0
	.byte	0
	.uleb128 0x1b
	.quad	.LVL54
	.long	0x7f84
	.uleb128 0x9
	.uleb128 0x1
	.byte	0x54
	.uleb128 0x1
	.byte	0x30
	.byte	0
	.byte	0
	.uleb128 0x14
	.byte	0x8
	.long	0xd08
	.uleb128 0x18
	.long	0xd14
	.long	0x5c80
	.byte	0x3
	.long	0x5c80
	.long	0x5c95
	.uleb128 0xf
	.long	.LASF854
	.long	0x45bb
	.uleb128 0x28
	.string	"__n"
	.byte	0x3
	.byte	0xaa
	.long	0x2f46
	.byte	0
	.uleb128 0x18
	.long	0x18a0
	.long	0x5ca7
	.byte	0x3
	.long	0x5ca7
	.long	0x5cb1
	.uleb128 0xf
	.long	.LASF854
	.long	0x46a9
	.byte	0
	.uleb128 0x15
	.long	0x2674
	.byte	0x3
	.long	0x5cdd
	.uleb128 0x6
	.long	.LASF121
	.long	0x5a4
	.uleb128 0x13
	.long	.LASF878
	.byte	0x3
	.value	0x22c
	.long	0x459f
	.uleb128 0x1a
	.string	"__s"
	.byte	0x3
	.value	0x22c
	.long	0x31ca
	.byte	0
	.uleb128 0x18
	.long	0x1b23
	.long	0x5cef
	.byte	0x3
	.long	0x5cef
	.long	0x5d05
	.uleb128 0xf
	.long	.LASF854
	.long	0x4680
	.uleb128 0x1a
	.string	"__x"
	.byte	0x5
	.value	0x3b9
	.long	0x46ae
	.byte	0
	.uleb128 0x40
	.byte	0x8
	.long	0x1f24
	.uleb128 0x15
	.long	0x269c
	.byte	0x3
	.long	0x5d2a
	.uleb128 0x10
	.string	"_Tp"
	.long	0x4602
	.uleb128 0x28
	.string	"__t"
	.byte	0x23
	.byte	0x62
	.long	0x4602
	.byte	0
	.uleb128 0x36
	.long	0x165c
	.byte	0x2
	.long	0x5d38
	.long	0x5d4b
	.uleb128 0xf
	.long	.LASF854
	.long	0x4680
	.uleb128 0xf
	.long	.LASF861
	.long	0x300d
	.byte	0
	.uleb128 0x31
	.long	0x5d2a
	.long	.LASF879
	.long	0x5d5c
	.long	0x5d62
	.uleb128 0x2
	.long	0x5d38
	.byte	0
	.uleb128 0x36
	.long	0x1523
	.byte	0x2
	.long	0x5d70
	.long	0x5d7a
	.uleb128 0xf
	.long	.LASF854
	.long	0x4680
	.byte	0
	.uleb128 0x31
	.long	0x5d62
	.long	.LASF880
	.long	0x5d8b
	.long	0x5d91
	.uleb128 0x2
	.long	0x5d70
	.byte	0
	.uleb128 0xd
	.byte	0x8
	.long	0x5d97
	.uleb128 0x70
	.long	0x5c68
	.long	0x5da6
	.uleb128 0x1
	.long	0x5c68
	.byte	0
	.uleb128 0x18
	.long	0xd37
	.long	0x5db8
	.byte	0x3
	.long	0x5db8
	.long	0x5dcd
	.uleb128 0xf
	.long	.LASF854
	.long	0x45bb
	.uleb128 0x2e
	.long	.LASF881
	.byte	0x3
	.byte	0x6c
	.long	0x5d91
	.byte	0
	.uleb128 0x15
	.long	0x26be
	.byte	0x3
	.long	0x5df6
	.uleb128 0x6
	.long	.LASF113
	.long	0x2ff9
	.uleb128 0x6
	.long	.LASF121
	.long	0x5a4
	.uleb128 0x13
	.long	.LASF877
	.byte	0x3
	.value	0x24e
	.long	0x459f
	.byte	0
	.uleb128 0xad
	.long	.LASF882
	.byte	0x2
	.byte	0x20
	.long	0x3005
	.quad	.LFB1910
	.quad	.LFE1910-.LFB1910
	.uleb128 0x1
	.byte	0x9c
	.long	0x7957
	.uleb128 0xae
	.long	.LASF883
	.byte	0x2
	.byte	0x22
	.long	0x46b4
	.uleb128 0x3
	.byte	0x91
	.sleb128 -144
	.uleb128 0x5f
	.long	.LASF884
	.byte	0x2
	.byte	0x32
	.long	0x4759
	.uleb128 0xaf
	.long	.Ldebug_ranges0+0x240
	.long	0x71c9
	.uleb128 0xb0
	.long	.LASF885
	.byte	0x2
	.byte	0x23
	.long	0x3005
	.long	.LLST70
	.uleb128 0x35
	.long	0x5cdd
	.quad	.LBB1061
	.long	.Ldebug_ranges0+0x280
	.byte	0x2
	.byte	0x25
	.long	0x64c6
	.uleb128 0x2
	.long	0x5cf8
	.uleb128 0x3
	.long	0x5cef
	.long	.LLST72
	.uleb128 0x1c
	.long	0x5408
	.quad	.LBB1062
	.long	.Ldebug_ranges0+0x280
	.byte	0x5
	.value	0x3ba
	.uleb128 0x2
	.long	0x5435
	.uleb128 0x3
	.long	0x5429
	.long	.LLST72
	.uleb128 0x21
	.long	0x521b
	.quad	.LBB1064
	.quad	.LBE1064-.LBB1064
	.byte	0x7
	.byte	0x64
	.long	0x5ef7
	.uleb128 0x3
	.long	0x523d
	.long	.LLST75
	.uleb128 0x2
	.long	0x525a
	.uleb128 0x3
	.long	0x5249
	.long	.LLST76
	.uleb128 0xe
	.long	0x4f66
	.quad	.LBB1065
	.quad	.LBE1065-.LBB1065
	.byte	0x1e
	.value	0x1db
	.uleb128 0x3
	.long	0x4f90
	.long	.LLST75
	.uleb128 0x2
	.long	0x4fa7
	.uleb128 0x3
	.long	0x4f99
	.long	.LLST76
	.byte	0
	.byte	0
	.uleb128 0x27
	.long	0x5189
	.quad	.LBB1067
	.long	.Ldebug_ranges0+0x2f0
	.byte	0x7
	.byte	0x69
	.uleb128 0x2
	.long	0x51c8
	.uleb128 0x3
	.long	0x51b3
	.long	.LLST80
	.uleb128 0x3
	.long	0x51aa
	.long	.LLST81
	.uleb128 0x22
	.long	.Ldebug_ranges0+0x2f0
	.uleb128 0x2c
	.long	0x51ce
	.uleb128 0x17
	.long	0x51da
	.long	.LLST82
	.uleb128 0x2c
	.long	0x51e6
	.uleb128 0x17
	.long	0x51f2
	.long	.LLST83
	.uleb128 0x29
	.long	0x50df
	.quad	.LBB1069
	.long	.Ldebug_ranges0+0x340
	.byte	0x7
	.value	0x193
	.long	0x5fd7
	.uleb128 0x3
	.long	0x5106
	.long	.LLST84
	.uleb128 0x3
	.long	0x50fa
	.long	.LLST85
	.uleb128 0x3
	.long	0x50f1
	.long	.LLST86
	.uleb128 0x22
	.long	.Ldebug_ranges0+0x340
	.uleb128 0x17
	.long	0x5112
	.long	.LLST87
	.uleb128 0x34
	.long	0x5c95
	.quad	.LBB1071
	.quad	.LBE1071-.LBB1071
	.byte	0x5
	.value	0x5e0
	.long	0x5fb2
	.uleb128 0x3
	.long	0x5ca7
	.long	.LLST88
	.uleb128 0x3
	.long	0x5ca7
	.long	.LLST88
	.byte	0
	.uleb128 0x1c
	.long	0x4e00
	.quad	.LBB1073
	.long	.Ldebug_ranges0+0x380
	.byte	0x5
	.value	0x5e3
	.uleb128 0x3
	.long	0x4e1e
	.long	.LLST90
	.uleb128 0x2
	.long	0x4e13
	.byte	0
	.byte	0
	.byte	0
	.uleb128 0x29
	.long	0x50b8
	.quad	.LBB1079
	.long	.Ldebug_ranges0+0x3b0
	.byte	0x7
	.value	0x196
	.long	0x606a
	.uleb128 0x3
	.long	0x50ca
	.long	.LLST92
	.uleb128 0x3
	.long	0x50d3
	.long	.LLST93
	.uleb128 0x22
	.long	.Ldebug_ranges0+0x3b0
	.uleb128 0x20
	.long	0x4dd7
	.quad	.LBB1081
	.quad	.LBE1081-.LBB1081
	.byte	0x5
	.byte	0xac
	.uleb128 0x2
	.long	0x4de1
	.uleb128 0x2
	.long	0x4ded
	.uleb128 0xe
	.long	0x4c40
	.quad	.LBB1082
	.quad	.LBE1082-.LBB1082
	.byte	0x1e
	.value	0x1b4
	.uleb128 0x2
	.long	0x4c52
	.uleb128 0x3
	.long	0x4c66
	.long	.LLST94
	.uleb128 0x2
	.long	0x4c5b
	.uleb128 0x1b
	.quad	.LVL84
	.long	0x7f59
	.uleb128 0x9
	.uleb128 0x1
	.byte	0x55
	.uleb128 0x2
	.byte	0x7f
	.sleb128 0
	.byte	0
	.byte	0
	.byte	0
	.byte	0
	.byte	0
	.uleb128 0x34
	.long	0x521b
	.quad	.LBB1085
	.quad	.LBE1085-.LBB1085
	.byte	0x7
	.value	0x19f
	.long	0x60ce
	.uleb128 0x3
	.long	0x523d
	.long	.LLST95
	.uleb128 0x2
	.long	0x525a
	.uleb128 0x3
	.long	0x5249
	.long	.LLST96
	.uleb128 0xe
	.long	0x4f66
	.quad	.LBB1086
	.quad	.LBE1086-.LBB1086
	.byte	0x1e
	.value	0x1db
	.uleb128 0x3
	.long	0x4f90
	.long	.LLST95
	.uleb128 0x2
	.long	0x4fa7
	.uleb128 0x3
	.long	0x4f99
	.long	.LLST96
	.byte	0
	.byte	0
	.uleb128 0x34
	.long	0x5062
	.quad	.LBB1088
	.quad	.LBE1088-.LBB1088
	.byte	0x7
	.value	0x1a8
	.long	0x6297
	.uleb128 0x2
	.long	0x50ab
	.uleb128 0x2
	.long	0x509f
	.uleb128 0x2
	.long	0x5093
	.uleb128 0x3
	.long	0x5087
	.long	.LLST99
	.uleb128 0xe
	.long	0x4d5f
	.quad	.LBB1089
	.quad	.LBE1089-.LBB1089
	.byte	0x1d
	.value	0x138
	.uleb128 0x2
	.long	0x4da8
	.uleb128 0x2
	.long	0x4d9c
	.uleb128 0x2
	.long	0x4d90
	.uleb128 0x2
	.long	0x4d84
	.uleb128 0xe
	.long	0x4bb7
	.quad	.LBB1090
	.quad	.LBE1090-.LBB1090
	.byte	0x1d
	.value	0x121
	.uleb128 0x2
	.long	0x4be9
	.uleb128 0x2
	.long	0x4bde
	.uleb128 0x2
	.long	0x4bd3
	.uleb128 0x1f
	.quad	.LBB1091
	.quad	.LBE1091-.LBB1091
	.uleb128 0x17
	.long	0x4bf4
	.long	.LLST100
	.uleb128 0x20
	.long	0x4b13
	.quad	.LBB1092
	.quad	.LBE1092-.LBB1092
	.byte	0x1d
	.byte	0x86
	.uleb128 0x2
	.long	0x4b45
	.uleb128 0x2
	.long	0x4b3a
	.uleb128 0x2
	.long	0x4b2f
	.uleb128 0x20
	.long	0x4a4e
	.quad	.LBB1093
	.quad	.LBE1093-.LBB1093
	.byte	0x1d
	.byte	0x65
	.uleb128 0x2
	.long	0x4a82
	.uleb128 0x2
	.long	0x4a76
	.uleb128 0x2
	.long	0x4a6a
	.uleb128 0xe
	.long	0x49e2
	.quad	.LBB1094
	.quad	.LBE1094-.LBB1094
	.byte	0x8
	.value	0x1c8
	.uleb128 0x2
	.long	0x4a21
	.uleb128 0x2
	.long	0x4a15
	.uleb128 0x3
	.long	0x4a09
	.long	.LLST99
	.uleb128 0xe
	.long	0x494e
	.quad	.LBB1095
	.quad	.LBE1095-.LBB1095
	.byte	0x8
	.value	0x1a8
	.uleb128 0x2
	.long	0x498d
	.uleb128 0x2
	.long	0x4981
	.uleb128 0x2
	.long	0x4975
	.uleb128 0x1f
	.quad	.LBB1096
	.quad	.LBE1096-.LBB1096
	.uleb128 0x17
	.long	0x4999
	.long	.LLST100
	.uleb128 0xe
	.long	0x490a
	.quad	.LBB1097
	.quad	.LBE1097-.LBB1097
	.byte	0x8
	.value	0x182
	.uleb128 0x2
	.long	0x4935
	.uleb128 0x2
	.long	0x4929
	.uleb128 0x2
	.long	0x491d
	.uleb128 0x1f
	.quad	.LBB1098
	.quad	.LBE1098-.LBB1098
	.uleb128 0x17
	.long	0x4941
	.long	.LLST103
	.uleb128 0x1b
	.quad	.LVL89
	.long	0x7f68
	.uleb128 0x9
	.uleb128 0x1
	.byte	0x55
	.uleb128 0x2
	.byte	0x7d
	.sleb128 0
	.uleb128 0x9
	.uleb128 0x1
	.byte	0x54
	.uleb128 0x4
	.byte	0x91
	.sleb128 -168
	.byte	0x6
	.uleb128 0x9
	.uleb128 0x1
	.byte	0x51
	.uleb128 0x4
	.byte	0x91
	.sleb128 -160
	.byte	0x6
	.byte	0
	.byte	0
	.byte	0
	.byte	0
	.byte	0
	.byte	0
	.byte	0
	.byte	0
	.byte	0
	.byte	0
	.byte	0
	.byte	0
	.uleb128 0x29
	.long	0x5062
	.quad	.LBB1099
	.long	.Ldebug_ranges0+0x3e0
	.byte	0x7
	.value	0x1af
	.long	0x642c
	.uleb128 0x2
	.long	0x50ab
	.uleb128 0x3
	.long	0x509f
	.long	.LLST104
	.uleb128 0x3
	.long	0x5093
	.long	.LLST105
	.uleb128 0x2
	.long	0x5087
	.uleb128 0x1c
	.long	0x4d5f
	.quad	.LBB1100
	.long	.Ldebug_ranges0+0x3e0
	.byte	0x1d
	.value	0x138
	.uleb128 0x2
	.long	0x4da8
	.uleb128 0x3
	.long	0x4d9c
	.long	.LLST104
	.uleb128 0x2
	.long	0x4d90
	.uleb128 0x2
	.long	0x4d84
	.uleb128 0x1c
	.long	0x4bb7
	.quad	.LBB1101
	.long	.Ldebug_ranges0+0x3e0
	.byte	0x1d
	.value	0x121
	.uleb128 0x3
	.long	0x4be9
	.long	.LLST104
	.uleb128 0x2
	.long	0x4bde
	.uleb128 0x2
	.long	0x4bd3
	.uleb128 0x22
	.long	.Ldebug_ranges0+0x3e0
	.uleb128 0x17
	.long	0x4bf4
	.long	.LLST108
	.uleb128 0x27
	.long	0x4b13
	.quad	.LBB1103
	.long	.Ldebug_ranges0+0x3e0
	.byte	0x1d
	.byte	0x86
	.uleb128 0x3
	.long	0x4b45
	.long	.LLST104
	.uleb128 0x2
	.long	0x4b3a
	.uleb128 0x2
	.long	0x4b2f
	.uleb128 0x27
	.long	0x4a4e
	.quad	.LBB1104
	.long	.Ldebug_ranges0+0x3e0
	.byte	0x1d
	.byte	0x65
	.uleb128 0x3
	.long	0x4a82
	.long	.LLST104
	.uleb128 0x2
	.long	0x4a76
	.uleb128 0x2
	.long	0x4a6a
	.uleb128 0x1c
	.long	0x49e2
	.quad	.LBB1105
	.long	.Ldebug_ranges0+0x3e0
	.byte	0x8
	.value	0x1c8
	.uleb128 0x3
	.long	0x4a21
	.long	.LLST104
	.uleb128 0x3
	.long	0x4a15
	.long	.LLST105
	.uleb128 0x2
	.long	0x4a09
	.uleb128 0x1c
	.long	0x494e
	.quad	.LBB1106
	.long	.Ldebug_ranges0+0x3e0
	.byte	0x8
	.value	0x1a8
	.uleb128 0x2
	.long	0x498d
	.uleb128 0x2
	.long	0x4981
	.uleb128 0x2
	.long	0x4975
	.uleb128 0x22
	.long	.Ldebug_ranges0+0x3e0
	.uleb128 0x17
	.long	0x4999
	.long	.LLST108
	.uleb128 0x1c
	.long	0x490a
	.quad	.LBB1108
	.long	.Ldebug_ranges0+0x3e0
	.byte	0x8
	.value	0x182
	.uleb128 0x2
	.long	0x4935
	.uleb128 0x2
	.long	0x4929
	.uleb128 0x2
	.long	0x491d
	.uleb128 0x22
	.long	.Ldebug_ranges0+0x3e0
	.uleb128 0x17
	.long	0x4941
	.long	.LLST114
	.uleb128 0x1b
	.quad	.LVL92
	.long	0x7f68
	.uleb128 0x9
	.uleb128 0x1
	.byte	0x54
	.uleb128 0x2
	.byte	0x73
	.sleb128 0
	.uleb128 0x9
	.uleb128 0x1
	.byte	0x51
	.uleb128 0x4
	.byte	0x91
	.sleb128 -176
	.byte	0x6
	.byte	0
	.byte	0
	.byte	0
	.byte	0
	.byte	0
	.byte	0
	.byte	0
	.byte	0
	.byte	0
	.byte	0
	.byte	0
	.byte	0
	.uleb128 0xe
	.long	0x528b
	.quad	.LBB1121
	.quad	.LBE1121-.LBB1121
	.byte	0x7
	.value	0x1c0
	.uleb128 0x2
	.long	0x529d
	.uleb128 0x2
	.long	0x52b1
	.uleb128 0x2
	.long	0x52a6
	.uleb128 0x1f
	.quad	.LBB1122
	.quad	.LBE1122-.LBB1122
	.uleb128 0x20
	.long	0x4fcc
	.quad	.LBB1123
	.quad	.LBE1123-.LBB1123
	.byte	0x5
	.byte	0xb4
	.uleb128 0x2
	.long	0x4fd6
	.uleb128 0x2
	.long	0x4fee
	.uleb128 0x2
	.long	0x4fe2
	.uleb128 0xe
	.long	0x4d04
	.quad	.LBB1124
	.quad	.LBE1124-.LBB1124
	.byte	0x1e
	.value	0x1ce
	.uleb128 0x2
	.long	0x4d16
	.uleb128 0x2
	.long	0x4d2a
	.uleb128 0x2
	.long	0x4d1f
	.uleb128 0x26
	.quad	.LVL95
	.long	0x7f75
	.byte	0
	.byte	0
	.byte	0
	.byte	0
	.byte	0
	.byte	0
	.byte	0
	.byte	0
	.uleb128 0x35
	.long	0x5cdd
	.quad	.LBB1145
	.long	.Ldebug_ranges0+0x410
	.byte	0x2
	.byte	0x26
	.long	0x6b43
	.uleb128 0x2
	.long	0x5cf8
	.uleb128 0x3
	.long	0x5cef
	.long	.LLST116
	.uleb128 0x1c
	.long	0x5408
	.quad	.LBB1146
	.long	.Ldebug_ranges0+0x410
	.byte	0x5
	.value	0x3ba
	.uleb128 0x2
	.long	0x5435
	.uleb128 0x3
	.long	0x5429
	.long	.LLST116
	.uleb128 0x21
	.long	0x521b
	.quad	.LBB1148
	.quad	.LBE1148-.LBB1148
	.byte	0x7
	.byte	0x64
	.long	0x6570
	.uleb128 0x3
	.long	0x523d
	.long	.LLST119
	.uleb128 0x2
	.long	0x525a
	.uleb128 0x3
	.long	0x5249
	.long	.LLST120
	.uleb128 0xe
	.long	0x4f66
	.quad	.LBB1149
	.quad	.LBE1149-.LBB1149
	.byte	0x1e
	.value	0x1db
	.uleb128 0x3
	.long	0x4f90
	.long	.LLST119
	.uleb128 0x2
	.long	0x4fa7
	.uleb128 0x3
	.long	0x4f99
	.long	.LLST120
	.byte	0
	.byte	0
	.uleb128 0x27
	.long	0x5189
	.quad	.LBB1151
	.long	.Ldebug_ranges0+0x480
	.byte	0x7
	.byte	0x69
	.uleb128 0x2
	.long	0x51c8
	.uleb128 0x3
	.long	0x51b3
	.long	.LLST124
	.uleb128 0x3
	.long	0x51aa
	.long	.LLST125
	.uleb128 0x22
	.long	.Ldebug_ranges0+0x480
	.uleb128 0x2c
	.long	0x51ce
	.uleb128 0x17
	.long	0x51da
	.long	.LLST126
	.uleb128 0x2c
	.long	0x51e6
	.uleb128 0x17
	.long	0x51f2
	.long	.LLST127
	.uleb128 0x29
	.long	0x50df
	.quad	.LBB1153
	.long	.Ldebug_ranges0+0x4d0
	.byte	0x7
	.value	0x193
	.long	0x664c
	.uleb128 0x3
	.long	0x5106
	.long	.LLST128
	.uleb128 0x3
	.long	0x50fa
	.long	.LLST129
	.uleb128 0x3
	.long	0x50f1
	.long	.LLST130
	.uleb128 0x22
	.long	.Ldebug_ranges0+0x4d0
	.uleb128 0x17
	.long	0x5112
	.long	.LLST131
	.uleb128 0x29
	.long	0x5c95
	.quad	.LBB1155
	.long	.Ldebug_ranges0+0x510
	.byte	0x5
	.value	0x5e0
	.long	0x6627
	.uleb128 0x3
	.long	0x5ca7
	.long	.LLST132
	.uleb128 0x3
	.long	0x5ca7
	.long	.LLST132
	.byte	0
	.uleb128 0x1c
	.long	0x4e00
	.quad	.LBB1159
	.long	.Ldebug_ranges0+0x540
	.byte	0x5
	.value	0x5e3
	.uleb128 0x3
	.long	0x4e1e
	.long	.LLST134
	.uleb128 0x2
	.long	0x4e13
	.byte	0
	.byte	0
	.byte	0
	.uleb128 0x29
	.long	0x50b8
	.quad	.LBB1165
	.long	.Ldebug_ranges0+0x570
	.byte	0x7
	.value	0x196
	.long	0x66df
	.uleb128 0x3
	.long	0x50ca
	.long	.LLST136
	.uleb128 0x3
	.long	0x50d3
	.long	.LLST137
	.uleb128 0x22
	.long	.Ldebug_ranges0+0x570
	.uleb128 0x20
	.long	0x4dd7
	.quad	.LBB1167
	.quad	.LBE1167-.LBB1167
	.byte	0x5
	.byte	0xac
	.uleb128 0x2
	.long	0x4de1
	.uleb128 0x2
	.long	0x4ded
	.uleb128 0xe
	.long	0x4c40
	.quad	.LBB1168
	.quad	.LBE1168-.LBB1168
	.byte	0x1e
	.value	0x1b4
	.uleb128 0x2
	.long	0x4c52
	.uleb128 0x3
	.long	0x4c66
	.long	.LLST138
	.uleb128 0x2
	.long	0x4c5b
	.uleb128 0x1b
	.quad	.LVL103
	.long	0x7f59
	.uleb128 0x9
	.uleb128 0x1
	.byte	0x55
	.uleb128 0x2
	.byte	0x7f
	.sleb128 0
	.byte	0
	.byte	0
	.byte	0
	.byte	0
	.byte	0
	.uleb128 0x34
	.long	0x521b
	.quad	.LBB1171
	.quad	.LBE1171-.LBB1171
	.byte	0x7
	.value	0x19f
	.long	0x6743
	.uleb128 0x3
	.long	0x523d
	.long	.LLST139
	.uleb128 0x2
	.long	0x525a
	.uleb128 0x3
	.long	0x5249
	.long	.LLST140
	.uleb128 0xe
	.long	0x4f66
	.quad	.LBB1172
	.quad	.LBE1172-.LBB1172
	.byte	0x1e
	.value	0x1db
	.uleb128 0x3
	.long	0x4f90
	.long	.LLST139
	.uleb128 0x2
	.long	0x4fa7
	.uleb128 0x3
	.long	0x4f99
	.long	.LLST140
	.byte	0
	.byte	0
	.uleb128 0x34
	.long	0x5062
	.quad	.LBB1174
	.quad	.LBE1174-.LBB1174
	.byte	0x7
	.value	0x1a8
	.long	0x690e
	.uleb128 0x2
	.long	0x50ab
	.uleb128 0x2
	.long	0x509f
	.uleb128 0x3
	.long	0x5093
	.long	.LLST143
	.uleb128 0x3
	.long	0x5087
	.long	.LLST144
	.uleb128 0xe
	.long	0x4d5f
	.quad	.LBB1175
	.quad	.LBE1175-.LBB1175
	.byte	0x1d
	.value	0x138
	.uleb128 0x2
	.long	0x4da8
	.uleb128 0x2
	.long	0x4d9c
	.uleb128 0x2
	.long	0x4d90
	.uleb128 0x2
	.long	0x4d84
	.uleb128 0xe
	.long	0x4bb7
	.quad	.LBB1176
	.quad	.LBE1176-.LBB1176
	.byte	0x1d
	.value	0x121
	.uleb128 0x2
	.long	0x4be9
	.uleb128 0x2
	.long	0x4bde
	.uleb128 0x2
	.long	0x4bd3
	.uleb128 0x1f
	.quad	.LBB1177
	.quad	.LBE1177-.LBB1177
	.uleb128 0x17
	.long	0x4bf4
	.long	.LLST145
	.uleb128 0x20
	.long	0x4b13
	.quad	.LBB1178
	.quad	.LBE1178-.LBB1178
	.byte	0x1d
	.byte	0x86
	.uleb128 0x2
	.long	0x4b45
	.uleb128 0x2
	.long	0x4b3a
	.uleb128 0x2
	.long	0x4b2f
	.uleb128 0x20
	.long	0x4a4e
	.quad	.LBB1179
	.quad	.LBE1179-.LBB1179
	.byte	0x1d
	.byte	0x65
	.uleb128 0x2
	.long	0x4a82
	.uleb128 0x2
	.long	0x4a76
	.uleb128 0x2
	.long	0x4a6a
	.uleb128 0xe
	.long	0x49e2
	.quad	.LBB1180
	.quad	.LBE1180-.LBB1180
	.byte	0x8
	.value	0x1c8
	.uleb128 0x2
	.long	0x4a21
	.uleb128 0x3
	.long	0x4a15
	.long	.LLST143
	.uleb128 0x3
	.long	0x4a09
	.long	.LLST144
	.uleb128 0xe
	.long	0x494e
	.quad	.LBB1181
	.quad	.LBE1181-.LBB1181
	.byte	0x8
	.value	0x1a8
	.uleb128 0x2
	.long	0x498d
	.uleb128 0x2
	.long	0x4981
	.uleb128 0x2
	.long	0x4975
	.uleb128 0x1f
	.quad	.LBB1182
	.quad	.LBE1182-.LBB1182
	.uleb128 0x17
	.long	0x4999
	.long	.LLST145
	.uleb128 0xe
	.long	0x490a
	.quad	.LBB1183
	.quad	.LBE1183-.LBB1183
	.byte	0x8
	.value	0x182
	.uleb128 0x2
	.long	0x4935
	.uleb128 0x2
	.long	0x4929
	.uleb128 0x2
	.long	0x491d
	.uleb128 0x1f
	.quad	.LBB1184
	.quad	.LBE1184-.LBB1184
	.uleb128 0x17
	.long	0x4941
	.long	.LLST149
	.uleb128 0x1b
	.quad	.LVL107
	.long	0x7f68
	.uleb128 0x9
	.uleb128 0x1
	.byte	0x54
	.uleb128 0x4
	.byte	0x91
	.sleb128 -176
	.byte	0x6
	.uleb128 0x9
	.uleb128 0x1
	.byte	0x51
	.uleb128 0x4
	.byte	0x91
	.sleb128 -168
	.byte	0x6
	.byte	0
	.byte	0
	.byte	0
	.byte	0
	.byte	0
	.byte	0
	.byte	0
	.byte	0
	.byte	0
	.byte	0
	.byte	0
	.byte	0
	.uleb128 0x29
	.long	0x5062
	.quad	.LBB1185
	.long	.Ldebug_ranges0+0x5a0
	.byte	0x7
	.value	0x1af
	.long	0x6aa9
	.uleb128 0x2
	.long	0x50ab
	.uleb128 0x3
	.long	0x509f
	.long	.LLST150
	.uleb128 0x3
	.long	0x5093
	.long	.LLST151
	.uleb128 0x3
	.long	0x5087
	.long	.LLST152
	.uleb128 0x1c
	.long	0x4d5f
	.quad	.LBB1186
	.long	.Ldebug_ranges0+0x5a0
	.byte	0x1d
	.value	0x138
	.uleb128 0x2
	.long	0x4da8
	.uleb128 0x3
	.long	0x4d9c
	.long	.LLST150
	.uleb128 0x2
	.long	0x4d90
	.uleb128 0x2
	.long	0x4d84
	.uleb128 0x1c
	.long	0x4bb7
	.quad	.LBB1187
	.long	.Ldebug_ranges0+0x5a0
	.byte	0x1d
	.value	0x121
	.uleb128 0x3
	.long	0x4be9
	.long	.LLST150
	.uleb128 0x2
	.long	0x4bde
	.uleb128 0x2
	.long	0x4bd3
	.uleb128 0x22
	.long	.Ldebug_ranges0+0x5a0
	.uleb128 0x17
	.long	0x4bf4
	.long	.LLST155
	.uleb128 0x27
	.long	0x4b13
	.quad	.LBB1189
	.long	.Ldebug_ranges0+0x5a0
	.byte	0x1d
	.byte	0x86
	.uleb128 0x3
	.long	0x4b45
	.long	.LLST150
	.uleb128 0x2
	.long	0x4b3a
	.uleb128 0x2
	.long	0x4b2f
	.uleb128 0x27
	.long	0x4a4e
	.quad	.LBB1190
	.long	.Ldebug_ranges0+0x5a0
	.byte	0x1d
	.byte	0x65
	.uleb128 0x3
	.long	0x4a82
	.long	.LLST150
	.uleb128 0x2
	.long	0x4a76
	.uleb128 0x2
	.long	0x4a6a
	.uleb128 0x1c
	.long	0x49e2
	.quad	.LBB1191
	.long	.Ldebug_ranges0+0x5a0
	.byte	0x8
	.value	0x1c8
	.uleb128 0x3
	.long	0x4a21
	.long	.LLST150
	.uleb128 0x3
	.long	0x4a15
	.long	.LLST151
	.uleb128 0x3
	.long	0x4a09
	.long	.LLST152
	.uleb128 0x1c
	.long	0x494e
	.quad	.LBB1192
	.long	.Ldebug_ranges0+0x5a0
	.byte	0x8
	.value	0x1a8
	.uleb128 0x2
	.long	0x498d
	.uleb128 0x2
	.long	0x4981
	.uleb128 0x2
	.long	0x4975
	.uleb128 0x22
	.long	.Ldebug_ranges0+0x5a0
	.uleb128 0x17
	.long	0x4999
	.long	.LLST155
	.uleb128 0x1c
	.long	0x490a
	.quad	.LBB1194
	.long	.Ldebug_ranges0+0x5a0
	.byte	0x8
	.value	0x182
	.uleb128 0x2
	.long	0x4935
	.uleb128 0x2
	.long	0x4929
	.uleb128 0x2
	.long	0x491d
	.uleb128 0x22
	.long	.Ldebug_ranges0+0x5a0
	.uleb128 0x17
	.long	0x4941
	.long	.LLST162
	.uleb128 0x1b
	.quad	.LVL110
	.long	0x7f68
	.uleb128 0x9
	.uleb128 0x1
	.byte	0x54
	.uleb128 0x2
	.byte	0x73
	.sleb128 0
	.uleb128 0x9
	.uleb128 0x1
	.byte	0x51
	.uleb128 0x2
	.byte	0x7d
	.sleb128 0
	.byte	0
	.byte	0
	.byte	0
	.byte	0
	.byte	0
	.byte	0
	.byte	0
	.byte	0
	.byte	0
	.byte	0
	.byte	0
	.byte	0
	.uleb128 0xe
	.long	0x528b
	.quad	.LBB1207
	.quad	.LBE1207-.LBB1207
	.byte	0x7
	.value	0x1c0
	.uleb128 0x2
	.long	0x529d
	.uleb128 0x2
	.long	0x52b1
	.uleb128 0x2
	.long	0x52a6
	.uleb128 0x1f
	.quad	.LBB1208
	.quad	.LBE1208-.LBB1208
	.uleb128 0x20
	.long	0x4fcc
	.quad	.LBB1209
	.quad	.LBE1209-.LBB1209
	.byte	0x5
	.byte	0xb4
	.uleb128 0x2
	.long	0x4fd6
	.uleb128 0x2
	.long	0x4fee
	.uleb128 0x2
	.long	0x4fe2
	.uleb128 0xe
	.long	0x4d04
	.quad	.LBB1210
	.quad	.LBE1210-.LBB1210
	.byte	0x1e
	.value	0x1ce
	.uleb128 0x2
	.long	0x4d16
	.uleb128 0x2
	.long	0x4d2a
	.uleb128 0x2
	.long	0x4d1f
	.uleb128 0x26
	.quad	.LVL113
	.long	0x7f75
	.byte	0
	.byte	0
	.byte	0
	.byte	0
	.byte	0
	.byte	0
	.byte	0
	.byte	0
	.uleb128 0x27
	.long	0x5cdd
	.quad	.LBB1231
	.long	.Ldebug_ranges0+0x5d0
	.byte	0x2
	.byte	0x27
	.uleb128 0x2
	.long	0x5cf8
	.uleb128 0x3
	.long	0x5cef
	.long	.LLST164
	.uleb128 0x1c
	.long	0x5408
	.quad	.LBB1232
	.long	.Ldebug_ranges0+0x5d0
	.byte	0x5
	.value	0x3ba
	.uleb128 0x2
	.long	0x5435
	.uleb128 0x3
	.long	0x5429
	.long	.LLST164
	.uleb128 0x21
	.long	0x521b
	.quad	.LBB1234
	.quad	.LBE1234-.LBB1234
	.byte	0x7
	.byte	0x64
	.long	0x6be9
	.uleb128 0x3
	.long	0x523d
	.long	.LLST167
	.uleb128 0x2
	.long	0x525a
	.uleb128 0x3
	.long	0x5249
	.long	.LLST168
	.uleb128 0xe
	.long	0x4f66
	.quad	.LBB1235
	.quad	.LBE1235-.LBB1235
	.byte	0x1e
	.value	0x1db
	.uleb128 0x3
	.long	0x4f90
	.long	.LLST167
	.uleb128 0x2
	.long	0x4fa7
	.uleb128 0x3
	.long	0x4f99
	.long	.LLST168
	.byte	0
	.byte	0
	.uleb128 0x27
	.long	0x5189
	.quad	.LBB1237
	.long	.Ldebug_ranges0+0x670
	.byte	0x7
	.byte	0x69
	.uleb128 0x2
	.long	0x51c8
	.uleb128 0x3
	.long	0x51b3
	.long	.LLST172
	.uleb128 0x3
	.long	0x51aa
	.long	.LLST173
	.uleb128 0x22
	.long	.Ldebug_ranges0+0x670
	.uleb128 0x2c
	.long	0x51ce
	.uleb128 0x17
	.long	0x51da
	.long	.LLST174
	.uleb128 0x2c
	.long	0x51e6
	.uleb128 0x17
	.long	0x51f2
	.long	.LLST175
	.uleb128 0x29
	.long	0x50df
	.quad	.LBB1239
	.long	.Ldebug_ranges0+0x6d0
	.byte	0x7
	.value	0x193
	.long	0x6cc9
	.uleb128 0x3
	.long	0x5106
	.long	.LLST176
	.uleb128 0x3
	.long	0x50fa
	.long	.LLST177
	.uleb128 0x3
	.long	0x50f1
	.long	.LLST178
	.uleb128 0x22
	.long	.Ldebug_ranges0+0x6d0
	.uleb128 0x17
	.long	0x5112
	.long	.LLST179
	.uleb128 0x34
	.long	0x5c95
	.quad	.LBB1241
	.quad	.LBE1241-.LBB1241
	.byte	0x5
	.value	0x5e0
	.long	0x6ca4
	.uleb128 0x3
	.long	0x5ca7
	.long	.LLST180
	.uleb128 0x3
	.long	0x5ca7
	.long	.LLST180
	.byte	0
	.uleb128 0x1c
	.long	0x4e00
	.quad	.LBB1243
	.long	.Ldebug_ranges0+0x710
	.byte	0x5
	.value	0x5e3
	.uleb128 0x3
	.long	0x4e1e
	.long	.LLST182
	.uleb128 0x2
	.long	0x4e13
	.byte	0
	.byte	0
	.byte	0
	.uleb128 0x29
	.long	0x50b8
	.quad	.LBB1249
	.long	.Ldebug_ranges0+0x740
	.byte	0x7
	.value	0x196
	.long	0x6d5c
	.uleb128 0x3
	.long	0x50ca
	.long	.LLST184
	.uleb128 0x3
	.long	0x50d3
	.long	.LLST185
	.uleb128 0x22
	.long	.Ldebug_ranges0+0x740
	.uleb128 0x20
	.long	0x4dd7
	.quad	.LBB1251
	.quad	.LBE1251-.LBB1251
	.byte	0x5
	.byte	0xac
	.uleb128 0x2
	.long	0x4de1
	.uleb128 0x2
	.long	0x4ded
	.uleb128 0xe
	.long	0x4c40
	.quad	.LBB1252
	.quad	.LBE1252-.LBB1252
	.byte	0x1e
	.value	0x1b4
	.uleb128 0x2
	.long	0x4c52
	.uleb128 0x3
	.long	0x4c66
	.long	.LLST186
	.uleb128 0x2
	.long	0x4c5b
	.uleb128 0x1b
	.quad	.LVL121
	.long	0x7f59
	.uleb128 0x9
	.uleb128 0x1
	.byte	0x55
	.uleb128 0x2
	.byte	0x7f
	.sleb128 0
	.byte	0
	.byte	0
	.byte	0
	.byte	0
	.byte	0
	.uleb128 0x34
	.long	0x521b
	.quad	.LBB1255
	.quad	.LBE1255-.LBB1255
	.byte	0x7
	.value	0x19f
	.long	0x6dc0
	.uleb128 0x3
	.long	0x523d
	.long	.LLST187
	.uleb128 0x2
	.long	0x525a
	.uleb128 0x3
	.long	0x5249
	.long	.LLST188
	.uleb128 0xe
	.long	0x4f66
	.quad	.LBB1256
	.quad	.LBE1256-.LBB1256
	.byte	0x1e
	.value	0x1db
	.uleb128 0x3
	.long	0x4f90
	.long	.LLST187
	.uleb128 0x2
	.long	0x4fa7
	.uleb128 0x3
	.long	0x4f99
	.long	.LLST188
	.byte	0
	.byte	0
	.uleb128 0x34
	.long	0x5062
	.quad	.LBB1258
	.quad	.LBE1258-.LBB1258
	.byte	0x7
	.value	0x1a8
	.long	0x6f91
	.uleb128 0x2
	.long	0x50ab
	.uleb128 0x2
	.long	0x509f
	.uleb128 0x3
	.long	0x5093
	.long	.LLST191
	.uleb128 0x3
	.long	0x5087
	.long	.LLST192
	.uleb128 0xe
	.long	0x4d5f
	.quad	.LBB1259
	.quad	.LBE1259-.LBB1259
	.byte	0x1d
	.value	0x138
	.uleb128 0x2
	.long	0x4da8
	.uleb128 0x2
	.long	0x4d9c
	.uleb128 0x2
	.long	0x4d90
	.uleb128 0x2
	.long	0x4d84
	.uleb128 0xe
	.long	0x4bb7
	.quad	.LBB1260
	.quad	.LBE1260-.LBB1260
	.byte	0x1d
	.value	0x121
	.uleb128 0x2
	.long	0x4be9
	.uleb128 0x2
	.long	0x4bde
	.uleb128 0x2
	.long	0x4bd3
	.uleb128 0x1f
	.quad	.LBB1261
	.quad	.LBE1261-.LBB1261
	.uleb128 0x17
	.long	0x4bf4
	.long	.LLST193
	.uleb128 0x20
	.long	0x4b13
	.quad	.LBB1262
	.quad	.LBE1262-.LBB1262
	.byte	0x1d
	.byte	0x86
	.uleb128 0x2
	.long	0x4b45
	.uleb128 0x2
	.long	0x4b3a
	.uleb128 0x2
	.long	0x4b2f
	.uleb128 0x20
	.long	0x4a4e
	.quad	.LBB1263
	.quad	.LBE1263-.LBB1263
	.byte	0x1d
	.byte	0x65
	.uleb128 0x2
	.long	0x4a82
	.uleb128 0x2
	.long	0x4a76
	.uleb128 0x2
	.long	0x4a6a
	.uleb128 0xe
	.long	0x49e2
	.quad	.LBB1264
	.quad	.LBE1264-.LBB1264
	.byte	0x8
	.value	0x1c8
	.uleb128 0x2
	.long	0x4a21
	.uleb128 0x3
	.long	0x4a15
	.long	.LLST191
	.uleb128 0x3
	.long	0x4a09
	.long	.LLST192
	.uleb128 0xe
	.long	0x494e
	.quad	.LBB1265
	.quad	.LBE1265-.LBB1265
	.byte	0x8
	.value	0x1a8
	.uleb128 0x2
	.long	0x498d
	.uleb128 0x2
	.long	0x4981
	.uleb128 0x2
	.long	0x4975
	.uleb128 0x1f
	.quad	.LBB1266
	.quad	.LBE1266-.LBB1266
	.uleb128 0x17
	.long	0x4999
	.long	.LLST193
	.uleb128 0xe
	.long	0x490a
	.quad	.LBB1267
	.quad	.LBE1267-.LBB1267
	.byte	0x8
	.value	0x182
	.uleb128 0x2
	.long	0x4935
	.uleb128 0x2
	.long	0x4929
	.uleb128 0x2
	.long	0x491d
	.uleb128 0x1f
	.quad	.LBB1268
	.quad	.LBE1268-.LBB1268
	.uleb128 0x17
	.long	0x4941
	.long	.LLST197
	.uleb128 0x1b
	.quad	.LVL126
	.long	0x7f68
	.uleb128 0x9
	.uleb128 0x1
	.byte	0x55
	.uleb128 0x2
	.byte	0x7d
	.sleb128 0
	.uleb128 0x9
	.uleb128 0x1
	.byte	0x54
	.uleb128 0x4
	.byte	0x91
	.sleb128 -168
	.byte	0x6
	.uleb128 0x9
	.uleb128 0x1
	.byte	0x51
	.uleb128 0x4
	.byte	0x91
	.sleb128 -160
	.byte	0x6
	.byte	0
	.byte	0
	.byte	0
	.byte	0
	.byte	0
	.byte	0
	.byte	0
	.byte	0
	.byte	0
	.byte	0
	.byte	0
	.byte	0
	.uleb128 0x29
	.long	0x5062
	.quad	.LBB1269
	.long	.Ldebug_ranges0+0x770
	.byte	0x7
	.value	0x1af
	.long	0x712e
	.uleb128 0x2
	.long	0x50ab
	.uleb128 0x3
	.long	0x509f
	.long	.LLST198
	.uleb128 0x3
	.long	0x5093
	.long	.LLST199
	.uleb128 0x3
	.long	0x5087
	.long	.LLST200
	.uleb128 0x1c
	.long	0x4d5f
	.quad	.LBB1270
	.long	.Ldebug_ranges0+0x770
	.byte	0x1d
	.value	0x138
	.uleb128 0x2
	.long	0x4da8
	.uleb128 0x3
	.long	0x4d9c
	.long	.LLST198
	.uleb128 0x2
	.long	0x4d90
	.uleb128 0x2
	.long	0x4d84
	.uleb128 0x1c
	.long	0x4bb7
	.quad	.LBB1271
	.long	.Ldebug_ranges0+0x770
	.byte	0x1d
	.value	0x121
	.uleb128 0x3
	.long	0x4be9
	.long	.LLST198
	.uleb128 0x2
	.long	0x4bde
	.uleb128 0x2
	.long	0x4bd3
	.uleb128 0x22
	.long	.Ldebug_ranges0+0x770
	.uleb128 0x17
	.long	0x4bf4
	.long	.LLST203
	.uleb128 0x27
	.long	0x4b13
	.quad	.LBB1273
	.long	.Ldebug_ranges0+0x770
	.byte	0x1d
	.byte	0x86
	.uleb128 0x3
	.long	0x4b45
	.long	.LLST198
	.uleb128 0x2
	.long	0x4b3a
	.uleb128 0x2
	.long	0x4b2f
	.uleb128 0x27
	.long	0x4a4e
	.quad	.LBB1274
	.long	.Ldebug_ranges0+0x770
	.byte	0x1d
	.byte	0x65
	.uleb128 0x3
	.long	0x4a82
	.long	.LLST198
	.uleb128 0x2
	.long	0x4a76
	.uleb128 0x2
	.long	0x4a6a
	.uleb128 0x1c
	.long	0x49e2
	.quad	.LBB1275
	.long	.Ldebug_ranges0+0x770
	.byte	0x8
	.value	0x1c8
	.uleb128 0x3
	.long	0x4a21
	.long	.LLST198
	.uleb128 0x3
	.long	0x4a15
	.long	.LLST199
	.uleb128 0x3
	.long	0x4a09
	.long	.LLST200
	.uleb128 0x1c
	.long	0x494e
	.quad	.LBB1276
	.long	.Ldebug_ranges0+0x770
	.byte	0x8
	.value	0x1a8
	.uleb128 0x2
	.long	0x498d
	.uleb128 0x2
	.long	0x4981
	.uleb128 0x2
	.long	0x4975
	.uleb128 0x22
	.long	.Ldebug_ranges0+0x770
	.uleb128 0x17
	.long	0x4999
	.long	.LLST203
	.uleb128 0x1c
	.long	0x490a
	.quad	.LBB1278
	.long	.Ldebug_ranges0+0x770
	.byte	0x8
	.value	0x182
	.uleb128 0x2
	.long	0x4935
	.uleb128 0x2
	.long	0x4929
	.uleb128 0x2
	.long	0x491d
	.uleb128 0x22
	.long	.Ldebug_ranges0+0x770
	.uleb128 0x17
	.long	0x4941
	.long	.LLST210
	.uleb128 0x1b
	.quad	.LVL129
	.long	0x7f68
	.uleb128 0x9
	.uleb128 0x1
	.byte	0x54
	.uleb128 0x2
	.byte	0x73
	.sleb128 0
	.uleb128 0x9
	.uleb128 0x1
	.byte	0x51
	.uleb128 0x4
	.byte	0x91
	.sleb128 -176
	.byte	0x6
	.byte	0
	.byte	0
	.byte	0
	.byte	0
	.byte	0
	.byte	0
	.byte	0
	.byte	0
	.byte	0
	.byte	0
	.byte	0
	.byte	0
	.uleb128 0xe
	.long	0x528b
	.quad	.LBB1291
	.quad	.LBE1291-.LBB1291
	.byte	0x7
	.value	0x1c0
	.uleb128 0x2
	.long	0x529d
	.uleb128 0x2
	.long	0x52b1
	.uleb128 0x2
	.long	0x52a6
	.uleb128 0x1f
	.quad	.LBB1292
	.quad	.LBE1292-.LBB1292
	.uleb128 0x20
	.long	0x4fcc
	.quad	.LBB1293
	.quad	.LBE1293-.LBB1293
	.byte	0x5
	.byte	0xb4
	.uleb128 0x2
	.long	0x4fd6
	.uleb128 0x2
	.long	0x4fee
	.uleb128 0x2
	.long	0x4fe2
	.uleb128 0xe
	.long	0x4d04
	.quad	.LBB1294
	.quad	.LBE1294-.LBB1294
	.byte	0x1e
	.value	0x1ce
	.uleb128 0x2
	.long	0x4d16
	.uleb128 0x2
	.long	0x4d2a
	.uleb128 0x2
	.long	0x4d1f
	.uleb128 0x26
	.quad	.LVL133
	.long	0x7f75
	.byte	0
	.byte	0
	.byte	0
	.byte	0
	.byte	0
	.byte	0
	.byte	0
	.byte	0
	.byte	0
	.uleb128 0xb1
	.long	0x71db
	.uleb128 0x5f
	.long	.LASF886
	.byte	0x2
	.byte	0x33
	.long	0x3005
	.byte	0
	.uleb128 0x35
	.long	0x7c9b
	.quad	.LBB1341
	.long	.Ldebug_ranges0+0x7a0
	.byte	0x2
	.byte	0x22
	.long	0x7318
	.uleb128 0x3
	.long	0x7cab
	.long	.LLST211
	.uleb128 0x35
	.long	0x5d62
	.quad	.LBB1342
	.long	.Ldebug_ranges0+0x7e0
	.byte	0x2
	.byte	0xa
	.long	0x7257
	.uleb128 0x3
	.long	0x5d70
	.long	.LLST212
	.uleb128 0x1c
	.long	0x54ed
	.quad	.LBB1343
	.long	.Ldebug_ranges0+0x7e0
	.byte	0x5
	.value	0x107
	.uleb128 0x3
	.long	0x54fb
	.long	.LLST212
	.uleb128 0x27
	.long	0x52f5
	.quad	.LBB1344
	.long	.Ldebug_ranges0+0x7e0
	.byte	0x5
	.byte	0x7f
	.uleb128 0x3
	.long	0x5303
	.long	.LLST212
	.byte	0
	.byte	0
	.byte	0
	.uleb128 0x35
	.long	0x5d62
	.quad	.LBB1351
	.long	.Ldebug_ranges0+0x810
	.byte	0x2
	.byte	0xa
	.long	0x72b3
	.uleb128 0x3
	.long	0x5d70
	.long	.LLST215
	.uleb128 0x1c
	.long	0x54ed
	.quad	.LBB1352
	.long	.Ldebug_ranges0+0x810
	.byte	0x5
	.value	0x107
	.uleb128 0x3
	.long	0x54fb
	.long	.LLST215
	.uleb128 0x27
	.long	0x52f5
	.quad	.LBB1353
	.long	.Ldebug_ranges0+0x810
	.byte	0x5
	.byte	0x7f
	.uleb128 0x3
	.long	0x5303
	.long	.LLST215
	.byte	0
	.byte	0
	.byte	0
	.uleb128 0x20
	.long	0x5d62
	.quad	.LBB1361
	.quad	.LBE1361-.LBB1361
	.byte	0x2
	.byte	0xa
	.uleb128 0x3
	.long	0x5d70
	.long	.LLST218
	.uleb128 0xe
	.long	0x54ed
	.quad	.LBB1362
	.quad	.LBE1362-.LBB1362
	.byte	0x5
	.value	0x107
	.uleb128 0x3
	.long	0x54fb
	.long	.LLST218
	.uleb128 0x20
	.long	0x52f5
	.quad	.LBB1363
	.quad	.LBE1363-.LBB1363
	.byte	0x5
	.byte	0x7f
	.uleb128 0x3
	.long	0x5303
	.long	.LLST218
	.byte	0
	.byte	0
	.byte	0
	.byte	0
	.uleb128 0x21
	.long	0x5cb1
	.quad	.LBB1370
	.quad	.LBE1370-.LBB1370
	.byte	0x2
	.byte	0x2a
	.long	0x7362
	.uleb128 0x3
	.long	0x5cd0
	.long	.LLST221
	.uleb128 0x2
	.long	0x5cc4
	.uleb128 0x1b
	.quad	.LVL137
	.long	0x2717
	.uleb128 0x9
	.uleb128 0x1
	.byte	0x54
	.uleb128 0x9
	.byte	0x3
	.quad	.LC1
	.uleb128 0x9
	.uleb128 0x1
	.byte	0x51
	.uleb128 0x1
	.byte	0x42
	.byte	0
	.byte	0
	.uleb128 0x35
	.long	0x5c95
	.quad	.LBB1372
	.long	.Ldebug_ranges0+0x840
	.byte	0x2
	.byte	0x2a
	.long	0x738c
	.uleb128 0x3
	.long	0x5ca7
	.long	.LLST222
	.uleb128 0x3
	.long	0x5ca7
	.long	.LLST222
	.byte	0
	.uleb128 0x35
	.long	0x5c6e
	.quad	.LBB1375
	.long	.Ldebug_ranges0+0x870
	.byte	0x2
	.byte	0x2a
	.long	0x73bb
	.uleb128 0x2
	.long	0x5c89
	.uleb128 0x2
	.long	0x5c80
	.uleb128 0x26
	.quad	.LVL138
	.long	0xd6c
	.byte	0
	.uleb128 0x21
	.long	0x5da6
	.quad	.LBB1380
	.quad	.LBE1380-.LBB1380
	.byte	0x2
	.byte	0x2a
	.long	0x73f2
	.uleb128 0x2
	.long	0x5dc1
	.uleb128 0x3
	.long	0x5db8
	.long	.LLST224
	.uleb128 0x26
	.quad	.LVL139
	.long	0x5dcd
	.byte	0
	.uleb128 0x21
	.long	0x5cb1
	.quad	.LBB1382
	.quad	.LBE1382-.LBB1382
	.byte	0x2
	.byte	0x2b
	.long	0x743c
	.uleb128 0x3
	.long	0x5cd0
	.long	.LLST225
	.uleb128 0x2
	.long	0x5cc4
	.uleb128 0x1b
	.quad	.LVL140
	.long	0x2717
	.uleb128 0x9
	.uleb128 0x1
	.byte	0x54
	.uleb128 0x9
	.byte	0x3
	.quad	.LC2
	.uleb128 0x9
	.uleb128 0x1
	.byte	0x51
	.uleb128 0x1
	.byte	0x42
	.byte	0
	.byte	0
	.uleb128 0x35
	.long	0x5c95
	.quad	.LBB1384
	.long	.Ldebug_ranges0+0x8a0
	.byte	0x2
	.byte	0x2b
	.long	0x7466
	.uleb128 0x3
	.long	0x5ca7
	.long	.LLST226
	.uleb128 0x3
	.long	0x5ca7
	.long	.LLST226
	.byte	0
	.uleb128 0x35
	.long	0x5c6e
	.quad	.LBB1387
	.long	.Ldebug_ranges0+0x8d0
	.byte	0x2
	.byte	0x2b
	.long	0x7495
	.uleb128 0x2
	.long	0x5c89
	.uleb128 0x2
	.long	0x5c80
	.uleb128 0x26
	.quad	.LVL141
	.long	0xd6c
	.byte	0
	.uleb128 0x21
	.long	0x5da6
	.quad	.LBB1392
	.quad	.LBE1392-.LBB1392
	.byte	0x2
	.byte	0x2b
	.long	0x74cc
	.uleb128 0x2
	.long	0x5dc1
	.uleb128 0x3
	.long	0x5db8
	.long	.LLST228
	.uleb128 0x26
	.quad	.LVL142
	.long	0x5dcd
	.byte	0
	.uleb128 0x21
	.long	0x5cb1
	.quad	.LBB1394
	.quad	.LBE1394-.LBB1394
	.byte	0x2
	.byte	0x2c
	.long	0x7516
	.uleb128 0x3
	.long	0x5cd0
	.long	.LLST229
	.uleb128 0x2
	.long	0x5cc4
	.uleb128 0x1b
	.quad	.LVL143
	.long	0x2717
	.uleb128 0x9
	.uleb128 0x1
	.byte	0x54
	.uleb128 0x9
	.byte	0x3
	.quad	.LC3
	.uleb128 0x9
	.uleb128 0x1
	.byte	0x51
	.uleb128 0x1
	.byte	0x42
	.byte	0
	.byte	0
	.uleb128 0x35
	.long	0x5c95
	.quad	.LBB1396
	.long	.Ldebug_ranges0+0x900
	.byte	0x2
	.byte	0x2c
	.long	0x7540
	.uleb128 0x3
	.long	0x5ca7
	.long	.LLST230
	.uleb128 0x3
	.long	0x5ca7
	.long	.LLST230
	.byte	0
	.uleb128 0x35
	.long	0x5c6e
	.quad	.LBB1399
	.long	.Ldebug_ranges0+0x930
	.byte	0x2
	.byte	0x2c
	.long	0x756f
	.uleb128 0x2
	.long	0x5c89
	.uleb128 0x2
	.long	0x5c80
	.uleb128 0x26
	.quad	.LVL144
	.long	0xd6c
	.byte	0
	.uleb128 0x21
	.long	0x5da6
	.quad	.LBB1404
	.quad	.LBE1404-.LBB1404
	.byte	0x2
	.byte	0x2c
	.long	0x75a6
	.uleb128 0x2
	.long	0x5dc1
	.uleb128 0x3
	.long	0x5db8
	.long	.LLST232
	.uleb128 0x26
	.quad	.LVL145
	.long	0x5dcd
	.byte	0
	.uleb128 0x21
	.long	0x5cb1
	.quad	.LBB1406
	.quad	.LBE1406-.LBB1406
	.byte	0x2
	.byte	0x31
	.long	0x75f0
	.uleb128 0x3
	.long	0x5cd0
	.long	.LLST233
	.uleb128 0x2
	.long	0x5cc4
	.uleb128 0x1b
	.quad	.LVL149
	.long	0x2717
	.uleb128 0x9
	.uleb128 0x1
	.byte	0x54
	.uleb128 0x9
	.byte	0x3
	.quad	.LC4
	.uleb128 0x9
	.uleb128 0x1
	.byte	0x51
	.uleb128 0x1
	.byte	0x3f
	.byte	0
	.byte	0
	.uleb128 0x21
	.long	0x5c6e
	.quad	.LBB1408
	.quad	.LBE1408-.LBB1408
	.byte	0x2
	.byte	0x31
	.long	0x762f
	.uleb128 0x3
	.long	0x5c89
	.long	.LLST234
	.uleb128 0x2
	.long	0x5c80
	.uleb128 0x1b
	.quad	.LVL150
	.long	0xd6c
	.uleb128 0x9
	.uleb128 0x1
	.byte	0x54
	.uleb128 0x3
	.byte	0xa
	.value	0x21d
	.byte	0
	.byte	0
	.uleb128 0x21
	.long	0x5da6
	.quad	.LBB1410
	.quad	.LBE1410-.LBB1410
	.byte	0x2
	.byte	0x31
	.long	0x7666
	.uleb128 0x2
	.long	0x5dc1
	.uleb128 0x3
	.long	0x5db8
	.long	.LLST235
	.uleb128 0x26
	.quad	.LVL151
	.long	0x5dcd
	.byte	0
	.uleb128 0x21
	.long	0x5cb1
	.quad	.LBB1412
	.quad	.LBE1412-.LBB1412
	.byte	0x2
	.byte	0x39
	.long	0x76b0
	.uleb128 0x3
	.long	0x5cd0
	.long	.LLST236
	.uleb128 0x2
	.long	0x5cc4
	.uleb128 0x1b
	.quad	.LVL152
	.long	0x2717
	.uleb128 0x9
	.uleb128 0x1
	.byte	0x54
	.uleb128 0x9
	.byte	0x3
	.quad	.LC5
	.uleb128 0x9
	.uleb128 0x1
	.byte	0x51
	.uleb128 0x1
	.byte	0x48
	.byte	0
	.byte	0
	.uleb128 0x21
	.long	0x5c6e
	.quad	.LBB1414
	.quad	.LBE1414-.LBB1414
	.byte	0x2
	.byte	0x39
	.long	0x76ee
	.uleb128 0x3
	.long	0x5c89
	.long	.LLST237
	.uleb128 0x2
	.long	0x5c80
	.uleb128 0x1b
	.quad	.LVL153
	.long	0xd6c
	.uleb128 0x9
	.uleb128 0x1
	.byte	0x54
	.uleb128 0x2
	.byte	0x8
	.byte	0xb4
	.byte	0
	.byte	0
	.uleb128 0x21
	.long	0x5da6
	.quad	.LBB1416
	.quad	.LBE1416-.LBB1416
	.byte	0x2
	.byte	0x39
	.long	0x7725
	.uleb128 0x2
	.long	0x5dc1
	.uleb128 0x3
	.long	0x5db8
	.long	.LLST238
	.uleb128 0x26
	.quad	.LVL154
	.long	0x5dcd
	.byte	0
	.uleb128 0x21
	.long	0x5cb1
	.quad	.LBB1418
	.quad	.LBE1418-.LBB1418
	.byte	0x2
	.byte	0x3a
	.long	0x776f
	.uleb128 0x3
	.long	0x5cd0
	.long	.LLST239
	.uleb128 0x2
	.long	0x5cc4
	.uleb128 0x1b
	.quad	.LVL155
	.long	0x2717
	.uleb128 0x9
	.uleb128 0x1
	.byte	0x54
	.uleb128 0x9
	.byte	0x3
	.quad	.LC6
	.uleb128 0x9
	.uleb128 0x1
	.byte	0x51
	.uleb128 0x1
	.byte	0x48
	.byte	0
	.byte	0
	.uleb128 0x21
	.long	0x5c6e
	.quad	.LBB1420
	.quad	.LBE1420-.LBB1420
	.byte	0x2
	.byte	0x3a
	.long	0x77ad
	.uleb128 0x3
	.long	0x5c89
	.long	.LLST240
	.uleb128 0x2
	.long	0x5c80
	.uleb128 0x1b
	.quad	.LVL156
	.long	0xd6c
	.uleb128 0x9
	.uleb128 0x1
	.byte	0x54
	.uleb128 0x2
	.byte	0x8
	.byte	0xb4
	.byte	0
	.byte	0
	.uleb128 0x21
	.long	0x5da6
	.quad	.LBB1422
	.quad	.LBE1422-.LBB1422
	.byte	0x2
	.byte	0x3a
	.long	0x77e4
	.uleb128 0x2
	.long	0x5dc1
	.uleb128 0x3
	.long	0x5db8
	.long	.LLST241
	.uleb128 0x26
	.quad	.LVL157
	.long	0x5dcd
	.byte	0
	.uleb128 0x21
	.long	0x5cb1
	.quad	.LBB1424
	.quad	.LBE1424-.LBB1424
	.byte	0x2
	.byte	0x3b
	.long	0x782e
	.uleb128 0x3
	.long	0x5cd0
	.long	.LLST242
	.uleb128 0x2
	.long	0x5cc4
	.uleb128 0x1b
	.quad	.LVL158
	.long	0x2717
	.uleb128 0x9
	.uleb128 0x1
	.byte	0x54
	.uleb128 0x9
	.byte	0x3
	.quad	.LC7
	.uleb128 0x9
	.uleb128 0x1
	.byte	0x51
	.uleb128 0x1
	.byte	0x48
	.byte	0
	.byte	0
	.uleb128 0x21
	.long	0x5c6e
	.quad	.LBB1426
	.quad	.LBE1426-.LBB1426
	.byte	0x2
	.byte	0x3b
	.long	0x786c
	.uleb128 0x3
	.long	0x5c89
	.long	.LLST243
	.uleb128 0x2
	.long	0x5c80
	.uleb128 0x1b
	.quad	.LVL159
	.long	0xd6c
	.uleb128 0x9
	.uleb128 0x1
	.byte	0x54
	.uleb128 0x2
	.byte	0x8
	.byte	0xb4
	.byte	0
	.byte	0
	.uleb128 0x21
	.long	0x5da6
	.quad	.LBB1428
	.quad	.LBE1428-.LBB1428
	.byte	0x2
	.byte	0x3b
	.long	0x78a3
	.uleb128 0x2
	.long	0x5dc1
	.uleb128 0x3
	.long	0x5db8
	.long	.LLST244
	.uleb128 0x26
	.quad	.LVL160
	.long	0x5dcd
	.byte	0
	.uleb128 0x44
	.quad	.LVL146
	.long	0x55cf
	.long	0x78c3
	.uleb128 0x9
	.uleb128 0x1
	.byte	0x55
	.uleb128 0x4
	.byte	0x91
	.sleb128 -184
	.byte	0x6
	.uleb128 0x9
	.uleb128 0x1
	.byte	0x54
	.uleb128 0x2
	.byte	0x8
	.byte	0x5a
	.byte	0
	.uleb128 0x44
	.quad	.LVL147
	.long	0x55cf
	.long	0x78e5
	.uleb128 0x9
	.uleb128 0x1
	.byte	0x55
	.uleb128 0x6
	.byte	0x91
	.sleb128 -184
	.byte	0x6
	.byte	0x23
	.uleb128 0x18
	.uleb128 0x9
	.uleb128 0x1
	.byte	0x54
	.uleb128 0x2
	.byte	0x8
	.byte	0x5a
	.byte	0
	.uleb128 0x44
	.quad	.LVL148
	.long	0x55cf
	.long	0x7907
	.uleb128 0x9
	.uleb128 0x1
	.byte	0x55
	.uleb128 0x6
	.byte	0x91
	.sleb128 -184
	.byte	0x6
	.byte	0x23
	.uleb128 0x30
	.uleb128 0x9
	.uleb128 0x1
	.byte	0x54
	.uleb128 0x2
	.byte	0x8
	.byte	0x5a
	.byte	0
	.uleb128 0x5e
	.quad	.LVL161
	.long	0x791d
	.uleb128 0x9
	.uleb128 0x1
	.byte	0x55
	.uleb128 0x4
	.byte	0x91
	.sleb128 -184
	.byte	0x6
	.byte	0
	.uleb128 0x5e
	.quad	.LVL173
	.long	0x7931
	.uleb128 0x9
	.uleb128 0x1
	.byte	0x55
	.uleb128 0x2
	.byte	0x7d
	.sleb128 0
	.byte	0
	.uleb128 0x44
	.quad	.LVL174
	.long	0x7fb0
	.long	0x7949
	.uleb128 0x9
	.uleb128 0x1
	.byte	0x55
	.uleb128 0x2
	.byte	0x73
	.sleb128 0
	.byte	0
	.uleb128 0x26
	.quad	.LVL175
	.long	0x7fbd
	.byte	0
	.uleb128 0xd
	.byte	0x8
	.long	0x46b4
	.uleb128 0xc
	.long	0x7957
	.uleb128 0x60
	.long	0x46e4
	.byte	0x2
	.byte	0xa
	.byte	0x2
	.long	0x7972
	.long	0x7985
	.uleb128 0xf
	.long	.LASF854
	.long	0x795d
	.uleb128 0xf
	.long	.LASF861
	.long	0x300d
	.byte	0
	.uleb128 0xb2
	.long	0x7962
	.long	.LASF921
	.long	0x79ad
	.quad	.LFB1915
	.quad	.LFE1915-.LFB1915
	.uleb128 0x1
	.byte	0x9c
	.long	0x79ad
	.long	0x7c9b
	.uleb128 0x3
	.long	0x7972
	.long	.LLST11
	.uleb128 0x21
	.long	0x5d2a
	.quad	.LBB647
	.quad	.LBE647-.LBB647
	.byte	0x2
	.byte	0xa
	.long	0x7ab6
	.uleb128 0x3
	.long	0x5d38
	.long	.LLST12
	.uleb128 0xe
	.long	0x54b5
	.quad	.LBB649
	.quad	.LBE649-.LBB649
	.byte	0x5
	.value	0x1b3
	.uleb128 0x3
	.long	0x54c3
	.long	.LLST13
	.uleb128 0x20
	.long	0x528b
	.quad	.LBB650
	.quad	.LBE650-.LBB650
	.byte	0x5
	.byte	0xa2
	.uleb128 0x3
	.long	0x529d
	.long	.LLST14
	.uleb128 0x3
	.long	0x52b1
	.long	.LLST15
	.uleb128 0x3
	.long	0x52a6
	.long	.LLST16
	.uleb128 0x1f
	.quad	.LBB651
	.quad	.LBE651-.LBB651
	.uleb128 0x20
	.long	0x4fcc
	.quad	.LBB652
	.quad	.LBE652-.LBB652
	.byte	0x5
	.byte	0xb4
	.uleb128 0x3
	.long	0x4fd6
	.long	.LLST17
	.uleb128 0x3
	.long	0x4fee
	.long	.LLST18
	.uleb128 0x3
	.long	0x4fe2
	.long	.LLST19
	.uleb128 0xe
	.long	0x4d04
	.quad	.LBB653
	.quad	.LBE653-.LBB653
	.byte	0x1e
	.value	0x1ce
	.uleb128 0x3
	.long	0x4d16
	.long	.LLST17
	.uleb128 0x3
	.long	0x4d2a
	.long	.LLST18
	.uleb128 0x3
	.long	0x4d1f
	.long	.LLST19
	.uleb128 0x26
	.quad	.LVL20
	.long	0x7f75
	.byte	0
	.byte	0
	.byte	0
	.byte	0
	.byte	0
	.byte	0
	.uleb128 0x21
	.long	0x5d2a
	.quad	.LBB655
	.quad	.LBE655-.LBB655
	.byte	0x2
	.byte	0xa
	.long	0x7bb6
	.uleb128 0x3
	.long	0x5d38
	.long	.LLST23
	.uleb128 0xe
	.long	0x54b5
	.quad	.LBB657
	.quad	.LBE657-.LBB657
	.byte	0x5
	.value	0x1b3
	.uleb128 0x3
	.long	0x54c3
	.long	.LLST24
	.uleb128 0x20
	.long	0x528b
	.quad	.LBB658
	.quad	.LBE658-.LBB658
	.byte	0x5
	.byte	0xa2
	.uleb128 0x3
	.long	0x529d
	.long	.LLST25
	.uleb128 0x3
	.long	0x52b1
	.long	.LLST26
	.uleb128 0x3
	.long	0x52a6
	.long	.LLST27
	.uleb128 0x1f
	.quad	.LBB659
	.quad	.LBE659-.LBB659
	.uleb128 0x20
	.long	0x4fcc
	.quad	.LBB660
	.quad	.LBE660-.LBB660
	.byte	0x5
	.byte	0xb4
	.uleb128 0x3
	.long	0x4fd6
	.long	.LLST28
	.uleb128 0x3
	.long	0x4fee
	.long	.LLST29
	.uleb128 0x3
	.long	0x4fe2
	.long	.LLST30
	.uleb128 0xe
	.long	0x4d04
	.quad	.LBB661
	.quad	.LBE661-.LBB661
	.byte	0x1e
	.value	0x1ce
	.uleb128 0x3
	.long	0x4d16
	.long	.LLST28
	.uleb128 0x3
	.long	0x4d2a
	.long	.LLST29
	.uleb128 0x3
	.long	0x4d1f
	.long	.LLST30
	.uleb128 0x26
	.quad	.LVL23
	.long	0x7f75
	.byte	0
	.byte	0
	.byte	0
	.byte	0
	.byte	0
	.byte	0
	.uleb128 0x27
	.long	0x5d2a
	.quad	.LBB663
	.long	.Ldebug_ranges0+0x100
	.byte	0x2
	.byte	0xa
	.uleb128 0x3
	.long	0x5d38
	.long	.LLST34
	.uleb128 0x1c
	.long	0x54b5
	.quad	.LBB665
	.long	.Ldebug_ranges0+0x130
	.byte	0x5
	.value	0x1b3
	.uleb128 0x3
	.long	0x54c3
	.long	.LLST35
	.uleb128 0x27
	.long	0x528b
	.quad	.LBB666
	.long	.Ldebug_ranges0+0x130
	.byte	0x5
	.byte	0xa2
	.uleb128 0x3
	.long	0x529d
	.long	.LLST36
	.uleb128 0x3
	.long	0x52b1
	.long	.LLST37
	.uleb128 0x3
	.long	0x52a6
	.long	.LLST38
	.uleb128 0x22
	.long	.Ldebug_ranges0+0x130
	.uleb128 0x20
	.long	0x4fcc
	.quad	.LBB668
	.quad	.LBE668-.LBB668
	.byte	0x5
	.byte	0xb4
	.uleb128 0x3
	.long	0x4fd6
	.long	.LLST39
	.uleb128 0x3
	.long	0x4fee
	.long	.LLST40
	.uleb128 0x3
	.long	0x4fe2
	.long	.LLST41
	.uleb128 0xe
	.long	0x4d04
	.quad	.LBB669
	.quad	.LBE669-.LBB669
	.byte	0x1e
	.value	0x1ce
	.uleb128 0x3
	.long	0x4d16
	.long	.LLST42
	.uleb128 0x3
	.long	0x4d2a
	.long	.LLST43
	.uleb128 0x3
	.long	0x4d1f
	.long	.LLST41
	.uleb128 0x74
	.quad	.LVL27
	.long	0x7f75
	.byte	0
	.byte	0
	.byte	0
	.byte	0
	.byte	0
	.byte	0
	.byte	0
	.uleb128 0x60
	.long	0x4701
	.byte	0x2
	.byte	0xa
	.byte	0x2
	.long	0x7cab
	.long	0x7cb5
	.uleb128 0xf
	.long	.LASF854
	.long	0x795d
	.byte	0
	.uleb128 0x31
	.long	0x7c9b
	.long	.LASF887
	.long	0x7cc6
	.long	0x7ccc
	.uleb128 0x2
	.long	0x7cab
	.byte	0
	.uleb128 0xb3
	.long	.LASF888
	.byte	0x2
	.byte	0x4
	.long	.LASF889
	.quad	.LFB1909
	.quad	.LFE1909-.LFB1909
	.uleb128 0x1
	.byte	0x9c
	.long	0x7e6f
	.uleb128 0xb4
	.string	"v"
	.byte	0x2
	.byte	0x4
	.long	0x3005
	.long	.LLST0
	.uleb128 0x35
	.long	0x5da6
	.quad	.LBB620
	.long	.Ldebug_ranges0+0
	.byte	0x2
	.byte	0x6
	.long	0x7e59
	.uleb128 0x2
	.long	0x5dc1
	.uleb128 0x3
	.long	0x5db8
	.long	.LLST1
	.uleb128 0x27
	.long	0x5dcd
	.quad	.LBB621
	.long	.Ldebug_ranges0+0
	.byte	0x3
	.byte	0x71
	.uleb128 0x3
	.long	0x5de9
	.long	.LLST1
	.uleb128 0x29
	.long	0x557f
	.quad	.LBB623
	.long	.Ldebug_ranges0+0x40
	.byte	0x3
	.value	0x24f
	.long	0x7e14
	.uleb128 0x3
	.long	0x559a
	.long	.LLST3
	.uleb128 0x3
	.long	0x5591
	.long	.LLST4
	.uleb128 0x29
	.long	0x5335
	.quad	.LBB625
	.long	.Ldebug_ranges0+0x70
	.byte	0x4
	.value	0x1c2
	.long	0x7d96
	.uleb128 0x3
	.long	0x5348
	.long	.LLST5
	.uleb128 0x26
	.quad	.LVL16
	.long	0x2726
	.byte	0
	.uleb128 0x1c
	.long	0x7e97
	.quad	.LBB628
	.long	.Ldebug_ranges0+0xa0
	.byte	0x4
	.value	0x1c2
	.uleb128 0x3
	.long	0x7eb2
	.long	.LLST6
	.uleb128 0x3
	.long	0x7ea9
	.long	.LLST7
	.uleb128 0x54
	.long	0x7e97
	.quad	.LBB630
	.quad	.LBE630-.LBB630
	.uleb128 0x3
	.long	0x7eb2
	.long	.LLST8
	.uleb128 0x3
	.long	0x7ea9
	.long	.LLST9
	.uleb128 0x44
	.quad	.LVL13
	.long	0xe49
	.long	0x7dfb
	.uleb128 0x9
	.uleb128 0x1
	.byte	0x55
	.uleb128 0x2
	.byte	0x73
	.sleb128 0
	.byte	0
	.uleb128 0xb5
	.quad	.LVL14
	.uleb128 0x9
	.uleb128 0x1
	.byte	0x55
	.uleb128 0x2
	.byte	0x73
	.sleb128 0
	.uleb128 0x9
	.uleb128 0x1
	.byte	0x54
	.uleb128 0x1
	.byte	0x3a
	.byte	0
	.byte	0
	.byte	0
	.byte	0
	.uleb128 0x29
	.long	0x5556
	.quad	.LBB636
	.long	.Ldebug_ranges0+0xd0
	.byte	0x3
	.value	0x24f
	.long	0x7e43
	.uleb128 0x3
	.long	0x5572
	.long	.LLST10
	.uleb128 0x74
	.quad	.LVL12
	.long	0xd7b
	.byte	0
	.uleb128 0x1b
	.quad	.LVL10
	.long	0xd8a
	.uleb128 0x9
	.uleb128 0x1
	.byte	0x55
	.uleb128 0x2
	.byte	0x76
	.sleb128 0
	.byte	0
	.byte	0
	.byte	0
	.uleb128 0x1b
	.quad	.LVL3
	.long	0xd9a
	.uleb128 0x9
	.uleb128 0x1
	.byte	0x54
	.uleb128 0x3
	.byte	0xf3
	.uleb128 0x1
	.byte	0x55
	.byte	0
	.byte	0
	.uleb128 0x18
	.long	0xdf8
	.long	0x7e81
	.byte	0x3
	.long	0x7e81
	.long	0x7e97
	.uleb128 0xf
	.long	.LASF854
	.long	0x5330
	.uleb128 0x1a
	.string	"__c"
	.byte	0x1
	.value	0x43a
	.long	0x2ff9
	.byte	0
	.uleb128 0x18
	.long	0xe25
	.long	0x7ea9
	.byte	0x3
	.long	0x7ea9
	.long	0x7ebf
	.uleb128 0xf
	.long	.LASF854
	.long	0x5330
	.uleb128 0x1a
	.string	"__c"
	.byte	0x1
	.value	0x368
	.long	0x2ff9
	.byte	0
	.uleb128 0x15
	.long	0x26ea
	.byte	0x3
	.long	0x7ee0
	.uleb128 0x28
	.string	"__a"
	.byte	0x18
	.byte	0xa9
	.long	0xc0f
	.uleb128 0x28
	.string	"__b"
	.byte	0x18
	.byte	0xa9
	.long	0xc0f
	.byte	0
	.uleb128 0x15
	.long	0x64e
	.byte	0x3
	.long	0x7ef7
	.uleb128 0x1a
	.string	"__s"
	.byte	0x11
	.value	0x13a
	.long	0x3a0d
	.byte	0
	.uleb128 0xb6
	.long	.LASF891
	.byte	0xb
	.byte	0xa8
	.long	.LASF892
	.long	0x2f96
	.byte	0x3
	.long	0x7f1d
	.uleb128 0x1
	.long	0x772
	.uleb128 0x28
	.string	"__p"
	.byte	0xb
	.byte	0xa8
	.long	0x2f96
	.byte	0
	.uleb128 0xb7
	.long	0x7e6f
	.long	.LASF911
	.quad	.LFB1321
	.quad	.LFE1321-.LFB1321
	.uleb128 0x1
	.byte	0x9c
	.long	0x7f41
	.long	0x7f50
	.uleb128 0x75
	.long	0x7e81
	.uleb128 0x1
	.byte	0x55
	.uleb128 0x75
	.long	0x7e8a
	.uleb128 0x1
	.byte	0x54
	.byte	0
	.uleb128 0x76
	.long	.LASF902
	.long	.LASF902
	.uleb128 0x3c
	.long	.LASF893
	.long	.LASF891
	.byte	0xb
	.byte	0x78
	.long	.LASF893
	.uleb128 0x61
	.long	.LASF896
	.long	.LASF898
	.long	.LASF896
	.uleb128 0x3c
	.long	.LASF894
	.long	.LASF895
	.byte	0xb
	.byte	0x7c
	.long	.LASF894
	.uleb128 0x61
	.long	.LASF897
	.long	.LASF899
	.long	.LASF897
	.uleb128 0xb8
	.uleb128 0x1c
	.byte	0x9e
	.uleb128 0x1a
	.byte	0x76
	.byte	0x65
	.byte	0x63
	.byte	0x74
	.byte	0x6f
	.byte	0x72
	.byte	0x3a
	.byte	0x3a
	.byte	0x5f
	.byte	0x4d
	.byte	0x5f
	.byte	0x72
	.byte	0x65
	.byte	0x61
	.byte	0x6c
	.byte	0x6c
	.byte	0x6f
	.byte	0x63
	.byte	0x5f
	.byte	0x69
	.byte	0x6e
	.byte	0x73
	.byte	0x65
	.byte	0x72
	.byte	0x74
	.byte	0
	.uleb128 0x61
	.long	.LASF900
	.long	.LASF901
	.long	.LASF900
	.uleb128 0x76
	.long	.LASF903
	.long	.LASF903
	.byte	0
	.section	.debug_abbrev,"",@progbits
.Ldebug_abbrev0:
	.uleb128 0x1
	.uleb128 0x5
	.byte	0
	.uleb128 0x49
	.uleb128 0x13
	.byte	0
	.byte	0
	.uleb128 0x2
	.uleb128 0x5
	.byte	0
	.uleb128 0x31
	.uleb128 0x13
	.byte	0
	.byte	0
	.uleb128 0x3
	.uleb128 0x5
	.byte	0
	.uleb128 0x31
	.uleb128 0x13
	.uleb128 0x2
	.uleb128 0x17
	.byte	0
	.byte	0
	.uleb128 0x4
	.uleb128 0x8
	.byte	0
	.uleb128 0x3a
	.uleb128 0xb
	.uleb128 0x3b
	.uleb128 0xb
	.uleb128 0x18
	.uleb128 0x13
	.byte	0
	.byte	0
	.uleb128 0x5
	.uleb128 0x5
	.byte	0
	.uleb128 0x49
	.uleb128 0x13
	.uleb128 0x34
	.uleb128 0x19
	.byte	0
	.byte	0
	.uleb128 0x6
	.uleb128 0x2f
	.byte	0
	.uleb128 0x3
	.uleb128 0xe
	.uleb128 0x49
	.uleb128 0x13
	.byte	0
	.byte	0
	.uleb128 0x7
	.uleb128 0x16
	.byte	0
	.uleb128 0x3
	.uleb128 0xe
	.uleb128 0x3a
	.uleb128 0xb
	.uleb128 0x3b
	.uleb128 0xb
	.uleb128 0x49
	.uleb128 0x13
	.byte	0
	.byte	0
	.uleb128 0x8
	.uleb128 0xd
	.byte	0
	.uleb128 0x3
	.uleb128 0xe
	.uleb128 0x3a
	.uleb128 0xb
	.uleb128 0x3b
	.uleb128 0xb
	.uleb128 0x49
	.uleb128 0x13
	.uleb128 0x38
	.uleb128 0xb
	.byte	0
	.byte	0
	.uleb128 0x9
	.uleb128 0x410a
	.byte	0
	.uleb128 0x2
	.uleb128 0x18
	.uleb128 0x2111
	.uleb128 0x18
	.byte	0
	.byte	0
	.uleb128 0xa
	.uleb128 0x2e
	.byte	0x1
	.uleb128 0x3f
	.uleb128 0x19
	.uleb128 0x3
	.uleb128 0xe
	.uleb128 0x3a
	.uleb128 0xb
	.uleb128 0x3b
	.uleb128 0x5
	.uleb128 0x49
	.uleb128 0x13
	.uleb128 0x3c
	.uleb128 0x19
	.uleb128 0x1
	.uleb128 0x13
	.byte	0
	.byte	0
	.uleb128 0xb
	.uleb128 0x2e
	.byte	0x1
	.uleb128 0x3f
	.uleb128 0x19
	.uleb128 0x3
	.uleb128 0xe
	.uleb128 0x3a
	.uleb128 0xb
	.uleb128 0x3b
	.uleb128 0x5
	.uleb128 0x6e
	.uleb128 0xe
	.uleb128 0x49
	.uleb128 0x13
	.uleb128 0x32
	.uleb128 0xb
	.uleb128 0x3c
	.uleb128 0x19
	.uleb128 0x64
	.uleb128 0x13
	.uleb128 0x1
	.uleb128 0x13
	.byte	0
	.byte	0
	.uleb128 0xc
	.uleb128 0x26
	.byte	0
	.uleb128 0x49
	.uleb128 0x13
	.byte	0
	.byte	0
	.uleb128 0xd
	.uleb128 0xf
	.byte	0
	.uleb128 0xb
	.uleb128 0xb
	.uleb128 0x49
	.uleb128 0x13
	.byte	0
	.byte	0
	.uleb128 0xe
	.uleb128 0x1d
	.byte	0x1
	.uleb128 0x31
	.uleb128 0x13
	.uleb128 0x11
	.uleb128 0x1
	.uleb128 0x12
	.uleb128 0x7
	.uleb128 0x58
	.uleb128 0xb
	.uleb128 0x59
	.uleb128 0x5
	.byte	0
	.byte	0
	.uleb128 0xf
	.uleb128 0x5
	.byte	0
	.uleb128 0x3
	.uleb128 0xe
	.uleb128 0x49
	.uleb128 0x13
	.uleb128 0x34
	.uleb128 0x19
	.byte	0
	.byte	0
	.uleb128 0x10
	.uleb128 0x2f
	.byte	0
	.uleb128 0x3
	.uleb128 0x8
	.uleb128 0x49
	.uleb128 0x13
	.byte	0
	.byte	0
	.uleb128 0x11
	.uleb128 0x2e
	.byte	0x1
	.uleb128 0x3f
	.uleb128 0x19
	.uleb128 0x3
	.uleb128 0xe
	.uleb128 0x3a
	.uleb128 0xb
	.uleb128 0x3b
	.uleb128 0x5
	.uleb128 0x6e
	.uleb128 0xe
	.uleb128 0x49
	.uleb128 0x13
	.uleb128 0x3c
	.uleb128 0x19
	.uleb128 0x1
	.uleb128 0x13
	.byte	0
	.byte	0
	.uleb128 0x12
	.uleb128 0x2e
	.byte	0x1
	.uleb128 0x3f
	.uleb128 0x19
	.uleb128 0x3
	.uleb128 0xe
	.uleb128 0x3a
	.uleb128 0xb
	.uleb128 0x3b
	.uleb128 0xb
	.uleb128 0x49
	.uleb128 0x13
	.uleb128 0x3c
	.uleb128 0x19
	.uleb128 0x1
	.uleb128 0x13
	.byte	0
	.byte	0
	.uleb128 0x13
	.uleb128 0x5
	.byte	0
	.uleb128 0x3
	.uleb128 0xe
	.uleb128 0x3a
	.uleb128 0xb
	.uleb128 0x3b
	.uleb128 0x5
	.uleb128 0x49
	.uleb128 0x13
	.byte	0
	.byte	0
	.uleb128 0x14
	.uleb128 0x10
	.byte	0
	.uleb128 0xb
	.uleb128 0xb
	.uleb128 0x49
	.uleb128 0x13
	.byte	0
	.byte	0
	.uleb128 0x15
	.uleb128 0x2e
	.byte	0x1
	.uleb128 0x47
	.uleb128 0x13
	.uleb128 0x20
	.uleb128 0xb
	.uleb128 0x1
	.uleb128 0x13
	.byte	0
	.byte	0
	.uleb128 0x16
	.uleb128 0xd
	.byte	0
	.uleb128 0x3
	.uleb128 0xe
	.uleb128 0x3a
	.uleb128 0xb
	.uleb128 0x3b
	.uleb128 0xb
	.uleb128 0x49
	.uleb128 0x13
	.uleb128 0x3f
	.uleb128 0x19
	.uleb128 0x3c
	.uleb128 0x19
	.byte	0
	.byte	0
	.uleb128 0x17
	.uleb128 0x34
	.byte	0
	.uleb128 0x31
	.uleb128 0x13
	.uleb128 0x2
	.uleb128 0x17
	.byte	0
	.byte	0
	.uleb128 0x18
	.uleb128 0x2e
	.byte	0x1
	.uleb128 0x47
	.uleb128 0x13
	.uleb128 0x64
	.uleb128 0x13
	.uleb128 0x20
	.uleb128 0xb
	.uleb128 0x64
	.uleb128 0x13
	.uleb128 0x1
	.uleb128 0x13
	.byte	0
	.byte	0
	.uleb128 0x19
	.uleb128 0x2e
	.byte	0x1
	.uleb128 0x3f
	.uleb128 0x19
	.uleb128 0x3
	.uleb128 0xe
	.uleb128 0x3a
	.uleb128 0xb
	.uleb128 0x3b
	.uleb128 0x5
	.uleb128 0x6e
	.uleb128 0xe
	.uleb128 0x32
	.uleb128 0xb
	.uleb128 0x3c
	.uleb128 0x19
	.uleb128 0x64
	.uleb128 0x13
	.uleb128 0x1
	.uleb128 0x13
	.byte	0
	.byte	0
	.uleb128 0x1a
	.uleb128 0x5
	.byte	0
	.uleb128 0x3
	.uleb128 0x8
	.uleb128 0x3a
	.uleb128 0xb
	.uleb128 0x3b
	.uleb128 0x5
	.uleb128 0x49
	.uleb128 0x13
	.byte	0
	.byte	0
	.uleb128 0x1b
	.uleb128 0x4109
	.byte	0x1
	.uleb128 0x11
	.uleb128 0x1
	.uleb128 0x31
	.uleb128 0x13
	.byte	0
	.byte	0
	.uleb128 0x1c
	.uleb128 0x1d
	.byte	0x1
	.uleb128 0x31
	.uleb128 0x13
	.uleb128 0x52
	.uleb128 0x1
	.uleb128 0x55
	.uleb128 0x17
	.uleb128 0x58
	.uleb128 0xb
	.uleb128 0x59
	.uleb128 0x5
	.byte	0
	.byte	0
	.uleb128 0x1d
	.uleb128 0x13
	.byte	0x1
	.uleb128 0x3
	.uleb128 0xe
	.uleb128 0xb
	.uleb128 0xb
	.uleb128 0x3a
	.uleb128 0xb
	.uleb128 0x3b
	.uleb128 0xb
	.uleb128 0x1
	.uleb128 0x13
	.byte	0
	.byte	0
	.uleb128 0x1e
	.uleb128 0xd
	.byte	0
	.uleb128 0x3
	.uleb128 0xe
	.uleb128 0x3a
	.uleb128 0xb
	.uleb128 0x3b
	.uleb128 0x5
	.uleb128 0x49
	.uleb128 0x13
	.uleb128 0x38
	.uleb128 0xb
	.byte	0
	.byte	0
	.uleb128 0x1f
	.uleb128 0xb
	.byte	0x1
	.uleb128 0x11
	.uleb128 0x1
	.uleb128 0x12
	.uleb128 0x7
	.byte	0
	.byte	0
	.uleb128 0x20
	.uleb128 0x1d
	.byte	0x1
	.uleb128 0x31
	.uleb128 0x13
	.uleb128 0x11
	.uleb128 0x1
	.uleb128 0x12
	.uleb128 0x7
	.uleb128 0x58
	.uleb128 0xb
	.uleb128 0x59
	.uleb128 0xb
	.byte	0
	.byte	0
	.uleb128 0x21
	.uleb128 0x1d
	.byte	0x1
	.uleb128 0x31
	.uleb128 0x13
	.uleb128 0x11
	.uleb128 0x1
	.uleb128 0x12
	.uleb128 0x7
	.uleb128 0x58
	.uleb128 0xb
	.uleb128 0x59
	.uleb128 0xb
	.uleb128 0x1
	.uleb128 0x13
	.byte	0
	.byte	0
	.uleb128 0x22
	.uleb128 0xb
	.byte	0x1
	.uleb128 0x55
	.uleb128 0x17
	.byte	0
	.byte	0
	.uleb128 0x23
	.uleb128 0x24
	.byte	0
	.uleb128 0xb
	.uleb128 0xb
	.uleb128 0x3e
	.uleb128 0xb
	.uleb128 0x3
	.uleb128 0xe
	.byte	0
	.byte	0
	.uleb128 0x24
	.uleb128 0x2e
	.byte	0x1
	.uleb128 0x3f
	.uleb128 0x19
	.uleb128 0x3
	.uleb128 0xe
	.uleb128 0x3a
	.uleb128 0xb
	.uleb128 0x3b
	.uleb128 0xb
	.uleb128 0x6e
	.uleb128 0xe
	.uleb128 0x32
	.uleb128 0xb
	.uleb128 0x3c
	.uleb128 0x19
	.uleb128 0x64
	.uleb128 0x13
	.uleb128 0x1
	.uleb128 0x13
	.byte	0
	.byte	0
	.uleb128 0x25
	.uleb128 0x16
	.byte	0
	.uleb128 0x3
	.uleb128 0xe
	.uleb128 0x3a
	.uleb128 0xb
	.uleb128 0x3b
	.uleb128 0xb
	.uleb128 0x49
	.uleb128 0x13
	.uleb128 0x32
	.uleb128 0xb
	.byte	0
	.byte	0
	.uleb128 0x26
	.uleb128 0x4109
	.byte	0
	.uleb128 0x11
	.uleb128 0x1
	.uleb128 0x31
	.uleb128 0x13
	.byte	0
	.byte	0
	.uleb128 0x27
	.uleb128 0x1d
	.byte	0x1
	.uleb128 0x31
	.uleb128 0x13
	.uleb128 0x52
	.uleb128 0x1
	.uleb128 0x55
	.uleb128 0x17
	.uleb128 0x58
	.uleb128 0xb
	.uleb128 0x59
	.uleb128 0xb
	.byte	0
	.byte	0
	.uleb128 0x28
	.uleb128 0x5
	.byte	0
	.uleb128 0x3
	.uleb128 0x8
	.uleb128 0x3a
	.uleb128 0xb
	.uleb128 0x3b
	.uleb128 0xb
	.uleb128 0x49
	.uleb128 0x13
	.byte	0
	.byte	0
	.uleb128 0x29
	.uleb128 0x1d
	.byte	0x1
	.uleb128 0x31
	.uleb128 0x13
	.uleb128 0x52
	.uleb128 0x1
	.uleb128 0x55
	.uleb128 0x17
	.uleb128 0x58
	.uleb128 0xb
	.uleb128 0x59
	.uleb128 0x5
	.uleb128 0x1
	.uleb128 0x13
	.byte	0
	.byte	0
	.uleb128 0x2a
	.uleb128 0x2e
	.byte	0x1
	.uleb128 0x3f
	.uleb128 0x19
	.uleb128 0x3
	.uleb128 0xe
	.uleb128 0x3a
	.uleb128 0xb
	.uleb128 0x3b
	.uleb128 0xb
	.uleb128 0x6e
	.uleb128 0xe
	.uleb128 0x3c
	.uleb128 0x19
	.uleb128 0x64
	.uleb128 0x13
	.uleb128 0x1
	.uleb128 0x13
	.byte	0
	.byte	0
	.uleb128 0x2b
	.uleb128 0x34
	.byte	0
	.uleb128 0x3
	.uleb128 0xe
	.uleb128 0x3a
	.uleb128 0xb
	.uleb128 0x3b
	.uleb128 0xb
	.uleb128 0x49
	.uleb128 0x13
	.uleb128 0x3f
	.uleb128 0x19
	.uleb128 0x3c
	.uleb128 0x19
	.byte	0
	.byte	0
	.uleb128 0x2c
	.uleb128 0x34
	.byte	0
	.uleb128 0x31
	.uleb128 0x13
	.byte	0
	.byte	0
	.uleb128 0x2d
	.uleb128 0x16
	.byte	0
	.uleb128 0x3
	.uleb128 0xe
	.uleb128 0x3a
	.uleb128 0xb
	.uleb128 0x3b
	.uleb128 0x5
	.uleb128 0x49
	.uleb128 0x13
	.byte	0
	.byte	0
	.uleb128 0x2e
	.uleb128 0x5
	.byte	0
	.uleb128 0x3
	.uleb128 0xe
	.uleb128 0x3a
	.uleb128 0xb
	.uleb128 0x3b
	.uleb128 0xb
	.uleb128 0x49
	.uleb128 0x13
	.byte	0
	.byte	0
	.uleb128 0x2f
	.uleb128 0x34
	.byte	0
	.uleb128 0x3
	.uleb128 0xe
	.uleb128 0x3a
	.uleb128 0xb
	.uleb128 0x3b
	.uleb128 0x5
	.uleb128 0x49
	.uleb128 0x13
	.byte	0
	.byte	0
	.uleb128 0x30
	.uleb128 0x2e
	.byte	0x1
	.uleb128 0x3f
	.uleb128 0x19
	.uleb128 0x3
	.uleb128 0xe
	.uleb128 0x3a
	.uleb128 0xb
	.uleb128 0x3b
	.uleb128 0xb
	.uleb128 0x6e
	.uleb128 0xe
	.uleb128 0x49
	.uleb128 0x13
	.uleb128 0x32
	.uleb128 0xb
	.uleb128 0x3c
	.uleb128 0x19
	.uleb128 0x64
	.uleb128 0x13
	.uleb128 0x1
	.uleb128 0x13
	.byte	0
	.byte	0
	.uleb128 0x31
	.uleb128 0x2e
	.byte	0x1
	.uleb128 0x31
	.uleb128 0x13
	.uleb128 0x6e
	.uleb128 0xe
	.uleb128 0x64
	.uleb128 0x13
	.uleb128 0x1
	.uleb128 0x13
	.byte	0
	.byte	0
	.uleb128 0x32
	.uleb128 0x8
	.byte	0
	.uleb128 0x3a
	.uleb128 0xb
	.uleb128 0x3b
	.uleb128 0x5
	.uleb128 0x18
	.uleb128 0x13
	.byte	0
	.byte	0
	.uleb128 0x33
	.uleb128 0x2e
	.byte	0x1
	.uleb128 0x3f
	.uleb128 0x19
	.uleb128 0x3
	.uleb128 0xe
	.uleb128 0x3a
	.uleb128 0xb
	.uleb128 0x3b
	.uleb128 0xb
	.uleb128 0x6e
	.uleb128 0xe
	.uleb128 0x49
	.uleb128 0x13
	.uleb128 0x3c
	.uleb128 0x19
	.uleb128 0x1
	.uleb128 0x13
	.byte	0
	.byte	0
	.uleb128 0x34
	.uleb128 0x1d
	.byte	0x1
	.uleb128 0x31
	.uleb128 0x13
	.uleb128 0x11
	.uleb128 0x1
	.uleb128 0x12
	.uleb128 0x7
	.uleb128 0x58
	.uleb128 0xb
	.uleb128 0x59
	.uleb128 0x5
	.uleb128 0x1
	.uleb128 0x13
	.byte	0
	.byte	0
	.uleb128 0x35
	.uleb128 0x1d
	.byte	0x1
	.uleb128 0x31
	.uleb128 0x13
	.uleb128 0x52
	.uleb128 0x1
	.uleb128 0x55
	.uleb128 0x17
	.uleb128 0x58
	.uleb128 0xb
	.uleb128 0x59
	.uleb128 0xb
	.uleb128 0x1
	.uleb128 0x13
	.byte	0
	.byte	0
	.uleb128 0x36
	.uleb128 0x2e
	.byte	0x1
	.uleb128 0x47
	.uleb128 0x13
	.uleb128 0x20
	.uleb128 0xb
	.uleb128 0x64
	.uleb128 0x13
	.uleb128 0x1
	.uleb128 0x13
	.byte	0
	.byte	0
	.uleb128 0x37
	.uleb128 0x2e
	.byte	0x1
	.uleb128 0x3f
	.uleb128 0x19
	.uleb128 0x3
	.uleb128 0xe
	.uleb128 0x3a
	.uleb128 0xb
	.uleb128 0x3b
	.uleb128 0xb
	.uleb128 0x6e
	.uleb128 0xe
	.uleb128 0x49
	.uleb128 0x13
	.uleb128 0x3c
	.uleb128 0x19
	.uleb128 0x64
	.uleb128 0x13
	.uleb128 0x1
	.uleb128 0x13
	.byte	0
	.byte	0
	.uleb128 0x38
	.uleb128 0x16
	.byte	0
	.uleb128 0x3
	.uleb128 0xe
	.uleb128 0x3a
	.uleb128 0xb
	.uleb128 0x3b
	.uleb128 0x5
	.uleb128 0x49
	.uleb128 0x13
	.uleb128 0x32
	.uleb128 0xb
	.byte	0
	.byte	0
	.uleb128 0x39
	.uleb128 0x34
	.byte	0
	.uleb128 0x3
	.uleb128 0xe
	.uleb128 0x3a
	.uleb128 0xb
	.uleb128 0x3b
	.uleb128 0xb
	.uleb128 0x6e
	.uleb128 0xe
	.uleb128 0x49
	.uleb128 0x13
	.uleb128 0x3f
	.uleb128 0x19
	.uleb128 0x3c
	.uleb128 0x19
	.byte	0
	.byte	0
	.uleb128 0x3a
	.uleb128 0x13
	.byte	0x1
	.uleb128 0x3
	.uleb128 0xe
	.uleb128 0xb
	.uleb128 0xb
	.uleb128 0x3a
	.uleb128 0xb
	.uleb128 0x3b
	.uleb128 0x5
	.uleb128 0x1
	.uleb128 0x13
	.byte	0
	.byte	0
	.uleb128 0x3b
	.uleb128 0x2f
	.byte	0
	.uleb128 0x3
	.uleb128 0xe
	.uleb128 0x49
	.uleb128 0x13
	.uleb128 0x1e
	.uleb128 0x19
	.byte	0
	.byte	0
	.uleb128 0x3c
	.uleb128 0x2e
	.byte	0
	.uleb128 0x3f
	.uleb128 0x19
	.uleb128 0x3c
	.uleb128 0x19
	.uleb128 0x6e
	.uleb128 0xe
	.uleb128 0x3
	.uleb128 0xe
	.uleb128 0x3a
	.uleb128 0xb
	.uleb128 0x3b
	.uleb128 0xb
	.uleb128 0x6e
	.uleb128 0xe
	.byte	0
	.byte	0
	.uleb128 0x3d
	.uleb128 0x4107
	.byte	0x1
	.uleb128 0x3
	.uleb128 0xe
	.uleb128 0x1
	.uleb128 0x13
	.byte	0
	.byte	0
	.uleb128 0x3e
	.uleb128 0x2f
	.byte	0
	.uleb128 0x49
	.uleb128 0x13
	.byte	0
	.byte	0
	.uleb128 0x3f
	.uleb128 0x2
	.byte	0x1
	.uleb128 0x3
	.uleb128 0xe
	.uleb128 0x3c
	.uleb128 0x19
	.uleb128 0x1
	.uleb128 0x13
	.byte	0
	.byte	0
	.uleb128 0x40
	.uleb128 0x42
	.byte	0
	.uleb128 0xb
	.uleb128 0xb
	.uleb128 0x49
	.uleb128 0x13
	.byte	0
	.byte	0
	.uleb128 0x41
	.uleb128 0x1
	.byte	0x1
	.uleb128 0x49
	.uleb128 0x13
	.uleb128 0x1
	.uleb128 0x13
	.byte	0
	.byte	0
	.uleb128 0x42
	.uleb128 0x18
	.byte	0
	.byte	0
	.byte	0
	.uleb128 0x43
	.uleb128 0x2e
	.byte	0x1
	.uleb128 0x3f
	.uleb128 0x19
	.uleb128 0x3
	.uleb128 0xe
	.uleb128 0x3a
	.uleb128 0xb
	.uleb128 0x3b
	.uleb128 0x5
	.uleb128 0x3c
	.uleb128 0x19
	.uleb128 0x1
	.uleb128 0x13
	.byte	0
	.byte	0
	.uleb128 0x44
	.uleb128 0x4109
	.byte	0x1
	.uleb128 0x11
	.uleb128 0x1
	.uleb128 0x31
	.uleb128 0x13
	.uleb128 0x1
	.uleb128 0x13
	.byte	0
	.byte	0
	.uleb128 0x45
	.uleb128 0x2
	.byte	0
	.uleb128 0x3
	.uleb128 0xe
	.uleb128 0x3c
	.uleb128 0x19
	.byte	0
	.byte	0
	.uleb128 0x46
	.uleb128 0x2e
	.byte	0x1
	.uleb128 0x3f
	.uleb128 0x19
	.uleb128 0x3
	.uleb128 0xe
	.uleb128 0x3a
	.uleb128 0xb
	.uleb128 0x3b
	.uleb128 0x5
	.uleb128 0x6e
	.uleb128 0xe
	.uleb128 0x3c
	.uleb128 0x19
	.uleb128 0x1
	.uleb128 0x13
	.byte	0
	.byte	0
	.uleb128 0x47
	.uleb128 0x2e
	.byte	0x1
	.uleb128 0x3f
	.uleb128 0x19
	.uleb128 0x3
	.uleb128 0xe
	.uleb128 0x3a
	.uleb128 0xb
	.uleb128 0x3b
	.uleb128 0x5
	.uleb128 0x6e
	.uleb128 0xe
	.uleb128 0x49
	.uleb128 0x13
	.uleb128 0x3c
	.uleb128 0x19
	.byte	0
	.byte	0
	.uleb128 0x48
	.uleb128 0x2e
	.byte	0
	.uleb128 0x3f
	.uleb128 0x19
	.uleb128 0x3
	.uleb128 0xe
	.uleb128 0x3a
	.uleb128 0xb
	.uleb128 0x3b
	.uleb128 0xb
	.uleb128 0x6e
	.uleb128 0xe
	.uleb128 0x49
	.uleb128 0x13
	.uleb128 0x3c
	.uleb128 0x19
	.byte	0
	.byte	0
	.uleb128 0x49
	.uleb128 0x13
	.byte	0x1
	.uleb128 0xb
	.uleb128 0xb
	.uleb128 0x3a
	.uleb128 0xb
	.uleb128 0x3b
	.uleb128 0xb
	.uleb128 0x6e
	.uleb128 0xe
	.uleb128 0x1
	.uleb128 0x13
	.byte	0
	.byte	0
	.uleb128 0x4a
	.uleb128 0x21
	.byte	0
	.uleb128 0x49
	.uleb128 0x13
	.uleb128 0x2f
	.uleb128 0xb
	.byte	0
	.byte	0
	.uleb128 0x4b
	.uleb128 0x34
	.byte	0
	.uleb128 0x6e
	.uleb128 0xe
	.uleb128 0x47
	.uleb128 0x13
	.uleb128 0x1c
	.uleb128 0xb
	.byte	0
	.byte	0
	.uleb128 0x4c
	.uleb128 0x2
	.byte	0x1
	.uleb128 0x3
	.uleb128 0xe
	.uleb128 0xb
	.uleb128 0xb
	.uleb128 0x3a
	.uleb128 0xb
	.uleb128 0x3b
	.uleb128 0xb
	.uleb128 0x1
	.uleb128 0x13
	.byte	0
	.byte	0
	.uleb128 0x4d
	.uleb128 0x39
	.byte	0
	.uleb128 0x3
	.uleb128 0xe
	.uleb128 0x3a
	.uleb128 0xb
	.uleb128 0x3b
	.uleb128 0x5
	.byte	0
	.byte	0
	.uleb128 0x4e
	.uleb128 0x2e
	.byte	0x1
	.uleb128 0x3f
	.uleb128 0x19
	.uleb128 0x3
	.uleb128 0x8
	.uleb128 0x3a
	.uleb128 0xb
	.uleb128 0x3b
	.uleb128 0x5
	.uleb128 0x6e
	.uleb128 0xe
	.uleb128 0x49
	.uleb128 0x13
	.uleb128 0x3c
	.uleb128 0x19
	.uleb128 0x1
	.uleb128 0x13
	.byte	0
	.byte	0
	.uleb128 0x4f
	.uleb128 0x28
	.byte	0
	.uleb128 0x3
	.uleb128 0xe
	.uleb128 0x1c
	.uleb128 0xb
	.byte	0
	.byte	0
	.uleb128 0x50
	.uleb128 0x2e
	.byte	0x1
	.uleb128 0x3f
	.uleb128 0x19
	.uleb128 0x3
	.uleb128 0xe
	.uleb128 0x3a
	.uleb128 0xb
	.uleb128 0x3b
	.uleb128 0x5
	.uleb128 0x6e
	.uleb128 0xe
	.uleb128 0x32
	.uleb128 0xb
	.uleb128 0x3c
	.uleb128 0x19
	.uleb128 0x63
	.uleb128 0x19
	.uleb128 0x64
	.uleb128 0x13
	.uleb128 0x1
	.uleb128 0x13
	.byte	0
	.byte	0
	.uleb128 0x51
	.uleb128 0x2e
	.byte	0x1
	.uleb128 0x3f
	.uleb128 0x19
	.uleb128 0x3
	.uleb128 0x8
	.uleb128 0x3a
	.uleb128 0xb
	.uleb128 0x3b
	.uleb128 0x5
	.uleb128 0x6e
	.uleb128 0xe
	.uleb128 0x49
	.uleb128 0x13
	.uleb128 0x32
	.uleb128 0xb
	.uleb128 0x3c
	.uleb128 0x19
	.uleb128 0x64
	.uleb128 0x13
	.uleb128 0x1
	.uleb128 0x13
	.byte	0
	.byte	0
	.uleb128 0x52
	.uleb128 0x30
	.byte	0
	.uleb128 0x3
	.uleb128 0xe
	.uleb128 0x49
	.uleb128 0x13
	.uleb128 0x1c
	.uleb128 0xa
	.byte	0
	.byte	0
	.uleb128 0x53
	.uleb128 0x34
	.byte	0
	.uleb128 0x3
	.uleb128 0xe
	.uleb128 0x3a
	.uleb128 0xb
	.uleb128 0x3b
	.uleb128 0x5
	.uleb128 0x49
	.uleb128 0x13
	.uleb128 0x3f
	.uleb128 0x19
	.uleb128 0x3c
	.uleb128 0x19
	.byte	0
	.byte	0
	.uleb128 0x54
	.uleb128 0xb
	.byte	0x1
	.uleb128 0x31
	.uleb128 0x13
	.uleb128 0x11
	.uleb128 0x1
	.uleb128 0x12
	.uleb128 0x7
	.byte	0
	.byte	0
	.uleb128 0x55
	.uleb128 0x39
	.byte	0
	.uleb128 0x3
	.uleb128 0xe
	.uleb128 0x3a
	.uleb128 0xb
	.uleb128 0x3b
	.uleb128 0xb
	.byte	0
	.byte	0
	.uleb128 0x56
	.uleb128 0x3a
	.byte	0
	.uleb128 0x3a
	.uleb128 0xb
	.uleb128 0x3b
	.uleb128 0xb
	.uleb128 0x18
	.uleb128 0x13
	.byte	0
	.byte	0
	.uleb128 0x57
	.uleb128 0x39
	.byte	0x1
	.uleb128 0x3
	.uleb128 0xe
	.uleb128 0x3a
	.uleb128 0xb
	.uleb128 0x3b
	.uleb128 0xb
	.uleb128 0x1
	.uleb128 0x13
	.byte	0
	.byte	0
	.uleb128 0x58
	.uleb128 0x3a
	.byte	0
	.uleb128 0x3a
	.uleb128 0xb
	.uleb128 0x3b
	.uleb128 0x5
	.uleb128 0x18
	.uleb128 0x13
	.byte	0
	.byte	0
	.uleb128 0x59
	.uleb128 0x2e
	.byte	0x1
	.uleb128 0x3f
	.uleb128 0x19
	.uleb128 0x3
	.uleb128 0xe
	.uleb128 0x3a
	.uleb128 0xb
	.uleb128 0x3b
	.uleb128 0xb
	.uleb128 0x6e
	.uleb128 0xe
	.uleb128 0x3c
	.uleb128 0x19
	.uleb128 0x1
	.uleb128 0x13
	.byte	0
	.byte	0
	.uleb128 0x5a
	.uleb128 0x2e
	.byte	0
	.uleb128 0x3f
	.uleb128 0x19
	.uleb128 0x3
	.uleb128 0xe
	.uleb128 0x3a
	.uleb128 0xb
	.uleb128 0x3b
	.uleb128 0xb
	.uleb128 0x49
	.uleb128 0x13
	.uleb128 0x3c
	.uleb128 0x19
	.byte	0
	.byte	0
	.uleb128 0x5b
	.uleb128 0xd
	.byte	0
	.uleb128 0x3
	.uleb128 0x8
	.uleb128 0x3a
	.uleb128 0xb
	.uleb128 0x3b
	.uleb128 0xb
	.uleb128 0x49
	.uleb128 0x13
	.uleb128 0x38
	.uleb128 0xb
	.byte	0
	.byte	0
	.uleb128 0x5c
	.uleb128 0x34
	.byte	0
	.uleb128 0x6e
	.uleb128 0xe
	.uleb128 0x47
	.uleb128 0x13
	.uleb128 0x1c
	.uleb128 0xd
	.byte	0
	.byte	0
	.uleb128 0x5d
	.uleb128 0x34
	.byte	0
	.uleb128 0x6e
	.uleb128 0xe
	.uleb128 0x47
	.uleb128 0x13
	.uleb128 0x1c
	.uleb128 0x5
	.byte	0
	.byte	0
	.uleb128 0x5e
	.uleb128 0x4109
	.byte	0x1
	.uleb128 0x11
	.uleb128 0x1
	.uleb128 0x1
	.uleb128 0x13
	.byte	0
	.byte	0
	.uleb128 0x5f
	.uleb128 0x34
	.byte	0
	.uleb128 0x3
	.uleb128 0xe
	.uleb128 0x3a
	.uleb128 0xb
	.uleb128 0x3b
	.uleb128 0xb
	.uleb128 0x49
	.uleb128 0x13
	.byte	0
	.byte	0
	.uleb128 0x60
	.uleb128 0x2e
	.byte	0x1
	.uleb128 0x47
	.uleb128 0x13
	.uleb128 0x3a
	.uleb128 0xb
	.uleb128 0x3b
	.uleb128 0xb
	.uleb128 0x20
	.uleb128 0xb
	.uleb128 0x64
	.uleb128 0x13
	.uleb128 0x1
	.uleb128 0x13
	.byte	0
	.byte	0
	.uleb128 0x61
	.uleb128 0x2e
	.byte	0
	.uleb128 0x3f
	.uleb128 0x19
	.uleb128 0x3c
	.uleb128 0x19
	.uleb128 0x6e
	.uleb128 0xe
	.uleb128 0x3
	.uleb128 0xe
	.uleb128 0x6e
	.uleb128 0xe
	.byte	0
	.byte	0
	.uleb128 0x62
	.uleb128 0x2e
	.byte	0x1
	.uleb128 0x3f
	.uleb128 0x19
	.uleb128 0x3
	.uleb128 0xe
	.uleb128 0x3a
	.uleb128 0xb
	.uleb128 0x3b
	.uleb128 0xb
	.uleb128 0x6e
	.uleb128 0xe
	.uleb128 0x3c
	.uleb128 0x19
	.uleb128 0x63
	.uleb128 0x19
	.uleb128 0x8b
	.uleb128 0xb
	.uleb128 0x64
	.uleb128 0x13
	.byte	0
	.byte	0
	.uleb128 0x63
	.uleb128 0xd
	.byte	0
	.uleb128 0x3
	.uleb128 0xe
	.uleb128 0x3a
	.uleb128 0xb
	.uleb128 0x3b
	.uleb128 0xb
	.uleb128 0x49
	.uleb128 0x13
	.uleb128 0x3f
	.uleb128 0x19
	.uleb128 0x3c
	.uleb128 0x19
	.uleb128 0x6c
	.uleb128 0x19
	.byte	0
	.byte	0
	.uleb128 0x64
	.uleb128 0x30
	.byte	0
	.uleb128 0x3
	.uleb128 0x8
	.uleb128 0x49
	.uleb128 0x13
	.uleb128 0x1c
	.uleb128 0xa
	.byte	0
	.byte	0
	.uleb128 0x65
	.uleb128 0x2e
	.byte	0
	.uleb128 0x3f
	.uleb128 0x19
	.uleb128 0x3
	.uleb128 0x8
	.uleb128 0x3a
	.uleb128 0xb
	.uleb128 0x3b
	.uleb128 0x5
	.uleb128 0x6e
	.uleb128 0xe
	.uleb128 0x49
	.uleb128 0x13
	.uleb128 0x3c
	.uleb128 0x19
	.byte	0
	.byte	0
	.uleb128 0x66
	.uleb128 0x28
	.byte	0
	.uleb128 0x3
	.uleb128 0xe
	.uleb128 0x1c
	.uleb128 0x6
	.byte	0
	.byte	0
	.uleb128 0x67
	.uleb128 0xd
	.byte	0
	.uleb128 0x3
	.uleb128 0xe
	.uleb128 0x3a
	.uleb128 0xb
	.uleb128 0x3b
	.uleb128 0x5
	.uleb128 0x49
	.uleb128 0x13
	.uleb128 0x3f
	.uleb128 0x19
	.uleb128 0x3c
	.uleb128 0x19
	.byte	0
	.byte	0
	.uleb128 0x68
	.uleb128 0x1c
	.byte	0
	.uleb128 0x49
	.uleb128 0x13
	.uleb128 0x38
	.uleb128 0xb
	.uleb128 0x32
	.uleb128 0xb
	.byte	0
	.byte	0
	.uleb128 0x69
	.uleb128 0x1c
	.byte	0
	.uleb128 0x49
	.uleb128 0x13
	.uleb128 0x38
	.uleb128 0xb
	.byte	0
	.byte	0
	.uleb128 0x6a
	.uleb128 0x2e
	.byte	0x1
	.uleb128 0x3f
	.uleb128 0x19
	.uleb128 0x3
	.uleb128 0xe
	.uleb128 0x6e
	.uleb128 0xe
	.uleb128 0x34
	.uleb128 0x19
	.uleb128 0x3c
	.uleb128 0x19
	.uleb128 0x64
	.uleb128 0x13
	.byte	0
	.byte	0
	.uleb128 0x6b
	.uleb128 0x2e
	.byte	0x1
	.uleb128 0x3f
	.uleb128 0x19
	.uleb128 0x3
	.uleb128 0xe
	.uleb128 0x3a
	.uleb128 0xb
	.uleb128 0x3b
	.uleb128 0x5
	.uleb128 0x6e
	.uleb128 0xe
	.uleb128 0x3c
	.uleb128 0x19
	.uleb128 0x64
	.uleb128 0x13
	.uleb128 0x1
	.uleb128 0x13
	.byte	0
	.byte	0
	.uleb128 0x6c
	.uleb128 0x2
	.byte	0x1
	.uleb128 0x3
	.uleb128 0xe
	.uleb128 0xb
	.uleb128 0xb
	.uleb128 0x3a
	.uleb128 0xb
	.uleb128 0x3b
	.uleb128 0x5
	.uleb128 0x1
	.uleb128 0x13
	.byte	0
	.byte	0
	.uleb128 0x6d
	.uleb128 0xd
	.byte	0
	.uleb128 0x3
	.uleb128 0xe
	.uleb128 0x3a
	.uleb128 0xb
	.uleb128 0x3b
	.uleb128 0x5
	.uleb128 0x49
	.uleb128 0x13
	.uleb128 0x38
	.uleb128 0xb
	.uleb128 0x32
	.uleb128 0xb
	.byte	0
	.byte	0
	.uleb128 0x6e
	.uleb128 0xd
	.byte	0
	.uleb128 0x3
	.uleb128 0xe
	.uleb128 0x3a
	.uleb128 0xb
	.uleb128 0x3b
	.uleb128 0xb
	.uleb128 0x49
	.uleb128 0x13
	.byte	0
	.byte	0
	.uleb128 0x6f
	.uleb128 0x2e
	.byte	0
	.uleb128 0x3f
	.uleb128 0x19
	.uleb128 0x3
	.uleb128 0xe
	.uleb128 0x3a
	.uleb128 0xb
	.uleb128 0x3b
	.uleb128 0x5
	.uleb128 0x49
	.uleb128 0x13
	.uleb128 0x3c
	.uleb128 0x19
	.byte	0
	.byte	0
	.uleb128 0x70
	.uleb128 0x15
	.byte	0x1
	.uleb128 0x49
	.uleb128 0x13
	.uleb128 0x1
	.uleb128 0x13
	.byte	0
	.byte	0
	.uleb128 0x71
	.uleb128 0x13
	.byte	0x1
	.uleb128 0x3
	.uleb128 0xe
	.uleb128 0xb
	.uleb128 0x5
	.uleb128 0x3a
	.uleb128 0xb
	.uleb128 0x3b
	.uleb128 0xb
	.uleb128 0x1
	.uleb128 0x13
	.byte	0
	.byte	0
	.uleb128 0x72
	.uleb128 0xb
	.byte	0x1
	.byte	0
	.byte	0
	.uleb128 0x73
	.uleb128 0x4108
	.byte	0x1
	.uleb128 0x3a
	.uleb128 0xb
	.uleb128 0x3b
	.uleb128 0xb
	.byte	0
	.byte	0
	.uleb128 0x74
	.uleb128 0x4109
	.byte	0
	.uleb128 0x11
	.uleb128 0x1
	.uleb128 0x2115
	.uleb128 0x19
	.uleb128 0x31
	.uleb128 0x13
	.byte	0
	.byte	0
	.uleb128 0x75
	.uleb128 0x5
	.byte	0
	.uleb128 0x31
	.uleb128 0x13
	.uleb128 0x2
	.uleb128 0x18
	.byte	0
	.byte	0
	.uleb128 0x76
	.uleb128 0x2e
	.byte	0
	.uleb128 0x3f
	.uleb128 0x19
	.uleb128 0x3c
	.uleb128 0x19
	.uleb128 0x6e
	.uleb128 0xe
	.uleb128 0x3
	.uleb128 0xe
	.byte	0
	.byte	0
	.uleb128 0x77
	.uleb128 0x11
	.byte	0x1
	.uleb128 0x25
	.uleb128 0xe
	.uleb128 0x13
	.uleb128 0xb
	.uleb128 0x3
	.uleb128 0xe
	.uleb128 0x1b
	.uleb128 0xe
	.uleb128 0x55
	.uleb128 0x17
	.uleb128 0x11
	.uleb128 0x1
	.uleb128 0x10
	.uleb128 0x17
	.byte	0
	.byte	0
	.uleb128 0x78
	.uleb128 0x39
	.byte	0x1
	.uleb128 0x3
	.uleb128 0x8
	.uleb128 0x3a
	.uleb128 0xb
	.uleb128 0x3b
	.uleb128 0xb
	.uleb128 0x1
	.uleb128 0x13
	.byte	0
	.byte	0
	.uleb128 0x79
	.uleb128 0x2e
	.byte	0x1
	.uleb128 0x3f
	.uleb128 0x19
	.uleb128 0x3
	.uleb128 0xe
	.uleb128 0x3a
	.uleb128 0xb
	.uleb128 0x3b
	.uleb128 0xb
	.uleb128 0x6e
	.uleb128 0xe
	.uleb128 0x3c
	.uleb128 0x19
	.uleb128 0x63
	.uleb128 0x19
	.uleb128 0x64
	.uleb128 0x13
	.uleb128 0x1
	.uleb128 0x13
	.byte	0
	.byte	0
	.uleb128 0x7a
	.uleb128 0x2e
	.byte	0x1
	.uleb128 0x3f
	.uleb128 0x19
	.uleb128 0x3
	.uleb128 0xe
	.uleb128 0x3a
	.uleb128 0xb
	.uleb128 0x3b
	.uleb128 0xb
	.uleb128 0x6e
	.uleb128 0xe
	.uleb128 0x49
	.uleb128 0x13
	.uleb128 0x32
	.uleb128 0xb
	.uleb128 0x3c
	.uleb128 0x19
	.uleb128 0x63
	.uleb128 0x19
	.uleb128 0x64
	.uleb128 0x13
	.uleb128 0x1
	.uleb128 0x13
	.byte	0
	.byte	0
	.uleb128 0x7b
	.uleb128 0x2e
	.byte	0x1
	.uleb128 0x3f
	.uleb128 0x19
	.uleb128 0x3
	.uleb128 0xe
	.uleb128 0x3a
	.uleb128 0xb
	.uleb128 0x3b
	.uleb128 0xb
	.uleb128 0x6e
	.uleb128 0xe
	.uleb128 0x49
	.uleb128 0x13
	.uleb128 0x32
	.uleb128 0xb
	.uleb128 0x3c
	.uleb128 0x19
	.uleb128 0x64
	.uleb128 0x13
	.byte	0
	.byte	0
	.uleb128 0x7c
	.uleb128 0x2e
	.byte	0x1
	.uleb128 0x3f
	.uleb128 0x19
	.uleb128 0x3
	.uleb128 0xe
	.uleb128 0x3a
	.uleb128 0xb
	.uleb128 0x3b
	.uleb128 0xb
	.uleb128 0x6e
	.uleb128 0xe
	.uleb128 0x87
	.uleb128 0x19
	.uleb128 0x3c
	.uleb128 0x19
	.uleb128 0x1
	.uleb128 0x13
	.byte	0
	.byte	0
	.uleb128 0x7d
	.uleb128 0x34
	.byte	0
	.uleb128 0x3
	.uleb128 0xe
	.uleb128 0x3a
	.uleb128 0xb
	.uleb128 0x3b
	.uleb128 0xb
	.uleb128 0x49
	.uleb128 0x13
	.uleb128 0x3c
	.uleb128 0x19
	.uleb128 0x1c
	.uleb128 0xa
	.uleb128 0x6c
	.uleb128 0x19
	.byte	0
	.byte	0
	.uleb128 0x7e
	.uleb128 0x39
	.byte	0x1
	.uleb128 0x3
	.uleb128 0xe
	.uleb128 0x3a
	.uleb128 0xb
	.uleb128 0x3b
	.uleb128 0x5
	.uleb128 0x1
	.uleb128 0x13
	.byte	0
	.byte	0
	.uleb128 0x7f
	.uleb128 0x39
	.byte	0
	.uleb128 0x3
	.uleb128 0x8
	.uleb128 0x3a
	.uleb128 0xb
	.uleb128 0x3b
	.uleb128 0xb
	.byte	0
	.byte	0
	.uleb128 0x80
	.uleb128 0x4
	.byte	0x1
	.uleb128 0x3
	.uleb128 0xe
	.uleb128 0x3e
	.uleb128 0xb
	.uleb128 0xb
	.uleb128 0xb
	.uleb128 0x49
	.uleb128 0x13
	.uleb128 0x3a
	.uleb128 0xb
	.uleb128 0x3b
	.uleb128 0xb
	.uleb128 0x1
	.uleb128 0x13
	.byte	0
	.byte	0
	.uleb128 0x81
	.uleb128 0x28
	.byte	0
	.uleb128 0x3
	.uleb128 0xe
	.uleb128 0x1c
	.uleb128 0xd
	.byte	0
	.byte	0
	.uleb128 0x82
	.uleb128 0x2
	.byte	0x1
	.uleb128 0x3
	.uleb128 0xe
	.uleb128 0xb
	.uleb128 0xb
	.uleb128 0x3a
	.uleb128 0xb
	.uleb128 0x3b
	.uleb128 0x5
	.uleb128 0x32
	.uleb128 0xb
	.uleb128 0x1
	.uleb128 0x13
	.byte	0
	.byte	0
	.uleb128 0x83
	.uleb128 0x2e
	.byte	0x1
	.uleb128 0x3f
	.uleb128 0x19
	.uleb128 0x3
	.uleb128 0xe
	.uleb128 0x3a
	.uleb128 0xb
	.uleb128 0x3b
	.uleb128 0x5
	.uleb128 0x6e
	.uleb128 0xe
	.uleb128 0x32
	.uleb128 0xb
	.uleb128 0x3c
	.uleb128 0x19
	.uleb128 0x64
	.uleb128 0x13
	.byte	0
	.byte	0
	.uleb128 0x84
	.uleb128 0x2e
	.byte	0
	.uleb128 0x3f
	.uleb128 0x19
	.uleb128 0x3c
	.uleb128 0x19
	.uleb128 0x6e
	.uleb128 0xe
	.uleb128 0x3
	.uleb128 0x8
	.uleb128 0x3a
	.uleb128 0xb
	.uleb128 0x3b
	.uleb128 0xb
	.uleb128 0x6e
	.uleb128 0xe
	.byte	0
	.byte	0
	.uleb128 0x85
	.uleb128 0x2e
	.byte	0x1
	.uleb128 0x3f
	.uleb128 0x19
	.uleb128 0x3
	.uleb128 0xe
	.uleb128 0x3a
	.uleb128 0xb
	.uleb128 0x3b
	.uleb128 0x5
	.uleb128 0x6e
	.uleb128 0xe
	.uleb128 0x49
	.uleb128 0x13
	.uleb128 0x4c
	.uleb128 0xb
	.uleb128 0x4d
	.uleb128 0x18
	.uleb128 0x1d
	.uleb128 0x13
	.uleb128 0x32
	.uleb128 0xb
	.uleb128 0x3c
	.uleb128 0x19
	.uleb128 0x64
	.uleb128 0x13
	.uleb128 0x1
	.uleb128 0x13
	.byte	0
	.byte	0
	.uleb128 0x86
	.uleb128 0x2e
	.byte	0
	.uleb128 0x3f
	.uleb128 0x19
	.uleb128 0x3c
	.uleb128 0x19
	.uleb128 0x6e
	.uleb128 0xe
	.uleb128 0x3
	.uleb128 0xe
	.uleb128 0x3a
	.uleb128 0xb
	.uleb128 0x3b
	.uleb128 0x5
	.uleb128 0x6e
	.uleb128 0xe
	.byte	0
	.byte	0
	.uleb128 0x87
	.uleb128 0x34
	.byte	0
	.uleb128 0x3
	.uleb128 0x8
	.uleb128 0x3a
	.uleb128 0xb
	.uleb128 0x3b
	.uleb128 0xb
	.uleb128 0x6e
	.uleb128 0xe
	.uleb128 0x49
	.uleb128 0x13
	.uleb128 0x3f
	.uleb128 0x19
	.uleb128 0x3c
	.uleb128 0x19
	.byte	0
	.byte	0
	.uleb128 0x88
	.uleb128 0x34
	.byte	0
	.uleb128 0x3
	.uleb128 0xe
	.uleb128 0x3a
	.uleb128 0xb
	.uleb128 0x3b
	.uleb128 0xb
	.uleb128 0x49
	.uleb128 0x13
	.uleb128 0x3c
	.uleb128 0x19
	.byte	0
	.byte	0
	.uleb128 0x89
	.uleb128 0x2e
	.byte	0x1
	.uleb128 0x3f
	.uleb128 0x19
	.uleb128 0x3
	.uleb128 0xe
	.uleb128 0x3a
	.uleb128 0xb
	.uleb128 0x3b
	.uleb128 0xb
	.uleb128 0x6e
	.uleb128 0xe
	.uleb128 0x3c
	.uleb128 0x19
	.byte	0
	.byte	0
	.uleb128 0x8a
	.uleb128 0x2e
	.byte	0x1
	.uleb128 0x3f
	.uleb128 0x19
	.uleb128 0x3
	.uleb128 0xe
	.uleb128 0x3a
	.uleb128 0xb
	.uleb128 0x3b
	.uleb128 0xb
	.uleb128 0x6e
	.uleb128 0xe
	.uleb128 0x49
	.uleb128 0x13
	.uleb128 0x3c
	.uleb128 0x19
	.byte	0
	.byte	0
	.uleb128 0x8b
	.uleb128 0x2e
	.byte	0x1
	.uleb128 0x3f
	.uleb128 0x19
	.uleb128 0x3
	.uleb128 0xe
	.uleb128 0x3a
	.uleb128 0xb
	.uleb128 0x3b
	.uleb128 0xb
	.uleb128 0x6e
	.uleb128 0xe
	.uleb128 0x32
	.uleb128 0xb
	.uleb128 0x3c
	.uleb128 0x19
	.uleb128 0x64
	.uleb128 0x13
	.byte	0
	.byte	0
	.uleb128 0x8c
	.uleb128 0x2e
	.byte	0x1
	.uleb128 0x3f
	.uleb128 0x19
	.uleb128 0x3
	.uleb128 0x8
	.uleb128 0x3a
	.uleb128 0xb
	.uleb128 0x3b
	.uleb128 0xb
	.uleb128 0x6e
	.uleb128 0xe
	.uleb128 0x49
	.uleb128 0x13
	.uleb128 0x3c
	.uleb128 0x19
	.uleb128 0x1
	.uleb128 0x13
	.byte	0
	.byte	0
	.uleb128 0x8d
	.uleb128 0xf
	.byte	0
	.uleb128 0xb
	.uleb128 0xb
	.byte	0
	.byte	0
	.uleb128 0x8e
	.uleb128 0x17
	.byte	0x1
	.uleb128 0xb
	.uleb128 0xb
	.uleb128 0x3a
	.uleb128 0xb
	.uleb128 0x3b
	.uleb128 0xb
	.uleb128 0x1
	.uleb128 0x13
	.byte	0
	.byte	0
	.uleb128 0x8f
	.uleb128 0x24
	.byte	0
	.uleb128 0xb
	.uleb128 0xb
	.uleb128 0x3e
	.uleb128 0xb
	.uleb128 0x3
	.uleb128 0x8
	.byte	0
	.byte	0
	.uleb128 0x90
	.uleb128 0x13
	.byte	0x1
	.uleb128 0x3
	.uleb128 0x8
	.uleb128 0xb
	.uleb128 0xb
	.uleb128 0x3a
	.uleb128 0xb
	.uleb128 0x3b
	.uleb128 0xb
	.uleb128 0x1
	.uleb128 0x13
	.byte	0
	.byte	0
	.uleb128 0x91
	.uleb128 0x3b
	.byte	0
	.uleb128 0x3
	.uleb128 0xe
	.byte	0
	.byte	0
	.uleb128 0x92
	.uleb128 0x34
	.byte	0
	.uleb128 0x47
	.uleb128 0x13
	.byte	0
	.byte	0
	.uleb128 0x93
	.uleb128 0x26
	.byte	0
	.byte	0
	.byte	0
	.uleb128 0x94
	.uleb128 0x15
	.byte	0
	.byte	0
	.byte	0
	.uleb128 0x95
	.uleb128 0x2e
	.byte	0x1
	.uleb128 0x3f
	.uleb128 0x19
	.uleb128 0x3
	.uleb128 0x8
	.uleb128 0x3a
	.uleb128 0xb
	.uleb128 0x3b
	.uleb128 0x5
	.uleb128 0x49
	.uleb128 0x13
	.uleb128 0x3c
	.uleb128 0x19
	.uleb128 0x1
	.uleb128 0x13
	.byte	0
	.byte	0
	.uleb128 0x96
	.uleb128 0x2e
	.byte	0x1
	.uleb128 0x3f
	.uleb128 0x19
	.uleb128 0x3
	.uleb128 0xe
	.uleb128 0x3a
	.uleb128 0xb
	.uleb128 0x3b
	.uleb128 0x5
	.uleb128 0x87
	.uleb128 0x19
	.uleb128 0x3c
	.uleb128 0x19
	.uleb128 0x1
	.uleb128 0x13
	.byte	0
	.byte	0
	.uleb128 0x97
	.uleb128 0x16
	.byte	0
	.uleb128 0x3
	.uleb128 0xe
	.uleb128 0x3a
	.uleb128 0xb
	.uleb128 0x3b
	.uleb128 0xb
	.byte	0
	.byte	0
	.uleb128 0x98
	.uleb128 0x13
	.byte	0
	.uleb128 0x3
	.uleb128 0xe
	.uleb128 0x3c
	.uleb128 0x19
	.byte	0
	.byte	0
	.uleb128 0x99
	.uleb128 0x21
	.byte	0
	.byte	0
	.byte	0
	.uleb128 0x9a
	.uleb128 0x34
	.byte	0
	.uleb128 0x47
	.uleb128 0x13
	.uleb128 0x2
	.uleb128 0x18
	.byte	0
	.byte	0
	.uleb128 0x9b
	.uleb128 0x34
	.byte	0
	.uleb128 0x3
	.uleb128 0xe
	.uleb128 0x3a
	.uleb128 0xb
	.uleb128 0x3b
	.uleb128 0xb
	.uleb128 0x49
	.uleb128 0x13
	.uleb128 0x1c
	.uleb128 0xb
	.byte	0
	.byte	0
	.uleb128 0x9c
	.uleb128 0x2e
	.byte	0x1
	.uleb128 0x3f
	.uleb128 0x19
	.uleb128 0x3
	.uleb128 0xe
	.uleb128 0x6e
	.uleb128 0xe
	.uleb128 0x34
	.uleb128 0x19
	.uleb128 0x3c
	.uleb128 0x19
	.uleb128 0x64
	.uleb128 0x13
	.uleb128 0x1
	.uleb128 0x13
	.byte	0
	.byte	0
	.uleb128 0x9d
	.uleb128 0xd
	.byte	0
	.uleb128 0x3
	.uleb128 0xe
	.uleb128 0x3a
	.uleb128 0xb
	.uleb128 0x3b
	.uleb128 0xb
	.uleb128 0x49
	.uleb128 0x13
	.uleb128 0x38
	.uleb128 0x5
	.byte	0
	.byte	0
	.uleb128 0x9e
	.uleb128 0x34
	.byte	0
	.uleb128 0x3
	.uleb128 0xe
	.uleb128 0x49
	.uleb128 0x13
	.uleb128 0x3f
	.uleb128 0x19
	.uleb128 0x34
	.uleb128 0x19
	.uleb128 0x3c
	.uleb128 0x19
	.byte	0
	.byte	0
	.uleb128 0x9f
	.uleb128 0x34
	.byte	0
	.uleb128 0x6e
	.uleb128 0xe
	.uleb128 0x47
	.uleb128 0x13
	.uleb128 0x1c
	.uleb128 0x6
	.byte	0
	.byte	0
	.uleb128 0xa0
	.uleb128 0x34
	.byte	0
	.uleb128 0x6e
	.uleb128 0xe
	.uleb128 0x47
	.uleb128 0x13
	.uleb128 0x1c
	.uleb128 0x7
	.byte	0
	.byte	0
	.uleb128 0xa1
	.uleb128 0x2e
	.byte	0x1
	.uleb128 0x3
	.uleb128 0xe
	.uleb128 0x34
	.uleb128 0x19
	.uleb128 0x11
	.uleb128 0x1
	.uleb128 0x12
	.uleb128 0x7
	.uleb128 0x40
	.uleb128 0x18
	.uleb128 0x2117
	.uleb128 0x19
	.uleb128 0x1
	.uleb128 0x13
	.byte	0
	.byte	0
	.uleb128 0xa2
	.uleb128 0x5
	.byte	0
	.uleb128 0x31
	.uleb128 0x13
	.uleb128 0x1c
	.uleb128 0x5
	.byte	0
	.byte	0
	.uleb128 0xa3
	.uleb128 0x5
	.byte	0
	.uleb128 0x31
	.uleb128 0x13
	.uleb128 0x1c
	.uleb128 0xb
	.byte	0
	.byte	0
	.uleb128 0xa4
	.uleb128 0x4109
	.byte	0x1
	.uleb128 0x11
	.uleb128 0x1
	.uleb128 0x2115
	.uleb128 0x19
	.uleb128 0x31
	.uleb128 0x13
	.byte	0
	.byte	0
	.uleb128 0xa5
	.uleb128 0x410a
	.byte	0
	.uleb128 0x2
	.uleb128 0x18
	.byte	0
	.byte	0
	.uleb128 0xa6
	.uleb128 0x2e
	.byte	0x1
	.uleb128 0x3
	.uleb128 0xe
	.uleb128 0x34
	.uleb128 0x19
	.uleb128 0x20
	.uleb128 0xb
	.uleb128 0x1
	.uleb128 0x13
	.byte	0
	.byte	0
	.uleb128 0xa7
	.uleb128 0x2e
	.byte	0x1
	.uleb128 0x47
	.uleb128 0x13
	.uleb128 0x1
	.uleb128 0x13
	.byte	0
	.byte	0
	.uleb128 0xa8
	.uleb128 0x4108
	.byte	0x1
	.uleb128 0x3a
	.uleb128 0xb
	.uleb128 0x3b
	.uleb128 0x5
	.uleb128 0x1
	.uleb128 0x13
	.byte	0
	.byte	0
	.uleb128 0xa9
	.uleb128 0x4108
	.byte	0x1
	.uleb128 0x3a
	.uleb128 0xb
	.uleb128 0x3b
	.uleb128 0x5
	.byte	0
	.byte	0
	.uleb128 0xaa
	.uleb128 0x2e
	.byte	0x1
	.uleb128 0x47
	.uleb128 0x13
	.uleb128 0x64
	.uleb128 0x13
	.uleb128 0x11
	.uleb128 0x1
	.uleb128 0x12
	.uleb128 0x7
	.uleb128 0x40
	.uleb128 0x18
	.uleb128 0x64
	.uleb128 0x13
	.uleb128 0x2117
	.uleb128 0x19
	.uleb128 0x1
	.uleb128 0x13
	.byte	0
	.byte	0
	.uleb128 0xab
	.uleb128 0x5
	.byte	0
	.uleb128 0x3
	.uleb128 0xe
	.uleb128 0x49
	.uleb128 0x13
	.uleb128 0x34
	.uleb128 0x19
	.uleb128 0x2
	.uleb128 0x17
	.byte	0
	.byte	0
	.uleb128 0xac
	.uleb128 0x5
	.byte	0
	.uleb128 0x3
	.uleb128 0xe
	.uleb128 0x3a
	.uleb128 0xb
	.uleb128 0x3b
	.uleb128 0x5
	.uleb128 0x49
	.uleb128 0x13
	.uleb128 0x2
	.uleb128 0x17
	.byte	0
	.byte	0
	.uleb128 0xad
	.uleb128 0x2e
	.byte	0x1
	.uleb128 0x3f
	.uleb128 0x19
	.uleb128 0x3
	.uleb128 0xe
	.uleb128 0x3a
	.uleb128 0xb
	.uleb128 0x3b
	.uleb128 0xb
	.uleb128 0x49
	.uleb128 0x13
	.uleb128 0x11
	.uleb128 0x1
	.uleb128 0x12
	.uleb128 0x7
	.uleb128 0x40
	.uleb128 0x18
	.uleb128 0x2117
	.uleb128 0x19
	.uleb128 0x1
	.uleb128 0x13
	.byte	0
	.byte	0
	.uleb128 0xae
	.uleb128 0x34
	.byte	0
	.uleb128 0x3
	.uleb128 0xe
	.uleb128 0x3a
	.uleb128 0xb
	.uleb128 0x3b
	.uleb128 0xb
	.uleb128 0x49
	.uleb128 0x13
	.uleb128 0x2
	.uleb128 0x18
	.byte	0
	.byte	0
	.uleb128 0xaf
	.uleb128 0xb
	.byte	0x1
	.uleb128 0x55
	.uleb128 0x17
	.uleb128 0x1
	.uleb128 0x13
	.byte	0
	.byte	0
	.uleb128 0xb0
	.uleb128 0x34
	.byte	0
	.uleb128 0x3
	.uleb128 0xe
	.uleb128 0x3a
	.uleb128 0xb
	.uleb128 0x3b
	.uleb128 0xb
	.uleb128 0x49
	.uleb128 0x13
	.uleb128 0x2
	.uleb128 0x17
	.byte	0
	.byte	0
	.uleb128 0xb1
	.uleb128 0xb
	.byte	0x1
	.uleb128 0x1
	.uleb128 0x13
	.byte	0
	.byte	0
	.uleb128 0xb2
	.uleb128 0x2e
	.byte	0x1
	.uleb128 0x31
	.uleb128 0x13
	.uleb128 0x6e
	.uleb128 0xe
	.uleb128 0x64
	.uleb128 0x13
	.uleb128 0x11
	.uleb128 0x1
	.uleb128 0x12
	.uleb128 0x7
	.uleb128 0x40
	.uleb128 0x18
	.uleb128 0x64
	.uleb128 0x13
	.uleb128 0x2117
	.uleb128 0x19
	.uleb128 0x1
	.uleb128 0x13
	.byte	0
	.byte	0
	.uleb128 0xb3
	.uleb128 0x2e
	.byte	0x1
	.uleb128 0x3f
	.uleb128 0x19
	.uleb128 0x3
	.uleb128 0xe
	.uleb128 0x3a
	.uleb128 0xb
	.uleb128 0x3b
	.uleb128 0xb
	.uleb128 0x6e
	.uleb128 0xe
	.uleb128 0x11
	.uleb128 0x1
	.uleb128 0x12
	.uleb128 0x7
	.uleb128 0x40
	.uleb128 0x18
	.uleb128 0x2117
	.uleb128 0x19
	.uleb128 0x1
	.uleb128 0x13
	.byte	0
	.byte	0
	.uleb128 0xb4
	.uleb128 0x5
	.byte	0
	.uleb128 0x3
	.uleb128 0x8
	.uleb128 0x3a
	.uleb128 0xb
	.uleb128 0x3b
	.uleb128 0xb
	.uleb128 0x49
	.uleb128 0x13
	.uleb128 0x2
	.uleb128 0x17
	.byte	0
	.byte	0
	.uleb128 0xb5
	.uleb128 0x4109
	.byte	0x1
	.uleb128 0x11
	.uleb128 0x1
	.byte	0
	.byte	0
	.uleb128 0xb6
	.uleb128 0x2e
	.byte	0x1
	.uleb128 0x3f
	.uleb128 0x19
	.uleb128 0x3
	.uleb128 0xe
	.uleb128 0x3a
	.uleb128 0xb
	.uleb128 0x3b
	.uleb128 0xb
	.uleb128 0x6e
	.uleb128 0xe
	.uleb128 0x49
	.uleb128 0x13
	.uleb128 0x20
	.uleb128 0xb
	.uleb128 0x1
	.uleb128 0x13
	.byte	0
	.byte	0
	.uleb128 0xb7
	.uleb128 0x2e
	.byte	0x1
	.uleb128 0x31
	.uleb128 0x13
	.uleb128 0x6e
	.uleb128 0xe
	.uleb128 0x11
	.uleb128 0x1
	.uleb128 0x12
	.uleb128 0x7
	.uleb128 0x40
	.uleb128 0x18
	.uleb128 0x64
	.uleb128 0x13
	.uleb128 0x2117
	.uleb128 0x19
	.uleb128 0x1
	.uleb128 0x13
	.byte	0
	.byte	0
	.uleb128 0xb8
	.uleb128 0x36
	.byte	0
	.uleb128 0x2
	.uleb128 0x18
	.byte	0
	.byte	0
	.byte	0
	.section	.debug_loc,"",@progbits
.Ldebug_loc0:
.LLST45:
	.quad	.LVL29
	.quad	.LVL34
	.value	0x1
	.byte	0x55
	.quad	.LVL34
	.quad	.LVL35
	.value	0x4
	.byte	0xf3
	.uleb128 0x1
	.byte	0x55
	.byte	0x9f
	.quad	.LVL35
	.quad	.LVL39
	.value	0x1
	.byte	0x55
	.quad	.LVL39
	.quad	.LVL42
	.value	0x1
	.byte	0x53
	.quad	.LVL42
	.quad	.LVL45
	.value	0x4
	.byte	0xf3
	.uleb128 0x1
	.byte	0x55
	.byte	0x9f
	.quad	.LVL45
	.quad	.LFE2166
	.value	0x1
	.byte	0x53
	.quad	0
	.quad	0
.LLST46:
	.quad	.LVL29
	.quad	.LVL34
	.value	0x1
	.byte	0x54
	.quad	.LVL34
	.quad	.LVL35
	.value	0x4
	.byte	0xf3
	.uleb128 0x1
	.byte	0x54
	.byte	0x9f
	.quad	.LVL35
	.quad	.LVL36
	.value	0x1
	.byte	0x54
	.quad	.LVL36
	.quad	.LVL37
	.value	0x1
	.byte	0x51
	.quad	.LVL37
	.quad	.LVL43
	.value	0x1
	.byte	0x5c
	.quad	.LVL43
	.quad	.LVL45
	.value	0x4
	.byte	0xf3
	.uleb128 0x1
	.byte	0x54
	.byte	0x9f
	.quad	.LVL45
	.quad	.LFE2166
	.value	0x1
	.byte	0x5c
	.quad	0
	.quad	0
.LLST47:
	.quad	.LVL30
	.quad	.LVL34
	.value	0x1
	.byte	0x55
	.quad	.LVL34
	.quad	.LVL35
	.value	0x4
	.byte	0xf3
	.uleb128 0x1
	.byte	0x55
	.byte	0x9f
	.quad	.LVL35
	.quad	.LVL38
	.value	0x1
	.byte	0x55
	.quad	.LVL38
	.quad	.LVL42
	.value	0x1
	.byte	0x53
	.quad	.LVL42
	.quad	.LVL45
	.value	0x4
	.byte	0xf3
	.uleb128 0x1
	.byte	0x55
	.byte	0x9f
	.quad	.LVL45
	.quad	.LFE2166
	.value	0x1
	.byte	0x53
	.quad	0
	.quad	0
.LLST48:
	.quad	.LVL30
	.quad	.LVL34
	.value	0x1
	.byte	0x55
	.quad	.LVL34
	.quad	.LVL35
	.value	0x4
	.byte	0xf3
	.uleb128 0x1
	.byte	0x55
	.byte	0x9f
	.quad	.LVL35
	.quad	.LVL38
	.value	0x1
	.byte	0x55
	.quad	.LVL38
	.quad	.LVL42
	.value	0x1
	.byte	0x53
	.quad	.LVL42
	.quad	.LVL45
	.value	0x4
	.byte	0xf3
	.uleb128 0x1
	.byte	0x55
	.byte	0x9f
	.quad	.LVL45
	.quad	.LFE2166
	.value	0x1
	.byte	0x53
	.quad	0
	.quad	0
.LLST49:
	.quad	.LVL38
	.quad	.LVL40
	.value	0x1
	.byte	0x51
	.quad	.LVL40
	.quad	.LVL41-1
	.value	0x6
	.byte	0x7c
	.sleb128 0
	.byte	0x70
	.sleb128 0
	.byte	0x1c
	.byte	0x9f
	.quad	.LVL41-1
	.quad	.LVL43
	.value	0xb
	.byte	0x7c
	.sleb128 0
	.byte	0x7d
	.sleb128 0
	.byte	0x7f
	.sleb128 0
	.byte	0x1c
	.byte	0x31
	.byte	0x26
	.byte	0x1c
	.byte	0x9f
	.quad	.LVL43
	.quad	.LVL44
	.value	0xc
	.byte	0xf3
	.uleb128 0x1
	.byte	0x54
	.byte	0x7d
	.sleb128 0
	.byte	0x7f
	.sleb128 0
	.byte	0x1c
	.byte	0x31
	.byte	0x26
	.byte	0x1c
	.byte	0x9f
	.quad	.LVL45
	.quad	.LVL51-1
	.value	0x1
	.byte	0x51
	.quad	.LVL51-1
	.quad	.LVL52
	.value	0x3
	.byte	0x91
	.sleb128 -88
	.quad	.LVL57
	.quad	.LVL58
	.value	0x1
	.byte	0x51
	.quad	.LVL59
	.quad	.LVL61-1
	.value	0x1
	.byte	0x51
	.quad	.LVL61-1
	.quad	.LFE2166
	.value	0xb
	.byte	0x7c
	.sleb128 0
	.byte	0x7d
	.sleb128 0
	.byte	0x7f
	.sleb128 0
	.byte	0x1c
	.byte	0x31
	.byte	0x26
	.byte	0x1c
	.byte	0x9f
	.quad	0
	.quad	0
.LLST50:
	.quad	.LVL38
	.quad	.LVL42
	.value	0x1
	.byte	0x53
	.quad	.LVL42
	.quad	.LVL45
	.value	0x4
	.byte	0xf3
	.uleb128 0x1
	.byte	0x55
	.byte	0x9f
	.quad	.LVL45
	.quad	.LFE2166
	.value	0x1
	.byte	0x53
	.quad	0
	.quad	0
.LLST51:
	.quad	.LVL52
	.quad	.LVL54
	.value	0x2
	.byte	0x30
	.byte	0x9f
	.quad	0
	.quad	0
.LLST52:
	.quad	.LVL45
	.quad	.LVL48
	.value	0xa
	.byte	0x3
	.quad	.LC0
	.byte	0x9f
	.quad	.LVL57
	.quad	.LVL58
	.value	0xa
	.byte	0x3
	.quad	.LC0
	.byte	0x9f
	.quad	.LVL60
	.quad	.LFE2166
	.value	0xa
	.byte	0x3
	.quad	.LC0
	.byte	0x9f
	.quad	0
	.quad	0
.LLST53:
	.quad	.LVL45
	.quad	.LVL48
	.value	0x1
	.byte	0x51
	.quad	.LVL57
	.quad	.LVL58
	.value	0x1
	.byte	0x51
	.quad	.LVL60
	.quad	.LVL61-1
	.value	0x1
	.byte	0x51
	.quad	.LVL61-1
	.quad	.LFE2166
	.value	0xb
	.byte	0x7c
	.sleb128 0
	.byte	0x7d
	.sleb128 0
	.byte	0x7f
	.sleb128 0
	.byte	0x1c
	.byte	0x31
	.byte	0x26
	.byte	0x1c
	.byte	0x9f
	.quad	0
	.quad	0
.LLST54:
	.quad	.LVL45
	.quad	.LVL48
	.value	0x1
	.byte	0x53
	.quad	.LVL57
	.quad	.LVL58
	.value	0x1
	.byte	0x53
	.quad	.LVL60
	.quad	.LFE2166
	.value	0x1
	.byte	0x53
	.quad	0
	.quad	0
.LLST55:
	.quad	.LVL48
	.quad	.LVL49
	.value	0x1
	.byte	0x53
	.quad	.LVL59
	.quad	.LVL60
	.value	0x1
	.byte	0x53
	.quad	0
	.quad	0
.LLST56:
	.quad	.LVL50
	.quad	.LVL52
	.value	0x2
	.byte	0x30
	.byte	0x9f
	.quad	0
	.quad	0
.LLST57:
	.quad	.LVL52
	.quad	.LVL53
	.value	0x1
	.byte	0x51
	.quad	0
	.quad	0
.LLST58:
	.quad	.LVL52
	.quad	.LVL54-1
	.value	0x6
	.byte	0x7e
	.sleb128 0
	.byte	0x72
	.sleb128 0
	.byte	0x22
	.byte	0x9f
	.quad	0
	.quad	0
.LLST61:
	.quad	.LVL54
	.quad	.LVL55-1
	.value	0x2
	.byte	0x73
	.sleb128 8
	.quad	0
	.quad	0
.LLST62:
	.quad	.LVL54
	.quad	.LVL55-1
	.value	0x2
	.byte	0x73
	.sleb128 0
	.quad	0
	.quad	0
.LLST63:
	.quad	.LVL54
	.quad	.LVL57
	.value	0x2
	.byte	0x31
	.byte	0x9f
	.quad	.LVL58
	.quad	.LVL59
	.value	0x2
	.byte	0x31
	.byte	0x9f
	.quad	0
	.quad	0
.LLST67:
	.quad	.LVL54
	.quad	.LVL55-1
	.value	0xa
	.byte	0x73
	.sleb128 8
	.byte	0x6
	.byte	0x73
	.sleb128 0
	.byte	0x6
	.byte	0x1c
	.byte	0x32
	.byte	0x1b
	.byte	0x9f
	.quad	.LVL58
	.quad	.LVL59
	.value	0xa
	.byte	0x73
	.sleb128 8
	.byte	0x6
	.byte	0x73
	.sleb128 0
	.byte	0x6
	.byte	0x1c
	.byte	0x32
	.byte	0x1b
	.byte	0x9f
	.quad	0
	.quad	0
.LLST68:
	.quad	.LVL58
	.quad	.LVL59
	.value	0xa
	.byte	0x73
	.sleb128 16
	.byte	0x6
	.byte	0x73
	.sleb128 0
	.byte	0x6
	.byte	0x1c
	.byte	0x32
	.byte	0x1b
	.byte	0x9f
	.quad	0
	.quad	0
.LLST69:
	.quad	.LVL58
	.quad	.LVL59
	.value	0x2
	.byte	0x73
	.sleb128 0
	.quad	0
	.quad	0
.LLST70:
	.quad	.LVL65
	.quad	.LVL66
	.value	0x2
	.byte	0x30
	.byte	0x9f
	.quad	.LVL66
	.quad	.LVL74
	.value	0x1
	.byte	0x56
	.quad	.LVL74
	.quad	.LVL75
	.value	0x3
	.byte	0x76
	.sleb128 -1
	.byte	0x9f
	.quad	.LVL75
	.quad	.LVL134
	.value	0x1
	.byte	0x56
	.quad	.LVL134
	.quad	.LVL135
	.value	0x3
	.byte	0x76
	.sleb128 -1
	.byte	0x9f
	.quad	.LVL135
	.quad	.LVL162
	.value	0x1
	.byte	0x56
	.quad	.LVL163
	.quad	.LFE1910
	.value	0x1
	.byte	0x56
	.quad	0
	.quad	0
.LLST72:
	.quad	.LVL66
	.quad	.LVL68
	.value	0x3
	.byte	0x91
	.sleb128 -184
	.quad	.LVL78
	.quad	.LVL96
	.value	0x3
	.byte	0x91
	.sleb128 -184
	.quad	.LVL165
	.quad	.LVL166
	.value	0x3
	.byte	0x91
	.sleb128 -184
	.quad	.LVL170
	.quad	.LVL172
	.value	0x3
	.byte	0x91
	.sleb128 -184
	.quad	.LVL175
	.quad	.LVL176
	.value	0x3
	.byte	0x91
	.sleb128 -184
	.quad	0
	.quad	0
.LLST75:
	.quad	.LVL66
	.quad	.LVL69
	.value	0x3
	.byte	0x91
	.sleb128 -184
	.quad	0
	.quad	0
.LLST76:
	.quad	.LVL66
	.quad	.LVL67
	.value	0x3
	.byte	0x91
	.sleb128 -136
	.quad	0
	.quad	0
.LLST80:
	.quad	.LVL79
	.quad	.LVL84-1
	.value	0x5
	.byte	0x91
	.sleb128 -136
	.byte	0x93
	.uleb128 0x8
	.quad	.LVL165
	.quad	.LVL166
	.value	0x5
	.byte	0x91
	.sleb128 -136
	.byte	0x93
	.uleb128 0x8
	.quad	.LVL170
	.quad	.LVL172
	.value	0x5
	.byte	0x91
	.sleb128 -136
	.byte	0x93
	.uleb128 0x8
	.quad	.LVL175
	.quad	.LVL176
	.value	0x5
	.byte	0x91
	.sleb128 -136
	.byte	0x93
	.uleb128 0x8
	.quad	0
	.quad	0
.LLST81:
	.quad	.LVL79
	.quad	.LVL98
	.value	0x3
	.byte	0x91
	.sleb128 -184
	.quad	.LVL165
	.quad	.LVL166
	.value	0x3
	.byte	0x91
	.sleb128 -184
	.quad	.LVL170
	.quad	.LVL172
	.value	0x3
	.byte	0x91
	.sleb128 -184
	.quad	.LVL175
	.quad	.LVL176
	.value	0x3
	.byte	0x91
	.sleb128 -184
	.quad	0
	.quad	0
.LLST82:
	.quad	.LVL171
	.quad	.LVL172
	.value	0x5
	.byte	0x78
	.sleb128 0
	.byte	0x32
	.byte	0x1b
	.byte	0x9f
	.quad	.LVL175
	.quad	.LVL176
	.value	0x5
	.byte	0x78
	.sleb128 0
	.byte	0x32
	.byte	0x1b
	.byte	0x9f
	.quad	0
	.quad	0
.LLST83:
	.quad	.LVL88
	.quad	.LVL90
	.value	0x2
	.byte	0x30
	.byte	0x9f
	.quad	.LVL91
	.quad	.LVL92-1
	.value	0x1
	.byte	0x58
	.quad	.LVL93
	.quad	.LVL97
	.value	0x1
	.byte	0x53
	.quad	.LVL97
	.quad	.LVL98
	.value	0x3
	.byte	0x91
	.sleb128 -176
	.quad	0
	.quad	0
.LLST84:
	.quad	.LVL79
	.quad	.LVL83
	.value	0x6
	.byte	0xf2
	.long	.Ldebug_info0+32657
	.sleb128 0
	.quad	.LVL165
	.quad	.LVL166
	.value	0x6
	.byte	0xf2
	.long	.Ldebug_info0+32657
	.sleb128 0
	.quad	.LVL170
	.quad	.LVL171
	.value	0x6
	.byte	0xf2
	.long	.Ldebug_info0+32657
	.sleb128 0
	.quad	0
	.quad	0
.LLST85:
	.quad	.LVL79
	.quad	.LVL83
	.value	0x2
	.byte	0x31
	.byte	0x9f
	.quad	.LVL165
	.quad	.LVL166
	.value	0x2
	.byte	0x31
	.byte	0x9f
	.quad	.LVL170
	.quad	.LVL171
	.value	0x2
	.byte	0x31
	.byte	0x9f
	.quad	0
	.quad	0
.LLST86:
	.quad	.LVL79
	.quad	.LVL83
	.value	0x3
	.byte	0x91
	.sleb128 -184
	.quad	.LVL165
	.quad	.LVL166
	.value	0x3
	.byte	0x91
	.sleb128 -184
	.quad	.LVL170
	.quad	.LVL171
	.value	0x3
	.byte	0x91
	.sleb128 -184
	.quad	0
	.quad	0
.LLST87:
	.quad	.LVL82
	.quad	.LVL83
	.value	0x1
	.byte	0x58
	.quad	.LVL170
	.quad	.LVL171
	.value	0x1
	.byte	0x58
	.quad	0
	.quad	0
.LLST88:
	.quad	.LVL80
	.quad	.LVL98
	.value	0x3
	.byte	0x91
	.sleb128 -184
	.quad	.LVL165
	.quad	.LVL166
	.value	0x3
	.byte	0x91
	.sleb128 -184
	.quad	.LVL170
	.quad	.LVL172
	.value	0x3
	.byte	0x91
	.sleb128 -184
	.quad	.LVL175
	.quad	.LVL176
	.value	0x3
	.byte	0x91
	.sleb128 -184
	.quad	0
	.quad	0
.LLST90:
	.quad	.LVL80
	.quad	.LVL81
	.value	0x6
	.byte	0xf2
	.long	.Ldebug_info0+24419
	.sleb128 0
	.quad	.LVL165
	.quad	.LVL166
	.value	0x6
	.byte	0xf2
	.long	.Ldebug_info0+24419
	.sleb128 0
	.quad	0
	.quad	0
.LLST92:
	.quad	.LVL171
	.quad	.LVL172
	.value	0x3
	.byte	0x91
	.sleb128 -184
	.quad	.LVL175
	.quad	.LVL176
	.value	0x3
	.byte	0x91
	.sleb128 -184
	.quad	0
	.quad	0
.LLST93:
	.quad	.LVL171
	.quad	.LVL172
	.value	0x1
	.byte	0x58
	.quad	.LVL175
	.quad	.LVL176
	.value	0x1
	.byte	0x58
	.quad	0
	.quad	0
.LLST94:
	.quad	.LVL83
	.quad	.LVL88
	.value	0x2
	.byte	0x30
	.byte	0x9f
	.quad	0
	.quad	0
.LLST95:
	.quad	.LVL85
	.quad	.LVL88
	.value	0x3
	.byte	0x91
	.sleb128 -184
	.quad	0
	.quad	0
.LLST96:
	.quad	.LVL85
	.quad	.LVL86
	.value	0x6
	.byte	0x70
	.sleb128 0
	.byte	0x7e
	.sleb128 0
	.byte	0x22
	.byte	0x9f
	.quad	.LVL86
	.quad	.LVL87
	.value	0x6
	.byte	0x7d
	.sleb128 0
	.byte	0x7e
	.sleb128 0
	.byte	0x22
	.byte	0x9f
	.quad	.LVL87
	.quad	.LVL88
	.value	0x1
	.byte	0x5e
	.quad	0
	.quad	0
.LLST99:
	.quad	.LVL88
	.quad	.LVL89-1
	.value	0x4
	.byte	0x91
	.sleb128 -184
	.byte	0x6
	.quad	0
	.quad	0
.LLST100:
	.quad	.LVL88
	.quad	.LVL98
	.value	0x2
	.byte	0x31
	.byte	0x9f
	.quad	0
	.quad	0
.LLST103:
	.quad	.LVL88
	.quad	.LVL89-1
	.value	0xb
	.byte	0x73
	.sleb128 0
	.byte	0x91
	.sleb128 -184
	.byte	0x6
	.byte	0x6
	.byte	0x1c
	.byte	0x32
	.byte	0x1b
	.byte	0x9f
	.quad	0
	.quad	0
.LLST104:
	.quad	.LVL91
	.quad	.LVL92-1
	.value	0x1
	.byte	0x58
	.quad	0
	.quad	0
.LLST105:
	.quad	.LVL91
	.quad	.LVL92-1
	.value	0x3
	.byte	0x91
	.sleb128 -136
	.quad	0
	.quad	0
.LLST108:
	.quad	.LVL91
	.quad	.LVL98
	.value	0x2
	.byte	0x31
	.byte	0x9f
	.quad	0
	.quad	0
.LLST114:
	.quad	.LVL91
	.quad	.LVL92-1
	.value	0xa
	.byte	0x91
	.sleb128 -136
	.byte	0x6
	.byte	0x73
	.sleb128 0
	.byte	0x1c
	.byte	0x32
	.byte	0x1b
	.byte	0x9f
	.quad	0
	.quad	0
.LLST116:
	.quad	.LVL68
	.quad	.LVL71
	.value	0x4
	.byte	0x91
	.sleb128 -120
	.byte	0x9f
	.quad	.LVL96
	.quad	.LVL115
	.value	0x4
	.byte	0x91
	.sleb128 -120
	.byte	0x9f
	.quad	.LVL164
	.quad	.LVL165
	.value	0x4
	.byte	0x91
	.sleb128 -120
	.byte	0x9f
	.quad	.LVL166
	.quad	.LVL168
	.value	0x4
	.byte	0x91
	.sleb128 -120
	.byte	0x9f
	.quad	.LVL177
	.quad	.LFE1910
	.value	0x4
	.byte	0x91
	.sleb128 -120
	.byte	0x9f
	.quad	0
	.quad	0
.LLST119:
	.quad	.LVL69
	.quad	.LVL72
	.value	0x4
	.byte	0x91
	.sleb128 -120
	.byte	0x9f
	.quad	0
	.quad	0
.LLST120:
	.quad	.LVL69
	.quad	.LVL70
	.value	0x1
	.byte	0x53
	.quad	0
	.quad	0
.LLST124:
	.quad	.LVL98
	.quad	.LVL114
	.value	0x3
	.byte	0x53
	.byte	0x93
	.uleb128 0x8
	.quad	.LVL164
	.quad	.LVL165
	.value	0x3
	.byte	0x53
	.byte	0x93
	.uleb128 0x8
	.quad	.LVL166
	.quad	.LVL168
	.value	0x3
	.byte	0x53
	.byte	0x93
	.uleb128 0x8
	.quad	.LVL177
	.quad	.LFE1910
	.value	0x3
	.byte	0x53
	.byte	0x93
	.uleb128 0x8
	.quad	0
	.quad	0
.LLST125:
	.quad	.LVL98
	.quad	.LVL116
	.value	0x4
	.byte	0x91
	.sleb128 -120
	.byte	0x9f
	.quad	.LVL164
	.quad	.LVL165
	.value	0x4
	.byte	0x91
	.sleb128 -120
	.byte	0x9f
	.quad	.LVL166
	.quad	.LVL168
	.value	0x4
	.byte	0x91
	.sleb128 -120
	.byte	0x9f
	.quad	.LVL177
	.quad	.LFE1910
	.value	0x4
	.byte	0x91
	.sleb128 -120
	.byte	0x9f
	.quad	0
	.quad	0
.LLST126:
	.quad	.LVL167
	.quad	.LVL168
	.value	0x5
	.byte	0x79
	.sleb128 0
	.byte	0x32
	.byte	0x1b
	.byte	0x9f
	.quad	.LVL177
	.quad	.LFE1910
	.value	0x5
	.byte	0x79
	.sleb128 0
	.byte	0x32
	.byte	0x1b
	.byte	0x9f
	.quad	0
	.quad	0
.LLST127:
	.quad	.LVL106
	.quad	.LVL108
	.value	0x2
	.byte	0x30
	.byte	0x9f
	.quad	.LVL109
	.quad	.LVL110-1
	.value	0x1
	.byte	0x59
	.quad	.LVL111
	.quad	.LVL116
	.value	0x1
	.byte	0x5d
	.quad	0
	.quad	0
.LLST128:
	.quad	.LVL98
	.quad	.LVL102
	.value	0x6
	.byte	0xf2
	.long	.Ldebug_info0+32657
	.sleb128 0
	.quad	.LVL164
	.quad	.LVL165
	.value	0x6
	.byte	0xf2
	.long	.Ldebug_info0+32657
	.sleb128 0
	.quad	.LVL166
	.quad	.LVL167
	.value	0x6
	.byte	0xf2
	.long	.Ldebug_info0+32657
	.sleb128 0
	.quad	0
	.quad	0
.LLST129:
	.quad	.LVL98
	.quad	.LVL102
	.value	0x2
	.byte	0x31
	.byte	0x9f
	.quad	.LVL164
	.quad	.LVL165
	.value	0x2
	.byte	0x31
	.byte	0x9f
	.quad	.LVL166
	.quad	.LVL167
	.value	0x2
	.byte	0x31
	.byte	0x9f
	.quad	0
	.quad	0
.LLST130:
	.quad	.LVL98
	.quad	.LVL102
	.value	0x4
	.byte	0x91
	.sleb128 -120
	.byte	0x9f
	.quad	.LVL164
	.quad	.LVL165
	.value	0x4
	.byte	0x91
	.sleb128 -120
	.byte	0x9f
	.quad	.LVL166
	.quad	.LVL167
	.value	0x4
	.byte	0x91
	.sleb128 -120
	.byte	0x9f
	.quad	0
	.quad	0
.LLST131:
	.quad	.LVL101
	.quad	.LVL102
	.value	0x1
	.byte	0x59
	.quad	.LVL166
	.quad	.LVL167
	.value	0x1
	.byte	0x59
	.quad	0
	.quad	0
.LLST132:
	.quad	.LVL99
	.quad	.LVL116
	.value	0x4
	.byte	0x91
	.sleb128 -120
	.byte	0x9f
	.quad	.LVL164
	.quad	.LVL165
	.value	0x4
	.byte	0x91
	.sleb128 -120
	.byte	0x9f
	.quad	.LVL166
	.quad	.LVL168
	.value	0x4
	.byte	0x91
	.sleb128 -120
	.byte	0x9f
	.quad	.LVL177
	.quad	.LFE1910
	.value	0x4
	.byte	0x91
	.sleb128 -120
	.byte	0x9f
	.quad	0
	.quad	0
.LLST134:
	.quad	.LVL99
	.quad	.LVL100
	.value	0x6
	.byte	0xf2
	.long	.Ldebug_info0+26076
	.sleb128 0
	.quad	.LVL164
	.quad	.LVL165
	.value	0x6
	.byte	0xf2
	.long	.Ldebug_info0+26076
	.sleb128 0
	.quad	0
	.quad	0
.LLST136:
	.quad	.LVL167
	.quad	.LVL168
	.value	0x4
	.byte	0x91
	.sleb128 -120
	.byte	0x9f
	.quad	.LVL177
	.quad	.LFE1910
	.value	0x4
	.byte	0x91
	.sleb128 -120
	.byte	0x9f
	.quad	0
	.quad	0
.LLST137:
	.quad	.LVL167
	.quad	.LVL168
	.value	0x1
	.byte	0x59
	.quad	.LVL177
	.quad	.LFE1910
	.value	0x1
	.byte	0x59
	.quad	0
	.quad	0
.LLST138:
	.quad	.LVL102
	.quad	.LVL106
	.value	0x2
	.byte	0x30
	.byte	0x9f
	.quad	0
	.quad	0
.LLST139:
	.quad	.LVL104
	.quad	.LVL106
	.value	0x4
	.byte	0x91
	.sleb128 -120
	.byte	0x9f
	.quad	0
	.quad	0
.LLST140:
	.quad	.LVL104
	.quad	.LVL105
	.value	0x6
	.byte	0x70
	.sleb128 0
	.byte	0x7e
	.sleb128 0
	.byte	0x22
	.byte	0x9f
	.quad	.LVL105
	.quad	.LVL106
	.value	0x1
	.byte	0x5e
	.quad	0
	.quad	0
.LLST143:
	.quad	.LVL106
	.quad	.LVL108
	.value	0x1
	.byte	0x53
	.quad	0
	.quad	0
.LLST144:
	.quad	.LVL106
	.quad	.LVL107-1
	.value	0x3
	.byte	0x91
	.sleb128 -120
	.quad	0
	.quad	0
.LLST145:
	.quad	.LVL106
	.quad	.LVL116
	.value	0x2
	.byte	0x31
	.byte	0x9f
	.quad	0
	.quad	0
.LLST149:
	.quad	.LVL106
	.quad	.LVL107-1
	.value	0xa
	.byte	0x73
	.sleb128 0
	.byte	0x91
	.sleb128 -120
	.byte	0x6
	.byte	0x1c
	.byte	0x32
	.byte	0x1b
	.byte	0x9f
	.quad	0
	.quad	0
.LLST150:
	.quad	.LVL109
	.quad	.LVL110-1
	.value	0x1
	.byte	0x59
	.quad	0
	.quad	0
.LLST151:
	.quad	.LVL109
	.quad	.LVL110-1
	.value	0x3
	.byte	0x91
	.sleb128 -112
	.quad	0
	.quad	0
.LLST152:
	.quad	.LVL109
	.quad	.LVL111
	.value	0x1
	.byte	0x53
	.quad	0
	.quad	0
.LLST155:
	.quad	.LVL109
	.quad	.LVL116
	.value	0x2
	.byte	0x31
	.byte	0x9f
	.quad	0
	.quad	0
.LLST162:
	.quad	.LVL109
	.quad	.LVL110-1
	.value	0xa
	.byte	0x91
	.sleb128 -112
	.byte	0x6
	.byte	0x73
	.sleb128 0
	.byte	0x1c
	.byte	0x32
	.byte	0x1b
	.byte	0x9f
	.quad	0
	.quad	0
.LLST164:
	.quad	.LVL71
	.quad	.LVL75
	.value	0x4
	.byte	0x91
	.sleb128 -96
	.byte	0x9f
	.quad	.LVL115
	.quad	.LVL135
	.value	0x4
	.byte	0x91
	.sleb128 -96
	.byte	0x9f
	.quad	.LVL163
	.quad	.LVL164
	.value	0x4
	.byte	0x91
	.sleb128 -96
	.byte	0x9f
	.quad	.LVL168
	.quad	.LVL170
	.value	0x4
	.byte	0x91
	.sleb128 -96
	.byte	0x9f
	.quad	.LVL176
	.quad	.LVL177
	.value	0x4
	.byte	0x91
	.sleb128 -96
	.byte	0x9f
	.quad	0
	.quad	0
.LLST167:
	.quad	.LVL72
	.quad	.LVL76
	.value	0x4
	.byte	0x91
	.sleb128 -96
	.byte	0x9f
	.quad	0
	.quad	0
.LLST168:
	.quad	.LVL72
	.quad	.LVL73
	.value	0x1
	.byte	0x53
	.quad	0
	.quad	0
.LLST172:
	.quad	.LVL116
	.quad	.LVL130
	.value	0x3
	.byte	0x53
	.byte	0x93
	.uleb128 0x8
	.quad	.LVL163
	.quad	.LVL164
	.value	0x3
	.byte	0x53
	.byte	0x93
	.uleb128 0x8
	.quad	.LVL168
	.quad	.LVL170
	.value	0x3
	.byte	0x53
	.byte	0x93
	.uleb128 0x8
	.quad	.LVL176
	.quad	.LVL177
	.value	0x3
	.byte	0x53
	.byte	0x93
	.uleb128 0x8
	.quad	0
	.quad	0
.LLST173:
	.quad	.LVL116
	.quad	.LVL136
	.value	0x4
	.byte	0x91
	.sleb128 -96
	.byte	0x9f
	.quad	.LVL163
	.quad	.LVL164
	.value	0x4
	.byte	0x91
	.sleb128 -96
	.byte	0x9f
	.quad	.LVL168
	.quad	.LVL170
	.value	0x4
	.byte	0x91
	.sleb128 -96
	.byte	0x9f
	.quad	.LVL176
	.quad	.LVL177
	.value	0x4
	.byte	0x91
	.sleb128 -96
	.byte	0x9f
	.quad	0
	.quad	0
.LLST174:
	.quad	.LVL169
	.quad	.LVL170
	.value	0x5
	.byte	0x78
	.sleb128 0
	.byte	0x32
	.byte	0x1b
	.byte	0x9f
	.quad	.LVL176
	.quad	.LVL177
	.value	0x5
	.byte	0x78
	.sleb128 0
	.byte	0x32
	.byte	0x1b
	.byte	0x9f
	.quad	0
	.quad	0
.LLST175:
	.quad	.LVL125
	.quad	.LVL127
	.value	0x2
	.byte	0x30
	.byte	0x9f
	.quad	.LVL128
	.quad	.LVL129-1
	.value	0x1
	.byte	0x58
	.quad	.LVL131
	.quad	.LVL136
	.value	0x1
	.byte	0x53
	.quad	0
	.quad	0
.LLST176:
	.quad	.LVL116
	.quad	.LVL120
	.value	0x6
	.byte	0xf2
	.long	.Ldebug_info0+32657
	.sleb128 0
	.quad	.LVL163
	.quad	.LVL164
	.value	0x6
	.byte	0xf2
	.long	.Ldebug_info0+32657
	.sleb128 0
	.quad	.LVL168
	.quad	.LVL169
	.value	0x6
	.byte	0xf2
	.long	.Ldebug_info0+32657
	.sleb128 0
	.quad	0
	.quad	0
.LLST177:
	.quad	.LVL116
	.quad	.LVL120
	.value	0x2
	.byte	0x31
	.byte	0x9f
	.quad	.LVL163
	.quad	.LVL164
	.value	0x2
	.byte	0x31
	.byte	0x9f
	.quad	.LVL168
	.quad	.LVL169
	.value	0x2
	.byte	0x31
	.byte	0x9f
	.quad	0
	.quad	0
.LLST178:
	.quad	.LVL116
	.quad	.LVL120
	.value	0x4
	.byte	0x91
	.sleb128 -96
	.byte	0x9f
	.quad	.LVL163
	.quad	.LVL164
	.value	0x4
	.byte	0x91
	.sleb128 -96
	.byte	0x9f
	.quad	.LVL168
	.quad	.LVL169
	.value	0x4
	.byte	0x91
	.sleb128 -96
	.byte	0x9f
	.quad	0
	.quad	0
.LLST179:
	.quad	.LVL119
	.quad	.LVL120
	.value	0x1
	.byte	0x58
	.quad	.LVL168
	.quad	.LVL169
	.value	0x1
	.byte	0x58
	.quad	0
	.quad	0
.LLST180:
	.quad	.LVL117
	.quad	.LVL136
	.value	0x4
	.byte	0x91
	.sleb128 -96
	.byte	0x9f
	.quad	.LVL163
	.quad	.LVL164
	.value	0x4
	.byte	0x91
	.sleb128 -96
	.byte	0x9f
	.quad	.LVL168
	.quad	.LVL170
	.value	0x4
	.byte	0x91
	.sleb128 -96
	.byte	0x9f
	.quad	.LVL176
	.quad	.LVL177
	.value	0x4
	.byte	0x91
	.sleb128 -96
	.byte	0x9f
	.quad	0
	.quad	0
.LLST182:
	.quad	.LVL117
	.quad	.LVL118
	.value	0x6
	.byte	0xf2
	.long	.Ldebug_info0+27733
	.sleb128 0
	.quad	.LVL163
	.quad	.LVL164
	.value	0x6
	.byte	0xf2
	.long	.Ldebug_info0+27733
	.sleb128 0
	.quad	0
	.quad	0
.LLST184:
	.quad	.LVL169
	.quad	.LVL170
	.value	0x4
	.byte	0x91
	.sleb128 -96
	.byte	0x9f
	.quad	.LVL176
	.quad	.LVL177
	.value	0x4
	.byte	0x91
	.sleb128 -96
	.byte	0x9f
	.quad	0
	.quad	0
.LLST185:
	.quad	.LVL169
	.quad	.LVL170
	.value	0x1
	.byte	0x58
	.quad	.LVL176
	.quad	.LVL177
	.value	0x1
	.byte	0x58
	.quad	0
	.quad	0
.LLST186:
	.quad	.LVL120
	.quad	.LVL125
	.value	0x2
	.byte	0x30
	.byte	0x9f
	.quad	0
	.quad	0
.LLST187:
	.quad	.LVL122
	.quad	.LVL125
	.value	0x4
	.byte	0x91
	.sleb128 -96
	.byte	0x9f
	.quad	0
	.quad	0
.LLST188:
	.quad	.LVL122
	.quad	.LVL123
	.value	0x6
	.byte	0x70
	.sleb128 0
	.byte	0x7e
	.sleb128 0
	.byte	0x22
	.byte	0x9f
	.quad	.LVL123
	.quad	.LVL124
	.value	0x6
	.byte	0x7d
	.sleb128 0
	.byte	0x7e
	.sleb128 0
	.byte	0x22
	.byte	0x9f
	.quad	.LVL124
	.quad	.LVL125
	.value	0x1
	.byte	0x5e
	.quad	0
	.quad	0
.LLST191:
	.quad	.LVL125
	.quad	.LVL127
	.value	0x1
	.byte	0x53
	.quad	0
	.quad	0
.LLST192:
	.quad	.LVL125
	.quad	.LVL126-1
	.value	0x3
	.byte	0x91
	.sleb128 -96
	.quad	0
	.quad	0
.LLST193:
	.quad	.LVL125
	.quad	.LVL136
	.value	0x2
	.byte	0x31
	.byte	0x9f
	.quad	0
	.quad	0
.LLST197:
	.quad	.LVL125
	.quad	.LVL126-1
	.value	0xa
	.byte	0x73
	.sleb128 0
	.byte	0x91
	.sleb128 -96
	.byte	0x6
	.byte	0x1c
	.byte	0x32
	.byte	0x1b
	.byte	0x9f
	.quad	0
	.quad	0
.LLST198:
	.quad	.LVL128
	.quad	.LVL129-1
	.value	0x1
	.byte	0x58
	.quad	0
	.quad	0
.LLST199:
	.quad	.LVL128
	.quad	.LVL129-1
	.value	0x3
	.byte	0x91
	.sleb128 -88
	.quad	0
	.quad	0
.LLST200:
	.quad	.LVL128
	.quad	.LVL130
	.value	0x1
	.byte	0x53
	.quad	0
	.quad	0
.LLST203:
	.quad	.LVL128
	.quad	.LVL136
	.value	0x2
	.byte	0x31
	.byte	0x9f
	.quad	0
	.quad	0
.LLST210:
	.quad	.LVL128
	.quad	.LVL129-1
	.value	0xa
	.byte	0x91
	.sleb128 -88
	.byte	0x6
	.byte	0x73
	.sleb128 0
	.byte	0x1c
	.byte	0x32
	.byte	0x1b
	.byte	0x9f
	.quad	0
	.quad	0
.LLST211:
	.quad	.LVL62
	.quad	.LVL65
	.value	0x1
	.byte	0x51
	.quad	0
	.quad	0
.LLST212:
	.quad	.LVL64
	.quad	.LVL65
	.value	0x4
	.byte	0x91
	.sleb128 -96
	.byte	0x9f
	.quad	0
	.quad	0
.LLST215:
	.quad	.LVL62
	.quad	.LVL63
	.value	0x1
	.byte	0x51
	.quad	0
	.quad	0
.LLST218:
	.quad	.LVL63
	.quad	.LVL64
	.value	0x4
	.byte	0x91
	.sleb128 -120
	.byte	0x9f
	.quad	0
	.quad	0
.LLST221:
	.quad	.LVL136
	.quad	.LVL137
	.value	0xa
	.byte	0x3
	.quad	.LC1
	.byte	0x9f
	.quad	0
	.quad	0
.LLST222:
	.quad	.LVL137
	.quad	.LVL140
	.value	0x3
	.byte	0x91
	.sleb128 -184
	.quad	.LVL140
	.quad	.LVL143
	.value	0x4
	.byte	0x91
	.sleb128 -120
	.byte	0x9f
	.quad	.LVL143
	.quad	.LVL163
	.value	0x4
	.byte	0x91
	.sleb128 -96
	.byte	0x9f
	.quad	.LVL174
	.quad	.LVL175
	.value	0x4
	.byte	0x91
	.sleb128 -96
	.byte	0x9f
	.quad	0
	.quad	0
.LLST224:
	.quad	.LVL138
	.quad	.LVL139-1
	.value	0x1
	.byte	0x50
	.quad	0
	.quad	0
.LLST225:
	.quad	.LVL139
	.quad	.LVL140
	.value	0xa
	.byte	0x3
	.quad	.LC2
	.byte	0x9f
	.quad	0
	.quad	0
.LLST226:
	.quad	.LVL140
	.quad	.LVL143
	.value	0x4
	.byte	0x91
	.sleb128 -120
	.byte	0x9f
	.quad	.LVL143
	.quad	.LVL163
	.value	0x4
	.byte	0x91
	.sleb128 -96
	.byte	0x9f
	.quad	.LVL174
	.quad	.LVL175
	.value	0x4
	.byte	0x91
	.sleb128 -96
	.byte	0x9f
	.quad	0
	.quad	0
.LLST228:
	.quad	.LVL141
	.quad	.LVL142-1
	.value	0x1
	.byte	0x50
	.quad	0
	.quad	0
.LLST229:
	.quad	.LVL142
	.quad	.LVL143
	.value	0xa
	.byte	0x3
	.quad	.LC3
	.byte	0x9f
	.quad	0
	.quad	0
.LLST230:
	.quad	.LVL143
	.quad	.LVL163
	.value	0x4
	.byte	0x91
	.sleb128 -96
	.byte	0x9f
	.quad	.LVL174
	.quad	.LVL175
	.value	0x4
	.byte	0x91
	.sleb128 -96
	.byte	0x9f
	.quad	0
	.quad	0
.LLST232:
	.quad	.LVL144
	.quad	.LVL145-1
	.value	0x1
	.byte	0x50
	.quad	0
	.quad	0
.LLST233:
	.quad	.LVL148
	.quad	.LVL149
	.value	0xa
	.byte	0x3
	.quad	.LC4
	.byte	0x9f
	.quad	0
	.quad	0
.LLST234:
	.quad	.LVL149
	.quad	.LVL150
	.value	0x4
	.byte	0xa
	.value	0x21d
	.byte	0x9f
	.quad	0
	.quad	0
.LLST235:
	.quad	.LVL150
	.quad	.LVL151-1
	.value	0x1
	.byte	0x50
	.quad	0
	.quad	0
.LLST236:
	.quad	.LVL151
	.quad	.LVL152
	.value	0xa
	.byte	0x3
	.quad	.LC5
	.byte	0x9f
	.quad	0
	.quad	0
.LLST237:
	.quad	.LVL152
	.quad	.LVL153
	.value	0x3
	.byte	0x8
	.byte	0xb4
	.byte	0x9f
	.quad	0
	.quad	0
.LLST238:
	.quad	.LVL153
	.quad	.LVL154-1
	.value	0x1
	.byte	0x50
	.quad	0
	.quad	0
.LLST239:
	.quad	.LVL154
	.quad	.LVL155
	.value	0xa
	.byte	0x3
	.quad	.LC6
	.byte	0x9f
	.quad	0
	.quad	0
.LLST240:
	.quad	.LVL155
	.quad	.LVL156
	.value	0x3
	.byte	0x8
	.byte	0xb4
	.byte	0x9f
	.quad	0
	.quad	0
.LLST241:
	.quad	.LVL156
	.quad	.LVL157-1
	.value	0x1
	.byte	0x50
	.quad	0
	.quad	0
.LLST242:
	.quad	.LVL157
	.quad	.LVL158
	.value	0xa
	.byte	0x3
	.quad	.LC7
	.byte	0x9f
	.quad	0
	.quad	0
.LLST243:
	.quad	.LVL158
	.quad	.LVL159
	.value	0x3
	.byte	0x8
	.byte	0xb4
	.byte	0x9f
	.quad	0
	.quad	0
.LLST244:
	.quad	.LVL159
	.quad	.LVL160-1
	.value	0x1
	.byte	0x50
	.quad	0
	.quad	0
.LLST11:
	.quad	.LVL17
	.quad	.LVL18
	.value	0x1
	.byte	0x55
	.quad	.LVL18
	.quad	.LVL26
	.value	0x1
	.byte	0x53
	.quad	.LVL26
	.quad	.LVL27
	.value	0x4
	.byte	0xf3
	.uleb128 0x1
	.byte	0x55
	.byte	0x9f
	.quad	.LVL27
	.quad	.LVL28
	.value	0x1
	.byte	0x53
	.quad	.LVL28
	.quad	.LFE1915
	.value	0x4
	.byte	0xf3
	.uleb128 0x1
	.byte	0x55
	.byte	0x9f
	.quad	0
	.quad	0
.LLST12:
	.quad	.LVL17
	.quad	.LVL18
	.value	0x3
	.byte	0x75
	.sleb128 48
	.byte	0x9f
	.quad	.LVL18
	.quad	.LVL20
	.value	0x3
	.byte	0x73
	.sleb128 48
	.byte	0x9f
	.quad	0
	.quad	0
.LLST13:
	.quad	.LVL18
	.quad	.LVL20
	.value	0x3
	.byte	0x73
	.sleb128 48
	.byte	0x9f
	.quad	0
	.quad	0
.LLST14:
	.quad	.LVL18
	.quad	.LVL21
	.value	0x3
	.byte	0x73
	.sleb128 48
	.byte	0x9f
	.quad	.LVL21
	.quad	.LVL24
	.value	0x3
	.byte	0x73
	.sleb128 24
	.byte	0x9f
	.quad	.LVL24
	.quad	.LVL26
	.value	0x1
	.byte	0x53
	.quad	.LVL26
	.quad	.LVL27
	.value	0x4
	.byte	0xf3
	.uleb128 0x1
	.byte	0x55
	.byte	0x9f
	.quad	.LVL27
	.quad	.LVL28
	.value	0x1
	.byte	0x53
	.quad	.LVL28
	.quad	.LFE1915
	.value	0x4
	.byte	0xf3
	.uleb128 0x1
	.byte	0x55
	.byte	0x9f
	.quad	0
	.quad	0
.LLST15:
	.quad	.LVL18
	.quad	.LVL20-1
	.value	0xa
	.byte	0x73
	.sleb128 64
	.byte	0x6
	.byte	0x75
	.sleb128 0
	.byte	0x1c
	.byte	0x32
	.byte	0x1b
	.byte	0x9f
	.quad	.LVL21
	.quad	.LVL23-1
	.value	0x9
	.byte	0x73
	.sleb128 40
	.byte	0x6
	.byte	0x75
	.sleb128 0
	.byte	0x1c
	.byte	0x32
	.byte	0x1b
	.byte	0x9f
	.quad	.LVL24
	.quad	.LVL26
	.value	0x9
	.byte	0x73
	.sleb128 16
	.byte	0x6
	.byte	0x75
	.sleb128 0
	.byte	0x1c
	.byte	0x32
	.byte	0x1b
	.byte	0x9f
	.quad	.LVL26
	.quad	.LVL27-1
	.value	0xc
	.byte	0xf3
	.uleb128 0x1
	.byte	0x55
	.byte	0x23
	.uleb128 0x10
	.byte	0x6
	.byte	0x75
	.sleb128 0
	.byte	0x1c
	.byte	0x32
	.byte	0x1b
	.byte	0x9f
	.quad	.LVL27
	.quad	.LVL28
	.value	0x9
	.byte	0x73
	.sleb128 16
	.byte	0x6
	.byte	0x75
	.sleb128 0
	.byte	0x1c
	.byte	0x32
	.byte	0x1b
	.byte	0x9f
	.quad	.LVL28
	.quad	.LFE1915
	.value	0xc
	.byte	0xf3
	.uleb128 0x1
	.byte	0x55
	.byte	0x23
	.uleb128 0x10
	.byte	0x6
	.byte	0x75
	.sleb128 0
	.byte	0x1c
	.byte	0x32
	.byte	0x1b
	.byte	0x9f
	.quad	0
	.quad	0
.LLST16:
	.quad	.LVL18
	.quad	.LVL20-1
	.value	0x1
	.byte	0x55
	.quad	0
	.quad	0
.LLST17:
	.quad	.LVL19
	.quad	.LVL20
	.value	0x3
	.byte	0x73
	.sleb128 48
	.byte	0x9f
	.quad	0
	.quad	0
.LLST18:
	.quad	.LVL19
	.quad	.LVL20-1
	.value	0xa
	.byte	0x73
	.sleb128 64
	.byte	0x6
	.byte	0x75
	.sleb128 0
	.byte	0x1c
	.byte	0x32
	.byte	0x1b
	.byte	0x9f
	.quad	0
	.quad	0
.LLST19:
	.quad	.LVL19
	.quad	.LVL20-1
	.value	0x1
	.byte	0x55
	.quad	0
	.quad	0
.LLST23:
	.quad	.LVL20
	.quad	.LVL23
	.value	0x3
	.byte	0x73
	.sleb128 24
	.byte	0x9f
	.quad	0
	.quad	0
.LLST24:
	.quad	.LVL21
	.quad	.LVL23
	.value	0x3
	.byte	0x73
	.sleb128 24
	.byte	0x9f
	.quad	0
	.quad	0
.LLST25:
	.quad	.LVL21
	.quad	.LVL24
	.value	0x3
	.byte	0x73
	.sleb128 24
	.byte	0x9f
	.quad	.LVL24
	.quad	.LVL26
	.value	0x1
	.byte	0x53
	.quad	.LVL26
	.quad	.LVL27
	.value	0x4
	.byte	0xf3
	.uleb128 0x1
	.byte	0x55
	.byte	0x9f
	.quad	.LVL27
	.quad	.LVL28
	.value	0x1
	.byte	0x53
	.quad	.LVL28
	.quad	.LFE1915
	.value	0x4
	.byte	0xf3
	.uleb128 0x1
	.byte	0x55
	.byte	0x9f
	.quad	0
	.quad	0
.LLST26:
	.quad	.LVL21
	.quad	.LVL23-1
	.value	0x9
	.byte	0x73
	.sleb128 40
	.byte	0x6
	.byte	0x75
	.sleb128 0
	.byte	0x1c
	.byte	0x32
	.byte	0x1b
	.byte	0x9f
	.quad	.LVL24
	.quad	.LVL26
	.value	0x9
	.byte	0x73
	.sleb128 16
	.byte	0x6
	.byte	0x75
	.sleb128 0
	.byte	0x1c
	.byte	0x32
	.byte	0x1b
	.byte	0x9f
	.quad	.LVL26
	.quad	.LVL27-1
	.value	0xc
	.byte	0xf3
	.uleb128 0x1
	.byte	0x55
	.byte	0x23
	.uleb128 0x10
	.byte	0x6
	.byte	0x75
	.sleb128 0
	.byte	0x1c
	.byte	0x32
	.byte	0x1b
	.byte	0x9f
	.quad	.LVL27
	.quad	.LVL28
	.value	0x9
	.byte	0x73
	.sleb128 16
	.byte	0x6
	.byte	0x75
	.sleb128 0
	.byte	0x1c
	.byte	0x32
	.byte	0x1b
	.byte	0x9f
	.quad	.LVL28
	.quad	.LFE1915
	.value	0xc
	.byte	0xf3
	.uleb128 0x1
	.byte	0x55
	.byte	0x23
	.uleb128 0x10
	.byte	0x6
	.byte	0x75
	.sleb128 0
	.byte	0x1c
	.byte	0x32
	.byte	0x1b
	.byte	0x9f
	.quad	0
	.quad	0
.LLST27:
	.quad	.LVL21
	.quad	.LVL23-1
	.value	0x1
	.byte	0x55
	.quad	0
	.quad	0
.LLST28:
	.quad	.LVL22
	.quad	.LVL23
	.value	0x3
	.byte	0x73
	.sleb128 24
	.byte	0x9f
	.quad	0
	.quad	0
.LLST29:
	.quad	.LVL22
	.quad	.LVL23-1
	.value	0x9
	.byte	0x73
	.sleb128 40
	.byte	0x6
	.byte	0x75
	.sleb128 0
	.byte	0x1c
	.byte	0x32
	.byte	0x1b
	.byte	0x9f
	.quad	0
	.quad	0
.LLST30:
	.quad	.LVL22
	.quad	.LVL23-1
	.value	0x1
	.byte	0x55
	.quad	0
	.quad	0
.LLST34:
	.quad	.LVL23
	.quad	.LVL26
	.value	0x1
	.byte	0x53
	.quad	.LVL26
	.quad	.LVL27
	.value	0x4
	.byte	0xf3
	.uleb128 0x1
	.byte	0x55
	.byte	0x9f
	.quad	.LVL27
	.quad	.LVL28
	.value	0x1
	.byte	0x53
	.quad	.LVL28
	.quad	.LFE1915
	.value	0x4
	.byte	0xf3
	.uleb128 0x1
	.byte	0x55
	.byte	0x9f
	.quad	0
	.quad	0
.LLST35:
	.quad	.LVL24
	.quad	.LVL26
	.value	0x1
	.byte	0x53
	.quad	.LVL26
	.quad	.LVL27
	.value	0x4
	.byte	0xf3
	.uleb128 0x1
	.byte	0x55
	.byte	0x9f
	.quad	.LVL27
	.quad	.LVL28
	.value	0x1
	.byte	0x53
	.quad	.LVL28
	.quad	.LFE1915
	.value	0x4
	.byte	0xf3
	.uleb128 0x1
	.byte	0x55
	.byte	0x9f
	.quad	0
	.quad	0
.LLST36:
	.quad	.LVL24
	.quad	.LVL26
	.value	0x1
	.byte	0x53
	.quad	.LVL26
	.quad	.LVL27
	.value	0x4
	.byte	0xf3
	.uleb128 0x1
	.byte	0x55
	.byte	0x9f
	.quad	.LVL27
	.quad	.LVL28
	.value	0x1
	.byte	0x53
	.quad	.LVL28
	.quad	.LFE1915
	.value	0x4
	.byte	0xf3
	.uleb128 0x1
	.byte	0x55
	.byte	0x9f
	.quad	0
	.quad	0
.LLST37:
	.quad	.LVL24
	.quad	.LVL26
	.value	0x9
	.byte	0x73
	.sleb128 16
	.byte	0x6
	.byte	0x75
	.sleb128 0
	.byte	0x1c
	.byte	0x32
	.byte	0x1b
	.byte	0x9f
	.quad	.LVL26
	.quad	.LVL27-1
	.value	0xc
	.byte	0xf3
	.uleb128 0x1
	.byte	0x55
	.byte	0x23
	.uleb128 0x10
	.byte	0x6
	.byte	0x75
	.sleb128 0
	.byte	0x1c
	.byte	0x32
	.byte	0x1b
	.byte	0x9f
	.quad	.LVL27
	.quad	.LVL28
	.value	0x9
	.byte	0x73
	.sleb128 16
	.byte	0x6
	.byte	0x75
	.sleb128 0
	.byte	0x1c
	.byte	0x32
	.byte	0x1b
	.byte	0x9f
	.quad	.LVL28
	.quad	.LFE1915
	.value	0xc
	.byte	0xf3
	.uleb128 0x1
	.byte	0x55
	.byte	0x23
	.uleb128 0x10
	.byte	0x6
	.byte	0x75
	.sleb128 0
	.byte	0x1c
	.byte	0x32
	.byte	0x1b
	.byte	0x9f
	.quad	0
	.quad	0
.LLST38:
	.quad	.LVL24
	.quad	.LVL27-1
	.value	0x1
	.byte	0x55
	.quad	.LVL27
	.quad	.LFE1915
	.value	0x1
	.byte	0x55
	.quad	0
	.quad	0
.LLST39:
	.quad	.LVL25
	.quad	.LVL26
	.value	0x1
	.byte	0x53
	.quad	.LVL26
	.quad	.LVL27
	.value	0x4
	.byte	0xf3
	.uleb128 0x1
	.byte	0x55
	.byte	0x9f
	.quad	0
	.quad	0
.LLST40:
	.quad	.LVL25
	.quad	.LVL26
	.value	0x9
	.byte	0x73
	.sleb128 16
	.byte	0x6
	.byte	0x75
	.sleb128 0
	.byte	0x1c
	.byte	0x32
	.byte	0x1b
	.byte	0x9f
	.quad	.LVL26
	.quad	.LVL27-1
	.value	0xc
	.byte	0xf3
	.uleb128 0x1
	.byte	0x55
	.byte	0x23
	.uleb128 0x10
	.byte	0x6
	.byte	0x75
	.sleb128 0
	.byte	0x1c
	.byte	0x32
	.byte	0x1b
	.byte	0x9f
	.quad	0
	.quad	0
.LLST41:
	.quad	.LVL25
	.quad	.LVL27-1
	.value	0x1
	.byte	0x55
	.quad	0
	.quad	0
.LLST42:
	.quad	.LVL25
	.quad	.LVL26
	.value	0x1
	.byte	0x53
	.quad	.LVL26
	.quad	.LVL27
	.value	0x4
	.byte	0xf3
	.uleb128 0x1
	.byte	0x55
	.byte	0x9f
	.quad	0
	.quad	0
.LLST43:
	.quad	.LVL25
	.quad	.LVL26
	.value	0x9
	.byte	0x73
	.sleb128 16
	.byte	0x6
	.byte	0x75
	.sleb128 0
	.byte	0x1c
	.byte	0x32
	.byte	0x1b
	.byte	0x9f
	.quad	.LVL26
	.quad	.LVL27-1
	.value	0xc
	.byte	0xf3
	.uleb128 0x1
	.byte	0x55
	.byte	0x23
	.uleb128 0x10
	.byte	0x6
	.byte	0x75
	.sleb128 0
	.byte	0x1c
	.byte	0x32
	.byte	0x1b
	.byte	0x9f
	.quad	0
	.quad	0
.LLST0:
	.quad	.LVL1
	.quad	.LVL2
	.value	0x1
	.byte	0x55
	.quad	.LVL2
	.quad	.LVL3-1
	.value	0x1
	.byte	0x54
	.quad	.LVL3-1
	.quad	.LFE1909
	.value	0x4
	.byte	0xf3
	.uleb128 0x1
	.byte	0x55
	.byte	0x9f
	.quad	0
	.quad	0
.LLST1:
	.quad	.LVL4
	.quad	.LVL5
	.value	0x1
	.byte	0x50
	.quad	.LVL5
	.quad	.LVL11
	.value	0x1
	.byte	0x56
	.quad	.LVL12
	.quad	.LFE1909
	.value	0x1
	.byte	0x56
	.quad	0
	.quad	0
.LLST3:
	.quad	.LVL4
	.quad	.LVL9
	.value	0x2
	.byte	0x3a
	.byte	0x9f
	.quad	.LVL12
	.quad	.LFE1909
	.value	0x2
	.byte	0x3a
	.byte	0x9f
	.quad	0
	.quad	0
.LLST4:
	.quad	.LVL4
	.quad	.LVL5
	.value	0xa
	.byte	0x70
	.sleb128 0
	.byte	0x70
	.sleb128 0
	.byte	0x6
	.byte	0x48
	.byte	0x1c
	.byte	0x6
	.byte	0x22
	.byte	0x9f
	.quad	.LVL5
	.quad	.LVL6
	.value	0x7
	.byte	0x76
	.sleb128 0
	.byte	0x70
	.sleb128 -24
	.byte	0x6
	.byte	0x22
	.byte	0x9f
	.quad	.LVL6
	.quad	.LVL9
	.value	0x6
	.byte	0x76
	.sleb128 0
	.byte	0x70
	.sleb128 0
	.byte	0x22
	.byte	0x9f
	.quad	.LVL12
	.quad	.LVL13-1
	.value	0x6
	.byte	0x76
	.sleb128 0
	.byte	0x70
	.sleb128 0
	.byte	0x22
	.byte	0x9f
	.quad	.LVL15
	.quad	.LVL16-1
	.value	0x6
	.byte	0x76
	.sleb128 0
	.byte	0x70
	.sleb128 0
	.byte	0x22
	.byte	0x9f
	.quad	0
	.quad	0
.LLST5:
	.quad	.LVL7
	.quad	.LVL8
	.value	0x1
	.byte	0x53
	.quad	.LVL15
	.quad	.LFE1909
	.value	0x1
	.byte	0x53
	.quad	0
	.quad	0
.LLST6:
	.quad	.LVL8
	.quad	.LVL9
	.value	0x2
	.byte	0x3a
	.byte	0x9f
	.quad	.LVL12
	.quad	.LVL15
	.value	0x2
	.byte	0x3a
	.byte	0x9f
	.quad	0
	.quad	0
.LLST7:
	.quad	.LVL8
	.quad	.LVL9
	.value	0x1
	.byte	0x53
	.quad	.LVL12
	.quad	.LVL15
	.value	0x1
	.byte	0x53
	.quad	0
	.quad	0
.LLST8:
	.quad	.LVL12
	.quad	.LVL15
	.value	0x2
	.byte	0x3a
	.byte	0x9f
	.quad	0
	.quad	0
.LLST9:
	.quad	.LVL12
	.quad	.LVL15
	.value	0x1
	.byte	0x53
	.quad	0
	.quad	0
.LLST10:
	.quad	.LVL10
	.quad	.LVL12-1
	.value	0x1
	.byte	0x50
	.quad	0
	.quad	0
	.section	.debug_aranges,"",@progbits
	.long	0x7c
	.value	0x2
	.long	.Ldebug_info0
	.byte	0x8
	.byte	0
	.value	0
	.value	0
	.quad	.Ltext0
	.quad	.Letext0-.Ltext0
	.quad	.LFB1321
	.quad	.LFE1321-.LFB1321
	.quad	.LFB1915
	.quad	.LFE1915-.LFB1915
	.quad	.LFB2166
	.quad	.LFE2166-.LFB2166
	.quad	.LFB1910
	.quad	.LFE1910-.LFB1910
	.quad	.LFB2497
	.quad	.LFE2497-.LFB2497
	.quad	0
	.quad	0
	.section	.debug_ranges,"",@progbits
.Ldebug_ranges0:
	.quad	.LBB620
	.quad	.LBE620
	.quad	.LBB645
	.quad	.LBE645
	.quad	.LBB646
	.quad	.LBE646
	.quad	0
	.quad	0
	.quad	.LBB623
	.quad	.LBE623
	.quad	.LBB640
	.quad	.LBE640
	.quad	0
	.quad	0
	.quad	.LBB625
	.quad	.LBE625
	.quad	.LBB634
	.quad	.LBE634
	.quad	0
	.quad	0
	.quad	.LBB628
	.quad	.LBE628
	.quad	.LBB633
	.quad	.LBE633
	.quad	0
	.quad	0
	.quad	.LBB636
	.quad	.LBE636
	.quad	.LBB639
	.quad	.LBE639
	.quad	0
	.quad	0
	.quad	.LBB663
	.quad	.LBE663
	.quad	.LBB675
	.quad	.LBE675
	.quad	0
	.quad	0
	.quad	.LBB665
	.quad	.LBE665
	.quad	.LBB673
	.quad	.LBE673
	.quad	0
	.quad	0
	.quad	.LBB738
	.quad	.LBE738
	.quad	.LBB792
	.quad	.LBE792
	.quad	.LBB793
	.quad	.LBE793
	.quad	0
	.quad	0
	.quad	.LBB750
	.quad	.LBE750
	.quad	.LBB786
	.quad	.LBE786
	.quad	.LBB789
	.quad	.LBE789
	.quad	0
	.quad	0
	.quad	.LBB754
	.quad	.LBE754
	.quad	.LBB788
	.quad	.LBE788
	.quad	0
	.quad	0
	.quad	.LBB780
	.quad	.LBE780
	.quad	.LBB787
	.quad	.LBE787
	.quad	0
	.quad	0
	.quad	.LBB1060
	.quad	.LBE1060
	.quad	.LBB1369
	.quad	.LBE1369
	.quad	.LBB1430
	.quad	.LBE1430
	.quad	0
	.quad	0
	.quad	.LBB1061
	.quad	.LBE1061
	.quad	.LBB1325
	.quad	.LBE1325
	.quad	.LBB1326
	.quad	.LBE1326
	.quad	.LBB1328
	.quad	.LBE1328
	.quad	.LBB1337
	.quad	.LBE1337
	.quad	.LBB1340
	.quad	.LBE1340
	.quad	0
	.quad	0
	.quad	.LBB1067
	.quad	.LBE1067
	.quad	.LBB1132
	.quad	.LBE1132
	.quad	.LBB1133
	.quad	.LBE1133
	.quad	.LBB1134
	.quad	.LBE1134
	.quad	0
	.quad	0
	.quad	.LBB1069
	.quad	.LBE1069
	.quad	.LBB1126
	.quad	.LBE1126
	.quad	.LBB1127
	.quad	.LBE1127
	.quad	0
	.quad	0
	.quad	.LBB1073
	.quad	.LBE1073
	.quad	.LBB1076
	.quad	.LBE1076
	.quad	0
	.quad	0
	.quad	.LBB1079
	.quad	.LBE1079
	.quad	.LBB1128
	.quad	.LBE1128
	.quad	0
	.quad	0
	.quad	.LBB1099
	.quad	.LBE1099
	.quad	.LBB1120
	.quad	.LBE1120
	.quad	0
	.quad	0
	.quad	.LBB1145
	.quad	.LBE1145
	.quad	.LBB1327
	.quad	.LBE1327
	.quad	.LBB1329
	.quad	.LBE1329
	.quad	.LBB1331
	.quad	.LBE1331
	.quad	.LBB1336
	.quad	.LBE1336
	.quad	.LBB1338
	.quad	.LBE1338
	.quad	0
	.quad	0
	.quad	.LBB1151
	.quad	.LBE1151
	.quad	.LBB1218
	.quad	.LBE1218
	.quad	.LBB1219
	.quad	.LBE1219
	.quad	.LBB1220
	.quad	.LBE1220
	.quad	0
	.quad	0
	.quad	.LBB1153
	.quad	.LBE1153
	.quad	.LBB1212
	.quad	.LBE1212
	.quad	.LBB1213
	.quad	.LBE1213
	.quad	0
	.quad	0
	.quad	.LBB1155
	.quad	.LBE1155
	.quad	.LBB1158
	.quad	.LBE1158
	.quad	0
	.quad	0
	.quad	.LBB1159
	.quad	.LBE1159
	.quad	.LBB1162
	.quad	.LBE1162
	.quad	0
	.quad	0
	.quad	.LBB1165
	.quad	.LBE1165
	.quad	.LBB1214
	.quad	.LBE1214
	.quad	0
	.quad	0
	.quad	.LBB1185
	.quad	.LBE1185
	.quad	.LBB1206
	.quad	.LBE1206
	.quad	0
	.quad	0
	.quad	.LBB1231
	.quad	.LBE1231
	.quad	.LBB1323
	.quad	.LBE1323
	.quad	.LBB1324
	.quad	.LBE1324
	.quad	.LBB1330
	.quad	.LBE1330
	.quad	.LBB1332
	.quad	.LBE1332
	.quad	.LBB1333
	.quad	.LBE1333
	.quad	.LBB1334
	.quad	.LBE1334
	.quad	.LBB1335
	.quad	.LBE1335
	.quad	.LBB1339
	.quad	.LBE1339
	.quad	0
	.quad	0
	.quad	.LBB1237
	.quad	.LBE1237
	.quad	.LBB1303
	.quad	.LBE1303
	.quad	.LBB1304
	.quad	.LBE1304
	.quad	.LBB1305
	.quad	.LBE1305
	.quad	.LBB1306
	.quad	.LBE1306
	.quad	0
	.quad	0
	.quad	.LBB1239
	.quad	.LBE1239
	.quad	.LBB1296
	.quad	.LBE1296
	.quad	.LBB1297
	.quad	.LBE1297
	.quad	0
	.quad	0
	.quad	.LBB1243
	.quad	.LBE1243
	.quad	.LBB1246
	.quad	.LBE1246
	.quad	0
	.quad	0
	.quad	.LBB1249
	.quad	.LBE1249
	.quad	.LBB1298
	.quad	.LBE1298
	.quad	0
	.quad	0
	.quad	.LBB1269
	.quad	.LBE1269
	.quad	.LBB1290
	.quad	.LBE1290
	.quad	0
	.quad	0
	.quad	.LBB1341
	.quad	.LBE1341
	.quad	.LBB1367
	.quad	.LBE1367
	.quad	.LBB1368
	.quad	.LBE1368
	.quad	0
	.quad	0
	.quad	.LBB1342
	.quad	.LBE1342
	.quad	.LBB1366
	.quad	.LBE1366
	.quad	0
	.quad	0
	.quad	.LBB1351
	.quad	.LBE1351
	.quad	.LBB1360
	.quad	.LBE1360
	.quad	0
	.quad	0
	.quad	.LBB1372
	.quad	.LBE1372
	.quad	.LBB1378
	.quad	.LBE1378
	.quad	0
	.quad	0
	.quad	.LBB1375
	.quad	.LBE1375
	.quad	.LBB1379
	.quad	.LBE1379
	.quad	0
	.quad	0
	.quad	.LBB1384
	.quad	.LBE1384
	.quad	.LBB1390
	.quad	.LBE1390
	.quad	0
	.quad	0
	.quad	.LBB1387
	.quad	.LBE1387
	.quad	.LBB1391
	.quad	.LBE1391
	.quad	0
	.quad	0
	.quad	.LBB1396
	.quad	.LBE1396
	.quad	.LBB1402
	.quad	.LBE1402
	.quad	0
	.quad	0
	.quad	.LBB1399
	.quad	.LBE1399
	.quad	.LBB1403
	.quad	.LBE1403
	.quad	0
	.quad	0
	.quad	.LBB1431
	.quad	.LBE1431
	.quad	.LBB1435
	.quad	.LBE1435
	.quad	.LBB1436
	.quad	.LBE1436
	.quad	0
	.quad	0
	.quad	.Ltext0
	.quad	.Letext0
	.quad	.LFB1321
	.quad	.LFE1321
	.quad	.LFB1915
	.quad	.LFE1915
	.quad	.LFB2166
	.quad	.LFE2166
	.quad	.LFB1910
	.quad	.LFE1910
	.quad	.LFB2497
	.quad	.LFE2497
	.quad	0
	.quad	0
	.section	.debug_line,"",@progbits
.Ldebug_line0:
	.section	.debug_str,"MS",@progbits,1
.LASF713:
	.string	"int_p_sep_by_space"
.LASF194:
	.string	"~_Vector_impl"
.LASF679:
	.string	"int_fast8_t"
.LASF789:
	.string	"fgetc"
.LASF663:
	.string	"int8_t"
.LASF73:
	.string	"size_t"
.LASF791:
	.string	"fgets"
.LASF605:
	.string	"tm_hour"
.LASF534:
	.string	"__value"
.LASF202:
	.string	"_Vector_base"
.LASF448:
	.string	"__numeric_traits_integer<int>"
.LASF145:
	.string	"wclog"
.LASF373:
	.string	"_ZNKSt13move_iteratorIPsEmiEl"
.LASF281:
	.string	"_ZNKSt6vectorIsSaIsEE14_M_range_checkEm"
.LASF313:
	.string	"_M_fill_assign"
.LASF333:
	.string	"_ZNSt6vectorIsSaIsEE14_M_move_assignEOS1_St17integral_constantIbLb1EE"
.LASF354:
	.string	"_ZNSt13move_iteratorIPsEC4Ev"
.LASF776:
	.string	"fpos_t"
.LASF834:
	.string	"_ZN9__gnu_cxx24__numeric_traits_integerIiE5__maxE"
.LASF775:
	.string	"_IO_2_1_stderr_"
.LASF398:
	.string	"uninitialized_copy<std::move_iterator<short int*>, short int*>"
.LASF686:
	.string	"uint_fast64_t"
.LASF647:
	.string	"signed char"
.LASF445:
	.string	"__throw_bad_cast"
.LASF335:
	.string	"_M_realloc_insert<short int>"
.LASF322:
	.string	"_ZNSt6vectorIsSaIsEE14_M_insert_rvalEN9__gnu_cxx17__normal_iteratorIPKsS1_EEOs"
.LASF551:
	.string	"_IO_save_end"
.LASF514:
	.string	"__enable_if<true, short int*>"
.LASF444:
	.string	"_ZSt16__throw_bad_castv"
.LASF467:
	.string	"_S_on_swap"
.LASF429:
	.string	"_ZSt8_DestroyIPssEvT_S1_RSaIT0_E"
.LASF759:
	.string	"lldiv"
.LASF204:
	.string	"_ZNSt12_Vector_baseIsSaIsEEC4ERKS0_"
.LASF601:
	.string	"wcscspn"
.LASF240:
	.string	"_ZNSt6vectorIsSaIsEEaSEOS1_"
.LASF720:
	.string	"localeconv"
.LASF111:
	.string	"_ZNSolsEm"
.LASF5:
	.string	"_M_addref"
.LASF9:
	.string	"_M_get"
.LASF657:
	.string	"__int64_t"
.LASF243:
	.string	"_ZNSt6vectorIsSaIsEE6assignESt16initializer_listIsE"
.LASF764:
	.string	"strtold"
.LASF299:
	.string	"_ZNSt6vectorIsSaIsEE6insertEN9__gnu_cxx17__normal_iteratorIPKsS1_EERS4_"
.LASF765:
	.string	"9_G_fpos_t"
.LASF875:
	.string	"_ZNSt12_Vector_baseIsSaIsEEC2Ev"
.LASF761:
	.string	"strtoll"
.LASF295:
	.string	"_ZNSt6vectorIsSaIsEE9push_backEOs"
.LASF409:
	.string	"__uninitialized_move_if_noexcept_a<short int*, short int*, std::allocator<short int> >"
.LASF379:
	.string	"__copy_m<short int>"
.LASF336:
	.string	"_ZNSt6vectorIsSaIsEE17_M_realloc_insertIJsEEEvN9__gnu_cxx17__normal_iteratorIPsS1_EEDpOT_"
.LASF807:
	.string	"tmpnam"
.LASF210:
	.string	"~_Vector_base"
.LASF408:
	.string	"_ZSt25__uninitialized_default_nIPsmET_S1_T0_"
.LASF858:
	.string	"__lhs"
.LASF115:
	.string	"_ZNSo5flushEv"
.LASF505:
	.string	"_ZN9__gnu_cxx17__normal_iteratorIPsSt6vectorIsSaIsEEEmmEi"
.LASF99:
	.string	"_S_ios_iostate_max"
.LASF560:
	.string	"_lock"
.LASF739:
	.string	"at_quick_exit"
.LASF697:
	.string	"int_curr_symbol"
.LASF504:
	.string	"_ZN9__gnu_cxx17__normal_iteratorIPsSt6vectorIsSaIsEEEmmEv"
.LASF483:
	.string	"new_allocator"
.LASF847:
	.string	"__last"
.LASF316:
	.string	"_ZNSt6vectorIsSaIsEE14_M_fill_insertEN9__gnu_cxx17__normal_iteratorIPsS1_EEmRKs"
.LASF257:
	.string	"cend"
.LASF441:
	.string	"__throw_length_error"
.LASF478:
	.string	"_ZN9__gnu_cxx14__alloc_traitsISaIsEE15_S_nothrow_moveEv"
.LASF250:
	.string	"_ZNSt6vectorIsSaIsEE6rbeginEv"
.LASF878:
	.string	"__out"
.LASF345:
	.string	"type"
.LASF708:
	.string	"n_cs_precedes"
.LASF737:
	.string	"__compar_fn_t"
.LASF144:
	.string	"_ZSt5wcerr"
.LASF213:
	.string	"_ZNSt12_Vector_baseIsSaIsEE11_M_allocateEm"
.LASF630:
	.string	"wmemmove"
.LASF276:
	.string	"_ZNSt6vectorIsSaIsEE7reserveEm"
.LASF337:
	.string	"_Args"
.LASF174:
	.string	"_ZNSt16allocator_traitsISaIsEE9constructIsJsEEEvRS0_PT_DpOT0_"
.LASF554:
	.string	"_fileno"
.LASF833:
	.string	"_ZN9__gnu_cxx24__numeric_traits_integerIiE5__minE"
.LASF741:
	.string	"atoi"
.LASF626:
	.string	"wcsxfrm"
.LASF82:
	.string	"_ZNSt11char_traitsIwE4copyEPwPKwm"
.LASF760:
	.string	"atoll"
.LASF704:
	.string	"int_frac_digits"
.LASF4:
	.string	"_ZNSt15__exception_ptr13exception_ptrC4EPv"
.LASF152:
	.string	"__uninitialized_default_n_1<true>"
.LASF93:
	.string	"string_literals"
.LASF901:
	.string	"__builtin_unwind_resume"
.LASF790:
	.string	"fgetpos"
.LASF766:
	.string	"__pos"
.LASF553:
	.string	"_chain"
.LASF599:
	.string	"wcscoll"
.LASF784:
	.string	"clearerr"
.LASF36:
	.string	"_ZNKSt17integral_constantIbLb1EEcvbEv"
.LASF557:
	.string	"_cur_column"
.LASF685:
	.string	"uint_fast32_t"
.LASF780:
	.string	"sys_nerr"
.LASF702:
	.string	"positive_sign"
.LASF484:
	.string	"_ZN9__gnu_cxx13new_allocatorIsEC4Ev"
.LASF860:
	.string	"_ZN9__gnu_cxx17__normal_iteratorIPsSt6vectorIsSaIsEEEC2ERKS1_"
.LASF123:
	.string	"ctype<char>"
.LASF59:
	.string	"_ZNSt11char_traitsIcE4moveEPcPKcm"
.LASF652:
	.string	"__uint8_t"
.LASF246:
	.string	"_ZNKSt6vectorIsSaIsEE5beginEv"
.LASF340:
	.string	"type_info"
.LASF116:
	.string	"_M_insert<long unsigned int>"
.LASF740:
	.string	"atof"
.LASF544:
	.string	"_IO_write_base"
.LASF836:
	.string	"_ZN9__gnu_cxx25__numeric_traits_floatingIdE16__max_exponent10E"
.LASF412:
	.string	"__uninitialized_default_n_a<short int*, long unsigned int, short int>"
.LASF742:
	.string	"atol"
.LASF223:
	.string	"const_reverse_iterator"
.LASF782:
	.string	"_sys_nerr"
.LASF531:
	.string	"__wch"
.LASF825:
	.string	"_ZN9TestInputC4Ev"
.LASF137:
	.string	"wistream"
.LASF665:
	.string	"int32_t"
.LASF67:
	.string	"_ZNSt11char_traitsIcE11to_int_typeERKc"
.LASF842:
	.string	"_ZN9__gnu_cxx24__numeric_traits_integerIlE5__minE"
.LASF699:
	.string	"mon_decimal_point"
.LASF355:
	.string	"_ZNSt13move_iteratorIPsEC4ES0_"
.LASF486:
	.string	"~new_allocator"
.LASF624:
	.string	"long int"
.LASF459:
	.string	"__numeric_traits_floating<long double>"
.LASF16:
	.string	"_ZNSt15__exception_ptr13exception_ptraSERKS0_"
.LASF896:
	.string	"memmove"
.LASF124:
	.string	"widen"
.LASF711:
	.string	"n_sign_posn"
.LASF181:
	.string	"_ZNSaIsED4Ev"
.LASF1:
	.string	"nothrow_t"
.LASF270:
	.string	"_ZNSt6vectorIsSaIsEE13shrink_to_fitEv"
.LASF899:
	.string	"__builtin_memset"
.LASF461:
	.string	"__numeric_traits_integer<char>"
.LASF594:
	.string	"vwprintf"
.LASF342:
	.string	"reverse_iterator<__gnu_cxx::__normal_iterator<short int*, std::vector<short int, std::allocator<short int> > > >"
.LASF866:
	.string	"__position"
.LASF311:
	.string	"_M_default_initialize"
.LASF682:
	.string	"int_fast64_t"
.LASF758:
	.string	"wctomb"
.LASF266:
	.string	"resize"
.LASF49:
	.string	"int_type"
.LASF456:
	.string	"__digits10"
.LASF769:
	.string	"_IO_marker"
.LASF882:
	.string	"main"
.LASF714:
	.string	"int_n_cs_precedes"
.LASF104:
	.string	"~Init"
.LASF634:
	.string	"wcschr"
.LASF814:
	.string	"towctrans"
.LASF570:
	.string	"short unsigned int"
.LASF76:
	.string	"_ZNSt11char_traitsIwE2eqERKwS2_"
.LASF60:
	.string	"copy"
.LASF751:
	.string	"rand"
.LASF260:
	.string	"_ZNKSt6vectorIsSaIsEE7crbeginEv"
.LASF772:
	.string	"_pos"
.LASF53:
	.string	"length"
.LASF639:
	.string	"wcstold"
.LASF51:
	.string	"_ZNSt11char_traitsIcE2ltERKcS2_"
.LASF378:
	.string	"__copy_move<true, true, std::random_access_iterator_tag>"
.LASF817:
	.string	"__ioinit"
.LASF871:
	.string	"_ZNSt12_Vector_baseIsSaIsEE12_Vector_implC2Ev"
.LASF248:
	.string	"_ZNKSt6vectorIsSaIsEE3endEv"
.LASF95:
	.string	"_S_badbit"
.LASF787:
	.string	"ferror"
.LASF27:
	.string	"nullptr_t"
.LASF102:
	.string	"_S_synced_with_stdio"
.LASF503:
	.string	"_ZN9__gnu_cxx17__normal_iteratorIPsSt6vectorIsSaIsEEEppEi"
.LASF298:
	.string	"insert"
.LASF453:
	.string	"_Value"
.LASF197:
	.string	"_M_get_Tp_allocator"
.LASF414:
	.string	"basic_ios<char, std::char_traits<char> >"
.LASF678:
	.string	"uint_least64_t"
.LASF96:
	.string	"_S_eofbit"
.LASF502:
	.string	"_ZN9__gnu_cxx17__normal_iteratorIPsSt6vectorIsSaIsEEEppEv"
.LASF905:
	.string	"main.cpp"
.LASF136:
	.string	"_ZSt4clog"
.LASF330:
	.string	"_ZNSt6vectorIsSaIsEE8_M_eraseEN9__gnu_cxx17__normal_iteratorIPsS1_EE"
.LASF610:
	.string	"tm_yday"
.LASF762:
	.string	"strtoull"
.LASF667:
	.string	"uint8_t"
.LASF358:
	.string	"operator*"
.LASF368:
	.string	"operator+"
.LASF142:
	.string	"_ZSt5wcout"
.LASF372:
	.string	"operator-"
.LASF212:
	.string	"_M_allocate"
.LASF539:
	.string	"_IO_FILE"
.LASF723:
	.string	"__timezone"
.LASF801:
	.string	"remove"
.LASF756:
	.string	"system"
.LASF107:
	.string	"basic_ostream<char, std::char_traits<char> >"
.LASF811:
	.string	"wctype_t"
.LASF15:
	.string	"operator="
.LASF572:
	.string	"fgetwc"
.LASF384:
	.string	"__miter_base<short int*>"
.LASF902:
	.string	"__cxa_atexit"
.LASF357:
	.string	"_ZNKSt13move_iteratorIPsE4baseEv"
.LASF719:
	.string	"getwchar"
.LASF133:
	.string	"cerr"
.LASF317:
	.string	"_M_default_append"
.LASF339:
	.string	"_ZNSt6vectorIsSaIsEE12emplace_backIJsEEEvDpOT_"
.LASF269:
	.string	"shrink_to_fit"
.LASF500:
	.string	"_ZNK9__gnu_cxx17__normal_iteratorIPsSt6vectorIsSaIsEEEdeEv"
.LASF628:
	.string	"wmemcmp"
.LASF48:
	.string	"char_type"
.LASF645:
	.string	"unsigned char"
.LASF314:
	.string	"_ZNSt6vectorIsSaIsEE14_M_fill_assignEmRKs"
.LASF646:
	.string	"__int128 unsigned"
.LASF709:
	.string	"n_sep_by_space"
.LASF785:
	.string	"fclose"
.LASF638:
	.string	"wmemchr"
.LASF21:
	.string	"_ZNSt15__exception_ptr13exception_ptr4swapERS0_"
.LASF691:
	.string	"char16_t"
.LASF921:
	.string	"_ZN9TestInputD2Ev"
.LASF198:
	.string	"_ZNSt12_Vector_baseIsSaIsEE19_M_get_Tp_allocatorEv"
.LASF165:
	.string	"_ZNSt16allocator_traitsISaIsEE10deallocateERS0_Psm"
.LASF318:
	.string	"_ZNSt6vectorIsSaIsEE17_M_default_appendEm"
.LASF841:
	.string	"_ZN9__gnu_cxx24__numeric_traits_integerIsE5__maxE"
.LASF863:
	.string	"_ZNSaIsEC2Ev"
.LASF827:
	.string	"MainTest"
.LASF166:
	.string	"max_size"
.LASF267:
	.string	"_ZNSt6vectorIsSaIsEE6resizeEm"
.LASF496:
	.string	"__normal_iterator<short int*, std::vector<short int, std::allocator<short int> > >"
.LASF752:
	.string	"srand"
.LASF323:
	.string	"_M_emplace_aux"
.LASF70:
	.string	"not_eof"
.LASF587:
	.string	"swprintf"
.LASF218:
	.string	"vector<short int, std::allocator<short int> >"
.LASF476:
	.string	"_ZN9__gnu_cxx14__alloc_traitsISaIsEE15_S_always_equalEv"
.LASF721:
	.string	"__tzname"
.LASF635:
	.string	"wcspbrk"
.LASF24:
	.string	"rethrow_exception"
.LASF746:
	.string	"mblen"
.LASF917:
	.string	"_IO_FILE_plus"
.LASF466:
	.string	"_ZN9__gnu_cxx14__alloc_traitsISaIsEE17_S_select_on_copyERKS1_"
.LASF451:
	.string	"__is_signed"
.LASF479:
	.string	"rebind<short int>"
.LASF34:
	.string	"value"
.LASF179:
	.string	"_ZNSaIsEC4ERKS_"
.LASF464:
	.string	"__alloc_traits<std::allocator<short int> >"
.LASF390:
	.string	"_ZSt4copyISt13move_iteratorIPsES1_ET0_T_S4_S3_"
.LASF3:
	.string	"_ZNSt9nothrow_tC4Ev"
.LASF535:
	.string	"char"
.LASF156:
	.string	"allocator_traits<std::allocator<short int> >"
.LASF120:
	.string	"basic_ostream<wchar_t, std::char_traits<wchar_t> >"
.LASF411:
	.string	"_Allocator"
.LASF344:
	.string	"remove_reference<short int&>"
.LASF829:
	.string	"output"
.LASF172:
	.string	"_ZNSt16allocator_traitsISaIsEE7destroyIsEEvRS0_PT_"
.LASF418:
	.string	"_ZNSt9basic_iosIcSt11char_traitsIcEE8setstateESt12_Ios_Iostate"
.LASF29:
	.string	"operator std::integral_constant<bool, false>::value_type"
.LASF537:
	.string	"mbstate_t"
.LASF217:
	.string	"_ZNSt12_Vector_baseIsSaIsEE17_M_create_storageEm"
.LASF78:
	.string	"_ZNSt11char_traitsIwE7compareEPKwS2_m"
.LASF341:
	.string	"reverse_iterator<__gnu_cxx::__normal_iterator<short int const*, std::vector<short int, std::allocator<short int> > > >"
.LASF300:
	.string	"_ZNSt6vectorIsSaIsEE6insertEN9__gnu_cxx17__normal_iteratorIPKsS1_EEOs"
.LASF816:
	.string	"wctype"
.LASF436:
	.string	"endl<char, std::char_traits<char> >"
.LASF677:
	.string	"uint_least32_t"
.LASF359:
	.string	"_ZNKSt13move_iteratorIPsEdeEv"
.LASF859:
	.string	"__rhs"
.LASF271:
	.string	"capacity"
.LASF616:
	.string	"wcsncmp"
.LASF916:
	.string	"_IO_lock_t"
.LASF654:
	.string	"__uint16_t"
.LASF832:
	.string	"_ZNSt17integral_constantIbLb1EE5valueE"
.LASF499:
	.string	"_ZN9__gnu_cxx17__normal_iteratorIPsSt6vectorIsSaIsEEEC4ERKS1_"
.LASF105:
	.string	"_ZNSt8ios_base4InitD4Ev"
.LASF258:
	.string	"_ZNKSt6vectorIsSaIsEE4cendEv"
.LASF394:
	.string	"__niter_base<short int*>"
.LASF623:
	.string	"wcstol"
.LASF643:
	.string	"long long unsigned int"
.LASF262:
	.string	"_ZNKSt6vectorIsSaIsEE5crendEv"
.LASF280:
	.string	"_M_range_check"
.LASF480:
	.string	"other"
.LASF193:
	.string	"__destroy<short int*>"
.LASF730:
	.string	"5div_t"
.LASF826:
	.string	"TestOutput"
.LASF798:
	.string	"getc"
.LASF189:
	.string	"_ZNSt12_Vector_baseIsSaIsEE12_Vector_implC4ERKS0_"
.LASF423:
	.string	"__check_facet<std::ctype<char> >"
.LASF190:
	.string	"_ZNSt12_Vector_baseIsSaIsEE12_Vector_implC4EOS0_"
.LASF449:
	.string	"__min"
.LASF474:
	.string	"_ZN9__gnu_cxx14__alloc_traitsISaIsEE20_S_propagate_on_swapEv"
.LASF604:
	.string	"tm_min"
.LASF307:
	.string	"clear"
.LASF122:
	.string	"basic_istream<char, std::char_traits<char> >"
.LASF541:
	.string	"_IO_read_ptr"
.LASF633:
	.string	"wscanf"
.LASF329:
	.string	"_M_erase"
.LASF700:
	.string	"mon_thousands_sep"
.LASF490:
	.string	"_ZNK9__gnu_cxx13new_allocatorIsE7addressERKs"
.LASF589:
	.string	"ungetwc"
.LASF526:
	.string	"fp_offset"
.LASF406:
	.string	"_ZSt3maxImERKT_S2_S2_"
.LASF150:
	.string	"__uninit_copy<std::move_iterator<short int*>, short int*>"
.LASF90:
	.string	"ptrdiff_t"
.LASF164:
	.string	"deallocate"
.LASF812:
	.string	"wctrans_t"
.LASF581:
	.string	"mbrlen"
.LASF419:
	.string	"_ZNKSt9basic_iosIcSt11char_traitsIcEE5widenEc"
.LASF777:
	.string	"stdin"
.LASF391:
	.string	"__fill_n_a<short int*, long unsigned int, short int>"
.LASF703:
	.string	"negative_sign"
.LASF352:
	.string	"iterator_type"
.LASF192:
	.string	"_ZNSt12_Vector_baseIsSaIsEE12_Vector_impl12_M_swap_dataERS2_"
.LASF781:
	.string	"sys_errlist"
.LASF712:
	.string	"int_p_cs_precedes"
.LASF158:
	.string	"pointer"
.LASF239:
	.string	"_ZNSt6vectorIsSaIsEEaSERKS1_"
.LASF331:
	.string	"_ZNSt6vectorIsSaIsEE8_M_eraseEN9__gnu_cxx17__normal_iteratorIPsS1_EES5_"
.LASF100:
	.string	"_S_ios_iostate_min"
.LASF883:
	.string	"input"
.LASF673:
	.string	"int_least32_t"
.LASF75:
	.string	"_ZNSt11char_traitsIwE6assignERwRKw"
.LASF130:
	.string	"cout"
.LASF552:
	.string	"_markers"
.LASF513:
	.string	"__normal_iterator<short int const*, std::vector<short int, std::allocator<short int> > >"
.LASF642:
	.string	"wcstoull"
.LASF837:
	.string	"_ZN9__gnu_cxx25__numeric_traits_floatingIeE16__max_exponent10E"
.LASF489:
	.string	"_ZNK9__gnu_cxx13new_allocatorIsE7addressERs"
.LASF52:
	.string	"compare"
.LASF881:
	.string	"__pf"
.LASF425:
	.string	"_Facet"
.LASF403:
	.string	"_ZSt32__make_move_if_noexcept_iteratorIsSt13move_iteratorIPsEET0_PT_"
.LASF768:
	.string	"_G_fpos_t"
.LASF332:
	.string	"_M_move_assign"
.LASF600:
	.string	"wcscpy"
.LASF312:
	.string	"_ZNSt6vectorIsSaIsEE21_M_default_initializeEm"
.LASF113:
	.string	"_CharT"
.LASF173:
	.string	"construct<short int, short int>"
.LASF592:
	.string	"vswprintf"
.LASF275:
	.string	"reserve"
.LASF33:
	.string	"integral_constant<bool, true>"
.LASF755:
	.string	"strtoul"
.LASF35:
	.string	"operator std::integral_constant<bool, true>::value_type"
.LASF207:
	.string	"_ZNSt12_Vector_baseIsSaIsEEC4EOS0_"
.LASF396:
	.string	"fill_n<short int*, long unsigned int, short int>"
.LASF631:
	.string	"wmemset"
.LASF387:
	.string	"_ZSt14__copy_move_a2ILb1EPsS0_ET1_T0_S2_S1_"
.LASF328:
	.string	"_ZNSt6vectorIsSaIsEE15_M_erase_at_endEPs"
.LASF361:
	.string	"_ZNKSt13move_iteratorIPsEptEv"
.LASF140:
	.string	"wostream"
.LASF577:
	.string	"fwide"
.LASF168:
	.string	"select_on_container_copy_construction"
.LASF578:
	.string	"fwprintf"
.LASF636:
	.string	"wcsrchr"
.LASF661:
	.string	"__off_t"
.LASF443:
	.string	"__ostream_insert<char, std::char_traits<char> >"
.LASF540:
	.string	"_flags"
.LASF651:
	.string	"__int8_t"
.LASF809:
	.string	"program_invocation_name"
.LASF427:
	.string	"_ZSt7forwardIsEOT_RNSt16remove_referenceIS0_E4typeE"
.LASF94:
	.string	"_S_goodbit"
.LASF22:
	.string	"__cxa_exception_type"
.LASF561:
	.string	"_offset"
.LASF724:
	.string	"tzname"
.LASF247:
	.string	"_ZNSt6vectorIsSaIsEE3endEv"
.LASF382:
	.string	"_ZSt13__copy_move_aILb1EPsS0_ET1_T0_S2_S1_"
.LASF284:
	.string	"front"
.LASF853:
	.string	"__niter"
.LASF568:
	.string	"_unused2"
.LASF586:
	.string	"putwchar"
.LASF835:
	.string	"_ZN9__gnu_cxx25__numeric_traits_floatingIfE16__max_exponent10E"
.LASF17:
	.string	"_ZNSt15__exception_ptr13exception_ptraSEOS0_"
.LASF430:
	.string	"flush<char, std::char_traits<char> >"
.LASF110:
	.string	"operator<<"
.LASF109:
	.string	"__ostream_type"
.LASF146:
	.string	"_ZSt5wclog"
.LASF125:
	.string	"_ZNKSt5ctypeIcE13_M_widen_initEv"
.LASF438:
	.string	"operator|"
.LASF61:
	.string	"_ZNSt11char_traitsIcE4copyEPcPKcm"
.LASF220:
	.string	"const_reference"
.LASF264:
	.string	"_ZNKSt6vectorIsSaIsEE4sizeEv"
.LASF919:
	.string	"_GLOBAL__sub_I__Z5printi"
.LASF56:
	.string	"find"
.LASF399:
	.string	"_ZSt18uninitialized_copyISt13move_iteratorIPsES1_ET0_T_S4_S3_"
.LASF472:
	.string	"_ZN9__gnu_cxx14__alloc_traitsISaIsEE27_S_propagate_on_move_assignEv"
.LASF658:
	.string	"__uint64_t"
.LASF744:
	.string	"getenv"
.LASF845:
	.string	"__priority"
.LASF676:
	.string	"uint_least16_t"
.LASF773:
	.string	"_IO_2_1_stdin_"
.LASF58:
	.string	"move"
.LASF523:
	.string	"long unsigned int"
.LASF898:
	.string	"__builtin_memmove"
.LASF736:
	.string	"lldiv_t"
.LASF233:
	.string	"_ZNSt6vectorIsSaIsEEC4EOS1_"
.LASF11:
	.string	"_ZNSt15__exception_ptr13exception_ptrC4Ev"
.LASF371:
	.string	"_ZNSt13move_iteratorIPsEpLEl"
.LASF273:
	.string	"empty"
.LASF219:
	.string	"reference"
.LASF6:
	.string	"_M_release"
.LASF44:
	.string	"nothrow"
.LASF555:
	.string	"_flags2"
.LASF549:
	.string	"_IO_save_base"
.LASF488:
	.string	"address"
.LASF650:
	.string	"__gnu_debug"
.LASF733:
	.string	"6ldiv_t"
.LASF543:
	.string	"_IO_read_base"
.LASF277:
	.string	"operator[]"
.LASF819:
	.string	"TestInput"
.LASF674:
	.string	"int_least64_t"
.LASF134:
	.string	"_ZSt4cerr"
.LASF293:
	.string	"push_back"
.LASF469:
	.string	"_S_propagate_on_copy_assign"
.LASF854:
	.string	"this"
.LASF893:
	.string	"_Znwm"
.LASF286:
	.string	"_ZNKSt6vectorIsSaIsEE5frontEv"
.LASF80:
	.string	"_ZNSt11char_traitsIwE4findEPKwmRS1_"
.LASF346:
	.string	"remove_reference<short int>"
.LASF637:
	.string	"wcsstr"
.LASF757:
	.string	"wcstombs"
.LASF404:
	.string	"_ReturnType"
.LASF797:
	.string	"ftell"
.LASF347:
	.string	"iterator_traits<short int*>"
.LASF265:
	.string	"_ZNKSt6vectorIsSaIsEE8max_sizeEv"
.LASF912:
	.string	"_ZSt3cin"
.LASF28:
	.string	"value_type"
.LASF688:
	.string	"uintptr_t"
.LASF348:
	.string	"difference_type"
.LASF42:
	.string	"piecewise_construct_t"
.LASF68:
	.string	"eq_int_type"
.LASF79:
	.string	"_ZNSt11char_traitsIwE6lengthEPKw"
.LASF10:
	.string	"_ZNKSt15__exception_ptr13exception_ptr6_M_getEv"
.LASF519:
	.string	"__float128"
.LASF385:
	.string	"_ZSt12__miter_baseIPsET_S1_"
.LASF424:
	.string	"_ZSt13__check_facetISt5ctypeIcEERKT_PS3_"
.LASF205:
	.string	"_ZNSt12_Vector_baseIsSaIsEEC4Em"
.LASF234:
	.string	"_ZNSt6vectorIsSaIsEEC4ERKS1_RKS0_"
.LASF495:
	.string	"_ZN9__gnu_cxx13new_allocatorIsE9constructIsJsEEEvPT_DpOT0_"
.LASF119:
	.string	"_ZNSolsEi"
.LASF203:
	.string	"_ZNSt12_Vector_baseIsSaIsEEC4Ev"
.LASF101:
	.string	"_S_refcount"
.LASF253:
	.string	"_ZNSt6vectorIsSaIsEE4rendEv"
.LASF556:
	.string	"_old_offset"
.LASF831:
	.string	"_ZNSt17integral_constantIbLb0EE5valueE"
.LASF550:
	.string	"_IO_backup_base"
.LASF288:
	.string	"_ZNSt6vectorIsSaIsEE4backEv"
.LASF422:
	.string	"_ZSt8_DestroyIPsEvT_S1_"
.LASF375:
	.string	"_ZNSt13move_iteratorIPsEmIEl"
.LASF268:
	.string	"_ZNSt6vectorIsSaIsEE6resizeEmRKs"
.LASF715:
	.string	"int_n_sep_by_space"
.LASF279:
	.string	"_ZNKSt6vectorIsSaIsEEixEm"
.LASF121:
	.string	"_Traits"
.LASF302:
	.string	"_ZNSt6vectorIsSaIsEE6insertEN9__gnu_cxx17__normal_iteratorIPKsS1_EEmRS4_"
.LASF30:
	.string	"_ZNKSt17integral_constantIbLb0EEcvbEv"
.LASF236:
	.string	"_ZNSt6vectorIsSaIsEEC4ESt16initializer_listIsERKS0_"
.LASF844:
	.string	"__initialize_p"
.LASF462:
	.string	"__numeric_traits_integer<short int>"
.LASF895:
	.string	"operator delete"
.LASF238:
	.string	"_ZNSt6vectorIsSaIsEED4Ev"
.LASF215:
	.string	"_ZNSt12_Vector_baseIsSaIsEE13_M_deallocateEPsm"
.LASF656:
	.string	"__uint32_t"
.LASF903:
	.string	"__stack_chk_fail"
.LASF641:
	.string	"long long int"
.LASF195:
	.string	"_Tp_alloc_type"
.LASF598:
	.string	"wcscmp"
.LASF536:
	.string	"__mbstate_t"
.LASF309:
	.string	"_M_fill_initialize"
.LASF224:
	.string	"reverse_iterator"
.LASF629:
	.string	"wmemcpy"
.LASF415:
	.string	"rdstate"
.LASF607:
	.string	"tm_mon"
.LASF400:
	.string	"__uninitialized_copy_a<std::move_iterator<short int*>, short int*, short int>"
.LASF12:
	.string	"_ZNSt15__exception_ptr13exception_ptrC4ERKS0_"
.LASF369:
	.string	"_ZNKSt13move_iteratorIPsEplEl"
.LASF620:
	.string	"wcstod"
.LASF468:
	.string	"_ZN9__gnu_cxx14__alloc_traitsISaIsEE10_S_on_swapERS1_S3_"
.LASF437:
	.string	"_ZSt4endlIcSt11char_traitsIcEERSt13basic_ostreamIT_T0_ES6_"
.LASF621:
	.string	"wcstof"
.LASF622:
	.string	"wcstok"
.LASF879:
	.string	"_ZNSt6vectorIsSaIsEED2Ev"
.LASF151:
	.string	"_InputIterator"
.LASF485:
	.string	"_ZN9__gnu_cxx13new_allocatorIsEC4ERKS1_"
.LASF521:
	.string	"double"
.LASF57:
	.string	"_ZNSt11char_traitsIcE4findEPKcmRS1_"
.LASF748:
	.string	"mbtowc"
.LASF306:
	.string	"_ZNSt6vectorIsSaIsEE4swapERS1_"
.LASF546:
	.string	"_IO_write_end"
.LASF206:
	.string	"_ZNSt12_Vector_baseIsSaIsEEC4EmRKS0_"
.LASF823:
	.string	"~TestInput"
.LASF511:
	.string	"_ZNK9__gnu_cxx17__normal_iteratorIPsSt6vectorIsSaIsEEE4baseEv"
.LASF855:
	.string	"__assignable"
.LASF840:
	.string	"_ZN9__gnu_cxx24__numeric_traits_integerIsE5__minE"
.LASF135:
	.string	"clog"
.LASF690:
	.string	"uintmax_t"
.LASF45:
	.string	"piecewise_construct"
.LASF627:
	.string	"wctob"
.LASF525:
	.string	"gp_offset"
.LASF228:
	.string	"_ZNKSt5ctypeIcE5widenEc"
.LASF497:
	.string	"__normal_iterator"
.LASF473:
	.string	"_S_propagate_on_swap"
.LASF838:
	.string	"_ZN9__gnu_cxx24__numeric_traits_integerImE8__digitsE"
.LASF304:
	.string	"_ZNSt6vectorIsSaIsEE5eraseEN9__gnu_cxx17__normal_iteratorIPKsS1_EE"
.LASF906:
	.string	"/home/joana/Documents/JoanaLearning/C++/Udemy-LearnAdvancedC++Programming/LearnCPP/CompilerOptimization"
.LASF828:
	.string	"someU8"
.LASF242:
	.string	"_ZNSt6vectorIsSaIsEE6assignEmRKs"
.LASF353:
	.string	"move_iterator"
.LASF915:
	.string	"decltype(nullptr)"
.LASF818:
	.string	"sizeTest"
.LASF2:
	.string	"exception_ptr"
.LASF710:
	.string	"p_sign_posn"
.LASF274:
	.string	"_ZNKSt6vectorIsSaIsEE5emptyEv"
.LASF428:
	.string	"_Destroy<short int*, short int>"
.LASF321:
	.string	"_M_insert_rval"
.LASF132:
	.string	"_ZSt4cout"
.LASF590:
	.string	"vfwprintf"
.LASF659:
	.string	"__intmax_t"
.LASF185:
	.string	"_M_start"
.LASF547:
	.string	"_IO_buf_base"
.LASF235:
	.string	"_ZNSt6vectorIsSaIsEEC4EOS1_RKS0_"
.LASF216:
	.string	"_M_create_storage"
.LASF529:
	.string	"unsigned int"
.LASF209:
	.string	"_ZNSt12_Vector_baseIsSaIsEEC4EOS1_RKS0_"
.LASF103:
	.string	"Init"
.LASF457:
	.string	"__max_exponent10"
.LASF47:
	.string	"char_traits<char>"
.LASF800:
	.string	"perror"
.LASF891:
	.string	"operator new"
.LASF874:
	.string	"_ZNSt12_Vector_baseIsSaIsEED2Ev"
.LASF687:
	.string	"intptr_t"
.LASF749:
	.string	"qsort"
.LASF619:
	.string	"wcsspn"
.LASF153:
	.string	"__uninit_default_n<short int*, long unsigned int>"
.LASF907:
	.string	"operator bool"
.LASF282:
	.string	"_ZNSt6vectorIsSaIsEE2atEm"
.LASF510:
	.string	"_ZNK9__gnu_cxx17__normal_iteratorIPsSt6vectorIsSaIsEEEmiEl"
.LASF319:
	.string	"_M_shrink_to_fit"
.LASF303:
	.string	"erase"
.LASF890:
	.string	"__new_size"
.LASF506:
	.string	"_ZNK9__gnu_cxx17__normal_iteratorIPsSt6vectorIsSaIsEEEixEl"
.LASF562:
	.string	"__pad1"
.LASF563:
	.string	"__pad2"
.LASF564:
	.string	"__pad3"
.LASF565:
	.string	"__pad4"
.LASF566:
	.string	"__pad5"
.LASF494:
	.string	"_ZN9__gnu_cxx13new_allocatorIsE7destroyIsEEvPT_"
.LASF880:
	.string	"_ZNSt6vectorIsSaIsEEC2Ev"
.LASF805:
	.string	"setvbuf"
.LASF771:
	.string	"_sbuf"
.LASF512:
	.string	"_Container"
.LASF301:
	.string	"_ZNSt6vectorIsSaIsEE6insertEN9__gnu_cxx17__normal_iteratorIPKsS1_EESt16initializer_listIsE"
.LASF582:
	.string	"mbrtowc"
.LASF420:
	.string	"_Destroy<short int*>"
.LASF65:
	.string	"_ZNSt11char_traitsIcE12to_char_typeERKi"
.LASF188:
	.string	"_ZNSt12_Vector_baseIsSaIsEE12_Vector_implC4Ev"
.LASF351:
	.string	"_M_current"
.LASF618:
	.string	"wcsrtombs"
.LASF297:
	.string	"_ZNSt6vectorIsSaIsEE8pop_backEv"
.LASF481:
	.string	"new_allocator<short int>"
.LASF86:
	.string	"_ZNSt11char_traitsIwE11eq_int_typeERKjS2_"
.LASF728:
	.string	"_Atomic_word"
.LASF417:
	.string	"setstate"
.LASF291:
	.string	"_ZNSt6vectorIsSaIsEE4dataEv"
.LASF527:
	.string	"overflow_arg_area"
.LASF802:
	.string	"rename"
.LASF310:
	.string	"_ZNSt6vectorIsSaIsEE18_M_fill_initializeEmRKs"
.LASF249:
	.string	"rbegin"
.LASF221:
	.string	"iterator"
.LASF810:
	.string	"program_invocation_short_name"
.LASF796:
	.string	"fsetpos"
.LASF326:
	.string	"_ZNKSt6vectorIsSaIsEE12_M_check_lenEmPKc"
.LASF170:
	.string	"rebind_alloc"
.LASF911:
	.string	"_ZNKSt5ctypeIcE8do_widenEc"
.LASF567:
	.string	"_mode"
.LASF143:
	.string	"wcerr"
.LASF471:
	.string	"_ZN9__gnu_cxx14__alloc_traitsISaIsEE27_S_propagate_on_copy_assignEv"
.LASF18:
	.string	"~exception_ptr"
.LASF129:
	.string	"ostream"
.LASF694:
	.string	"decimal_point"
.LASF241:
	.string	"_ZNSt6vectorIsSaIsEEaSESt16initializer_listIsE"
.LASF397:
	.string	"_ZSt6fill_nIPsmsET_S1_T0_RKT1_"
.LASF799:
	.string	"getchar"
.LASF493:
	.string	"_ZNK9__gnu_cxx13new_allocatorIsE8max_sizeEv"
.LASF43:
	.string	"_ZNSt21piecewise_construct_tC4Ev"
.LASF867:
	.string	"__elems_before"
.LASF533:
	.string	"__count"
.LASF487:
	.string	"_ZN9__gnu_cxx13new_allocatorIsED4Ev"
.LASF824:
	.string	"_ZNSt12_Vector_baseIsSaIsEE12_Vector_implD4Ev"
.LASF864:
	.string	"__alloc"
.LASF32:
	.string	"_ZNKSt17integral_constantIbLb0EEclEv"
.LASF888:
	.string	"print"
.LASF644:
	.string	"bool"
.LASF77:
	.string	"_ZNSt11char_traitsIwE2ltERKwS2_"
.LASF675:
	.string	"uint_least8_t"
.LASF376:
	.string	"_ZNKSt13move_iteratorIPsEixEl"
.LASF377:
	.string	"conditional<true, short int&&, short int&>"
.LASF416:
	.string	"_ZNKSt9basic_iosIcSt11char_traitsIcEE7rdstateEv"
.LASF671:
	.string	"int_least8_t"
.LASF518:
	.string	"__unknown__"
.LASF63:
	.string	"_ZNSt11char_traitsIcE6assignEPcmc"
.LASF325:
	.string	"_M_check_len"
.LASF196:
	.string	"_M_impl"
.LASF401:
	.string	"_ZSt22__uninitialized_copy_aISt13move_iteratorIPsES1_sET0_T_S4_S3_RSaIT1_E"
.LASF114:
	.string	"_ZNSo9_M_insertImEERSoT_"
.LASF918:
	.string	"_ZN9TestInputD4Ev"
.LASF256:
	.string	"_ZNKSt6vectorIsSaIsEE6cbeginEv"
.LASF69:
	.string	"_ZNSt11char_traitsIcE11eq_int_typeERKiS2_"
.LASF689:
	.string	"intmax_t"
.LASF38:
	.string	"false_type"
.LASF522:
	.string	"long double"
.LASF178:
	.string	"_ZNSaIsEC4Ev"
.LASF585:
	.string	"putwc"
.LASF169:
	.string	"_ZNSt16allocator_traitsISaIsEE37select_on_container_copy_constructionERKS0_"
.LASF872:
	.string	"__size"
.LASF569:
	.string	"FILE"
.LASF820:
	.string	"data1"
.LASF821:
	.string	"data2"
.LASF822:
	.string	"data3"
.LASF849:
	.string	"_Num"
.LASF501:
	.string	"_ZNK9__gnu_cxx17__normal_iteratorIPsSt6vectorIsSaIsEEEptEv"
.LASF244:
	.string	"begin"
.LASF681:
	.string	"int_fast32_t"
.LASF458:
	.string	"__numeric_traits_floating<double>"
.LASF734:
	.string	"ldiv_t"
.LASF606:
	.string	"tm_mday"
.LASF617:
	.string	"wcsncpy"
.LASF532:
	.string	"__wchb"
.LASF148:
	.string	"_ForwardIterator"
.LASF160:
	.string	"size_type"
.LASF743:
	.string	"bsearch"
.LASF37:
	.string	"_ZNKSt17integral_constantIbLb1EEclEv"
.LASF727:
	.string	"getdate_err"
.LASF230:
	.string	"_ZNSt6vectorIsSaIsEEC4EmRKS0_"
.LASF846:
	.string	"__first"
.LASF920:
	.string	"__static_initialization_and_destruction_0"
.LASF263:
	.string	"size"
.LASF20:
	.string	"swap"
.LASF54:
	.string	"_ZNSt11char_traitsIcE7compareEPKcS2_m"
.LASF439:
	.string	"_ZStorSt12_Ios_IostateS_"
.LASF876:
	.string	"_ZNSt12_Vector_baseIsSaIsEE12_Vector_implD2Ev"
.LASF131:
	.string	"_ZSt7nothrow"
.LASF611:
	.string	"tm_isdst"
.LASF508:
	.string	"_ZNK9__gnu_cxx17__normal_iteratorIPsSt6vectorIsSaIsEEEplEl"
.LASF126:
	.string	"_M_widen_init"
.LASF873:
	.string	"__destroy_from"
.LASF843:
	.string	"_ZN9__gnu_cxx24__numeric_traits_integerIlE5__maxE"
.LASF851:
	.string	"__it"
.LASF327:
	.string	"_M_erase_at_end"
.LASF668:
	.string	"uint16_t"
.LASF640:
	.string	"wcstoll"
.LASF171:
	.string	"destroy<short int>"
.LASF157:
	.string	"allocator_type"
.LASF186:
	.string	"_M_finish"
.LASF237:
	.string	"~vector"
.LASF909:
	.string	"_Ios_Iostate"
.LASF735:
	.string	"7lldiv_t"
.LASF839:
	.string	"_ZN9__gnu_cxx24__numeric_traits_integerIcE5__maxE"
.LASF405:
	.string	"max<long unsigned int>"
.LASF13:
	.string	"_ZNSt15__exception_ptr13exception_ptrC4EDn"
.LASF25:
	.string	"_ZSt17rethrow_exceptionNSt15__exception_ptr13exception_ptrE"
.LASF350:
	.string	"move_iterator<short int*>"
.LASF804:
	.string	"setbuf"
.LASF603:
	.string	"tm_sec"
.LASF612:
	.string	"tm_gmtoff"
.LASF857:
	.string	"_ZN9__gnu_cxx13new_allocatorIsEC2Ev"
.LASF707:
	.string	"p_sep_by_space"
.LASF470:
	.string	"_S_propagate_on_move_assign"
.LASF349:
	.string	"_Iterator"
.LASF431:
	.string	"_ZSt5flushIcSt11char_traitsIcEERSt13basic_ostreamIT_T0_ES6_"
.LASF726:
	.string	"timezone"
.LASF609:
	.string	"tm_wday"
.LASF315:
	.string	"_M_fill_insert"
.LASF413:
	.string	"_ZSt27__uninitialized_default_n_aIPsmsET_S1_T0_RSaIT1_E"
.LASF50:
	.string	"_ZNSt11char_traitsIcE2eqERKcS2_"
.LASF229:
	.string	"_ZNSt6vectorIsSaIsEEC4ERKS0_"
.LASF117:
	.string	"flush"
.LASF362:
	.string	"operator++"
.LASF440:
	.string	"_ZSt20__throw_length_errorPKc"
.LASF367:
	.string	"_ZNSt13move_iteratorIPsEmmEi"
.LASF324:
	.string	"_ZNSt6vectorIsSaIsEE14_M_emplace_auxEN9__gnu_cxx17__normal_iteratorIPKsS1_EEOs"
.LASF141:
	.string	"wcout"
.LASF583:
	.string	"mbsinit"
.LASF516:
	.string	"operator-<short int*, std::vector<short int> >"
.LASF588:
	.string	"swscanf"
.LASF225:
	.string	"vector"
.LASF452:
	.string	"__digits"
.LASF904:
	.string	"GNU C++14 7.5.0 -mtune=generic -march=x86-64 -g -O3 -fstack-protector-strong"
.LASF366:
	.string	"_ZNSt13move_iteratorIPsEmmEv"
.LASF285:
	.string	"_ZNSt6vectorIsSaIsEE5frontEv"
.LASF26:
	.string	"integral_constant<bool, false>"
.LASF884:
	.string	"test"
.LASF39:
	.string	"__cxx11"
.LASF672:
	.string	"int_least16_t"
.LASF900:
	.string	"_Unwind_Resume"
.LASF245:
	.string	"_ZNSt6vectorIsSaIsEE5beginEv"
.LASF187:
	.string	"_M_end_of_storage"
.LASF897:
	.string	"memset"
.LASF731:
	.string	"quot"
.LASF370:
	.string	"operator+="
.LASF538:
	.string	"__FILE"
.LASF255:
	.string	"cbegin"
.LASF320:
	.string	"_ZNSt6vectorIsSaIsEE16_M_shrink_to_fitEv"
.LASF127:
	.string	"basic_istream<wchar_t, std::char_traits<wchar_t> >"
.LASF653:
	.string	"__int16_t"
.LASF870:
	.string	"_ZNSaIsED2Ev"
.LASF718:
	.string	"setlocale"
.LASF559:
	.string	"_shortbuf"
.LASF465:
	.string	"_S_select_on_copy"
.LASF774:
	.string	"_IO_2_1_stdout_"
.LASF231:
	.string	"_ZNSt6vectorIsSaIsEEC4EmRKsRKS0_"
.LASF433:
	.string	"_ZStlsISt11char_traitsIcEERSt13basic_ostreamIcT_ES5_PKc"
.LASF232:
	.string	"_ZNSt6vectorIsSaIsEEC4ERKS1_"
.LASF199:
	.string	"_ZNKSt12_Vector_baseIsSaIsEE19_M_get_Tp_allocatorEv"
.LASF579:
	.string	"fwscanf"
.LASF530:
	.string	"wint_t"
.LASF491:
	.string	"_ZN9__gnu_cxx13new_allocatorIsE8allocateEmPKv"
.LASF343:
	.string	"initializer_list<short int>"
.LASF180:
	.string	"~allocator"
.LASF649:
	.string	"__int128"
.LASF770:
	.string	"_next"
.LASF106:
	.string	"ios_base"
.LASF662:
	.string	"__off64_t"
.LASF287:
	.string	"back"
.LASF294:
	.string	"_ZNSt6vectorIsSaIsEE9push_backERKs"
.LASF112:
	.string	"_ZNSolsEPFRSoS_E"
.LASF913:
	.string	"_ZNSt12_Destroy_auxILb1EE9__destroyIPsEEvT_S3_"
.LASF442:
	.string	"_ZSt16__ostream_insertIcSt11char_traitsIcEERSt13basic_ostreamIT_T0_ES6_PKS3_l"
.LASF23:
	.string	"_ZNKSt15__exception_ptr13exception_ptr20__cxa_exception_typeEv"
.LASF792:
	.string	"fopen"
.LASF402:
	.string	"__make_move_if_noexcept_iterator<short int>"
.LASF177:
	.string	"allocator"
.LASF815:
	.string	"wctrans"
.LASF695:
	.string	"thousands_sep"
.LASF395:
	.string	"_ZSt12__niter_baseIPsET_S1_"
.LASF226:
	.string	"_ZNSt8ios_base4InitC4Ev"
.LASF40:
	.string	"__swappable_details"
.LASF885:
	.string	"joana1"
.LASF886:
	.string	"joana2"
.LASF692:
	.string	"char32_t"
.LASF803:
	.string	"rewind"
.LASF548:
	.string	"_IO_buf_end"
.LASF272:
	.string	"_ZNKSt6vectorIsSaIsEE8capacityEv"
.LASF786:
	.string	"feof"
.LASF614:
	.string	"wcslen"
.LASF108:
	.string	"iostate"
.LASF435:
	.string	"_ZSt4moveIRsEONSt16remove_referenceIT_E4typeEOS2_"
.LASF167:
	.string	"_ZNSt16allocator_traitsISaIsEE8max_sizeERKS0_"
.LASF602:
	.string	"wcsftime"
.LASF89:
	.string	"_ZNSt11char_traitsIwE7not_eofERKj"
.LASF889:
	.string	"_Z5printi"
.LASF753:
	.string	"strtod"
.LASF66:
	.string	"to_int_type"
.LASF763:
	.string	"strtof"
.LASF848:
	.string	"__result"
.LASF492:
	.string	"_ZN9__gnu_cxx13new_allocatorIsE10deallocateEPsm"
.LASF683:
	.string	"uint_fast8_t"
.LASF175:
	.string	"_Alloc"
.LASF64:
	.string	"to_char_type"
.LASF754:
	.string	"strtol"
.LASF46:
	.string	"__debug"
.LASF705:
	.string	"frac_digits"
.LASF392:
	.string	"_ZSt10__fill_n_aIPsmsEN9__gnu_cxx11__enable_ifIXsrSt11__is_scalarIT1_E7__valueET_E6__typeES6_T0_RKS4_"
.LASF84:
	.string	"_ZNSt11char_traitsIwE12to_char_typeERKj"
.LASF698:
	.string	"currency_symbol"
.LASF779:
	.string	"stderr"
.LASF648:
	.string	"short int"
.LASF147:
	.string	"_Destroy_aux<true>"
.LASF517:
	.string	"_ZN9__gnu_cxxmiIPsSt6vectorIsSaIsEEEENS_17__normal_iteratorIT_T0_E15difference_typeERKS8_SB_"
.LASF184:
	.string	"_M_exception_object"
.LASF432:
	.string	"operator<< <std::char_traits<char> >"
.LASF55:
	.string	"_ZNSt11char_traitsIcE6lengthEPKc"
.LASF670:
	.string	"uint64_t"
.LASF83:
	.string	"_ZNSt11char_traitsIwE6assignEPwmw"
.LASF308:
	.string	"_ZNSt6vectorIsSaIsEE5clearEv"
.LASF254:
	.string	"_ZNKSt6vectorIsSaIsEE4rendEv"
.LASF81:
	.string	"_ZNSt11char_traitsIwE4moveEPwPKwm"
.LASF222:
	.string	"const_iterator"
.LASF334:
	.string	"_ZNSt6vectorIsSaIsEE14_M_move_assignEOS1_St17integral_constantIbLb0EE"
.LASF477:
	.string	"_S_nothrow_move"
.LASF289:
	.string	"_ZNKSt6vectorIsSaIsEE4backEv"
.LASF767:
	.string	"__state"
.LASF381:
	.string	"__copy_move_a<true, short int*, short int*>"
.LASF261:
	.string	"crend"
.LASF795:
	.string	"fseek"
.LASF664:
	.string	"int16_t"
.LASF738:
	.string	"atexit"
.LASF251:
	.string	"_ZNKSt6vectorIsSaIsEE6rbeginEv"
.LASF380:
	.string	"_ZNSt11__copy_moveILb1ELb1ESt26random_access_iterator_tagE8__copy_mIsEEPT_PKS3_S6_S4_"
.LASF908:
	.string	"_ZNKSt15__exception_ptr13exception_ptrcvbEv"
.LASF407:
	.string	"__uninitialized_default_n<short int*, long unsigned int>"
.LASF139:
	.string	"_ZSt4wcin"
.LASF558:
	.string	"_vtable_offset"
.LASF701:
	.string	"mon_grouping"
.LASF388:
	.string	"_ZSt12__miter_baseIPsEDTcl12__miter_basecldtfp_4baseEEESt13move_iteratorIT_E"
.LASF475:
	.string	"_S_always_equal"
.LASF783:
	.string	"_sys_errlist"
.LASF660:
	.string	"__uintmax_t"
.LASF208:
	.string	"_ZNSt12_Vector_baseIsSaIsEEC4EOS1_"
.LASF364:
	.string	"_ZNSt13move_iteratorIPsEppEi"
.LASF71:
	.string	"_ZNSt11char_traitsIcE6assignERcRKc"
.LASF852:
	.string	"__tmp"
.LASF296:
	.string	"pop_back"
.LASF363:
	.string	"_ZNSt13move_iteratorIPsEppEv"
.LASF597:
	.string	"wcscat"
.LASF515:
	.string	"__type"
.LASF869:
	.string	"__new_finish"
.LASF806:
	.string	"tmpfile"
.LASF729:
	.string	"11__mbstate_t"
.LASF149:
	.string	"__uninitialized_copy<true>"
.LASF283:
	.string	"_ZNKSt6vectorIsSaIsEE2atEm"
.LASF162:
	.string	"_ZNSt16allocator_traitsISaIsEE8allocateERS0_m"
.LASF716:
	.string	"int_p_sign_posn"
.LASF161:
	.string	"allocate"
.LASF41:
	.string	"__swappable_with_details"
.LASF722:
	.string	"__daylight"
.LASF154:
	.string	"_ZNSt27__uninitialized_default_n_1ILb1EE18__uninit_default_nIPsmEET_S3_T0_"
.LASF613:
	.string	"tm_zone"
.LASF191:
	.string	"_M_swap_data"
.LASF808:
	.string	"ungetc"
.LASF183:
	.string	"_Vector_impl"
.LASF338:
	.string	"emplace_back<short int>"
.LASF595:
	.string	"vwscanf"
.LASF98:
	.string	"_S_ios_iostate_end"
.LASF278:
	.string	"_ZNSt6vectorIsSaIsEEixEm"
.LASF596:
	.string	"wcrtomb"
.LASF693:
	.string	"lconv"
.LASF894:
	.string	"_ZdlPv"
.LASF892:
	.string	"_ZnwmPv"
.LASF463:
	.string	"__numeric_traits_integer<long int>"
.LASF542:
	.string	"_IO_read_end"
.LASF747:
	.string	"mbstowcs"
.LASF615:
	.string	"wcsncat"
.LASF877:
	.string	"__os"
.LASF74:
	.string	"char_traits<wchar_t>"
.LASF365:
	.string	"operator--"
.LASF830:
	.string	"__dso_handle"
.LASF426:
	.string	"forward<short int>"
.LASF669:
	.string	"uint32_t"
.LASF386:
	.string	"__copy_move_a2<true, short int*, short int*>"
.LASF717:
	.string	"int_n_sign_posn"
.LASF374:
	.string	"operator-="
.LASF360:
	.string	"operator->"
.LASF850:
	.string	"__simple"
.LASF389:
	.string	"copy<std::move_iterator<short int*>, short int*>"
.LASF684:
	.string	"uint_fast16_t"
.LASF576:
	.string	"fputws"
.LASF383:
	.string	"_IsMove"
.LASF593:
	.string	"vswscanf"
.LASF182:
	.string	"_Vector_base<short int, std::allocator<short int> >"
.LASF31:
	.string	"operator()"
.LASF584:
	.string	"mbsrtowcs"
.LASF454:
	.string	"__numeric_traits_floating<float>"
.LASF8:
	.string	"_ZNSt15__exception_ptr13exception_ptr10_M_releaseEv"
.LASF573:
	.string	"fgetws"
.LASF97:
	.string	"_S_failbit"
.LASF92:
	.string	"literals"
.LASF528:
	.string	"reg_save_area"
.LASF19:
	.string	"_ZNSt15__exception_ptr13exception_ptrD4Ev"
.LASF200:
	.string	"get_allocator"
.LASF259:
	.string	"crbegin"
.LASF455:
	.string	"__max_digits10"
.LASF128:
	.string	"istream"
.LASF575:
	.string	"fputwc"
.LASF706:
	.string	"p_cs_precedes"
.LASF460:
	.string	"__numeric_traits_integer<long unsigned int>"
.LASF608:
	.string	"tm_year"
.LASF14:
	.string	"_ZNSt15__exception_ptr13exception_ptrC4EOS0_"
.LASF520:
	.string	"float"
.LASF778:
	.string	"stdout"
.LASF498:
	.string	"_ZN9__gnu_cxx17__normal_iteratorIPsSt6vectorIsSaIsEEEC4Ev"
.LASF356:
	.string	"base"
.LASF482:
	.string	"const_pointer"
.LASF793:
	.string	"fread"
.LASF507:
	.string	"_ZN9__gnu_cxx17__normal_iteratorIPsSt6vectorIsSaIsEEEpLEl"
.LASF745:
	.string	"ldiv"
.LASF447:
	.string	"__ops"
.LASF591:
	.string	"vfwscanf"
.LASF545:
	.string	"_IO_write_ptr"
.LASF138:
	.string	"wcin"
.LASF887:
	.string	"_ZN9TestInputC2Ev"
.LASF85:
	.string	"_ZNSt11char_traitsIwE11to_int_typeERKw"
.LASF87:
	.string	"_ZNSt11char_traitsIcE3eofEv"
.LASF88:
	.string	"_ZNSt11char_traitsIwE3eofEv"
.LASF509:
	.string	"_ZN9__gnu_cxx17__normal_iteratorIPsSt6vectorIsSaIsEEEmIEl"
.LASF0:
	.string	"__exception_ptr"
.LASF655:
	.string	"__int32_t"
.LASF292:
	.string	"_ZNKSt6vectorIsSaIsEE4dataEv"
.LASF666:
	.string	"int64_t"
.LASF861:
	.string	"__in_chrg"
.LASF421:
	.string	"_ZNSt20__uninitialized_copyILb1EE13__uninit_copyISt13move_iteratorIPsES3_EET0_T_S6_S5_"
.LASF201:
	.string	"_ZNKSt12_Vector_baseIsSaIsEE13get_allocatorEv"
.LASF725:
	.string	"daylight"
.LASF410:
	.string	"_ZSt34__uninitialized_move_if_noexcept_aIPsS0_SaIsEET0_T_S3_S2_RT1_"
.LASF7:
	.string	"_ZNSt15__exception_ptr13exception_ptr9_M_addrefEv"
.LASF580:
	.string	"getwc"
.LASF91:
	.string	"true_type"
.LASF813:
	.string	"iswctype"
.LASF450:
	.string	"__max"
.LASF62:
	.string	"assign"
.LASF696:
	.string	"grouping"
.LASF211:
	.string	"_ZNSt12_Vector_baseIsSaIsEED4Ev"
.LASF910:
	.string	"do_widen"
.LASF865:
	.string	"__len"
.LASF176:
	.string	"allocator<short int>"
.LASF434:
	.string	"move<short int&>"
.LASF680:
	.string	"int_fast16_t"
.LASF571:
	.string	"btowc"
.LASF632:
	.string	"wprintf"
.LASF393:
	.string	"_OutputIterator"
.LASF290:
	.string	"data"
.LASF305:
	.string	"_ZNSt6vectorIsSaIsEE5eraseEN9__gnu_cxx17__normal_iteratorIPKsS1_EES6_"
.LASF72:
	.string	"_ZNSt11char_traitsIcE7not_eofERKi"
.LASF788:
	.string	"fflush"
.LASF252:
	.string	"rend"
.LASF163:
	.string	"_ZNSt16allocator_traitsISaIsEE8allocateERS0_mPKv"
.LASF227:
	.string	"_ZNSt6vectorIsSaIsEEC4Ev"
.LASF868:
	.string	"__new_start"
.LASF750:
	.string	"quick_exit"
.LASF214:
	.string	"_M_deallocate"
.LASF574:
	.string	"wchar_t"
.LASF524:
	.string	"typedef __va_list_tag __va_list_tag"
.LASF914:
	.string	"_ZN9__gnu_cxx3divExx"
.LASF155:
	.string	"_Size"
.LASF159:
	.string	"const_void_pointer"
.LASF862:
	.string	"_ZN9__gnu_cxx13new_allocatorIsED2Ev"
.LASF446:
	.string	"__gnu_cxx"
.LASF625:
	.string	"wcstoul"
.LASF732:
	.string	"div_t"
.LASF794:
	.string	"freopen"
.LASF118:
	.string	"_ZNSo3putEc"
.LASF856:
	.string	"_ZNSt13move_iteratorIPsEC2ES0_"
	.hidden	DW.ref.__gxx_personality_v0
	.weak	DW.ref.__gxx_personality_v0
	.section	.data.rel.local.DW.ref.__gxx_personality_v0,"awG",@progbits,DW.ref.__gxx_personality_v0,comdat
	.align 8
	.type	DW.ref.__gxx_personality_v0, @object
	.size	DW.ref.__gxx_personality_v0, 8
DW.ref.__gxx_personality_v0:
	.quad	__gxx_personality_v0
	.hidden	__dso_handle
	.ident	"GCC: (Ubuntu 7.5.0-3ubuntu1~18.04) 7.5.0"
	.section	.note.GNU-stack,"",@progbits
